ARM GAS  C:\Users\bkettle\AppData\Local\Temp\ccGiBpZ7.s 			page 1


   1              		.syntax unified
   2              		.cpu cortex-m3
   3              		.fpu softvfp
   4              		.eabi_attribute 20, 1
   5              		.eabi_attribute 21, 1
   6              		.eabi_attribute 23, 3
   7              		.eabi_attribute 24, 1
   8              		.eabi_attribute 25, 1
   9              		.eabi_attribute 26, 1
  10              		.eabi_attribute 30, 1
  11              		.eabi_attribute 34, 1
  12              		.eabi_attribute 18, 4
  13              		.thumb
  14              		.syntax unified
  15              		.file	"main.c"
  16              		.text
  17              	.Ltext0:
  18              		.cfi_sections	.debug_frame
  19              		.section	.text.serial_print_dt,"ax",%progbits
  20              		.align	2
  21              		.global	serial_print_dt
  22              		.thumb
  23              		.thumb_func
  24              		.type	serial_print_dt, %function
  25              	serial_print_dt:
  26              	.LFB64:
  27              		.file 1 "main.c"
   1:main.c        **** /* ========================================
   2:main.c        ****  *
   3:main.c        ****  * Copyright YOUR COMPANY, THE YEAR
   4:main.c        ****  * All Rights Reserved
   5:main.c        ****  * UNPUBLISHED, LICENSED SOFTWARE.
   6:main.c        ****  *
   7:main.c        ****  * CONFIDENTIAL AND PROPRIETARY INFORMATION
   8:main.c        ****  * WHICH IS THE PROPERTY OF your company.
   9:main.c        ****  *
  10:main.c        ****  * ========================================
  11:main.c        **** */
  12:main.c        **** #include "project.h"
  13:main.c        **** #include "stdio.h"
  14:main.c        **** #include "ds3231.h"
  15:main.c        **** 
  16:main.c        **** void serial_print_dt(DateTime dt) {
  28              		.loc 1 16 0
  29              		.cfi_startproc
  30              		@ args = 0, pretend = 0, frame = 48
  31              		@ frame_needed = 0, uses_anonymous_args = 0
  32 0000 2DE9F047 		push	{r4, r5, r6, r7, r8, r9, r10, lr}
  33              		.cfi_def_cfa_offset 32
  34              		.cfi_offset 4, -32
  35              		.cfi_offset 5, -28
  36              		.cfi_offset 6, -24
  37              		.cfi_offset 7, -20
  38              		.cfi_offset 8, -16
  39              		.cfi_offset 9, -12
  40              		.cfi_offset 10, -8
  41              		.cfi_offset 14, -4
ARM GAS  C:\Users\bkettle\AppData\Local\Temp\ccGiBpZ7.s 			page 2


  42 0004 92B0     		sub	sp, sp, #72
  43              		.cfi_def_cfa_offset 104
  44 0006 06AC     		add	r4, sp, #24
  45 0008 84E80300 		stmia	r4, {r0, r1}
  17:main.c        ****     UART_1_PutString("\n\rdatetime: ");
  46              		.loc 1 17 0
  47 000c 1C48     		ldr	r0, .L3
  48 000e FFF7FEFF 		bl	UART_1_PutString
  49              	.LVL0:
  18:main.c        ****     char to_send[40];
  19:main.c        ****     sprintf(to_send, "%d-%d-%d %d:%d:%2.0d unix: %d", dt_getYear(dt), \
  50              		.loc 1 19 0
  51 0012 94E80300 		ldmia	r4, {r0, r1}
  52 0016 FFF7FEFF 		bl	dt_getYear
  53              	.LVL1:
  54 001a 0546     		mov	r5, r0
  20:main.c        ****         dt_getMonth(dt), dt_getDay(dt), dt_getHour(dt), \
  55              		.loc 1 20 0
  56 001c 94E80300 		ldmia	r4, {r0, r1}
  57 0020 FFF7FEFF 		bl	dt_getMonth
  58              	.LVL2:
  59 0024 0646     		mov	r6, r0
  60 0026 94E80300 		ldmia	r4, {r0, r1}
  61 002a FFF7FEFF 		bl	dt_getDay
  62              	.LVL3:
  63 002e 0746     		mov	r7, r0
  64 0030 94E80300 		ldmia	r4, {r0, r1}
  65 0034 FFF7FEFF 		bl	dt_getHour
  66              	.LVL4:
  67 0038 8046     		mov	r8, r0
  21:main.c        ****         dt_getMinute(dt), dt_getSecond(dt), dt_getUnixtime(dt));
  68              		.loc 1 21 0
  69 003a 94E80300 		ldmia	r4, {r0, r1}
  70 003e FFF7FEFF 		bl	dt_getMinute
  71              	.LVL5:
  72 0042 8146     		mov	r9, r0
  73 0044 94E80300 		ldmia	r4, {r0, r1}
  74 0048 FFF7FEFF 		bl	dt_getSecond
  75              	.LVL6:
  76 004c 8246     		mov	r10, r0
  19:main.c        ****         dt_getMonth(dt), dt_getDay(dt), dt_getHour(dt), \
  77              		.loc 1 19 0
  78 004e 94E80300 		ldmia	r4, {r0, r1}
  79 0052 FFF7FEFF 		bl	dt_getUnixtime
  80              	.LVL7:
  81 0056 0490     		str	r0, [sp, #16]
  82 0058 CDF80CA0 		str	r10, [sp, #12]
  83 005c CDF80890 		str	r9, [sp, #8]
  84 0060 CDF80480 		str	r8, [sp, #4]
  85 0064 0097     		str	r7, [sp]
  86 0066 3346     		mov	r3, r6
  87 0068 2A46     		mov	r2, r5
  88 006a 0649     		ldr	r1, .L3+4
  89 006c 08A8     		add	r0, sp, #32
  90 006e FFF7FEFF 		bl	sprintf
  91              	.LVL8:
  22:main.c        ****     UART_1_PutString(to_send);
ARM GAS  C:\Users\bkettle\AppData\Local\Temp\ccGiBpZ7.s 			page 3


  92              		.loc 1 22 0
  93 0072 08A8     		add	r0, sp, #32
  94 0074 FFF7FEFF 		bl	UART_1_PutString
  95              	.LVL9:
  23:main.c        **** }
  96              		.loc 1 23 0
  97 0078 12B0     		add	sp, sp, #72
  98              		.cfi_def_cfa_offset 32
  99              		@ sp needed
 100 007a BDE8F087 		pop	{r4, r5, r6, r7, r8, r9, r10, pc}
 101              	.L4:
 102 007e 00BF     		.align	2
 103              	.L3:
 104 0080 00000000 		.word	.LC0
 105 0084 10000000 		.word	.LC1
 106              		.cfi_endproc
 107              	.LFE64:
 108              		.size	serial_print_dt, .-serial_print_dt
 109              		.section	.text.main,"ax",%progbits
 110              		.align	2
 111              		.global	main
 112              		.thumb
 113              		.thumb_func
 114              		.type	main, %function
 115              	main:
 116              	.LFB65:
  24:main.c        **** 
  25:main.c        **** int main(void)
  26:main.c        **** {
 117              		.loc 1 26 0
 118              		.cfi_startproc
 119              		@ args = 0, pretend = 0, frame = 8
 120              		@ frame_needed = 0, uses_anonymous_args = 0
 121 0000 10B5     		push	{r4, lr}
 122              		.cfi_def_cfa_offset 8
 123              		.cfi_offset 4, -8
 124              		.cfi_offset 14, -4
 125 0002 82B0     		sub	sp, sp, #8
 126              		.cfi_def_cfa_offset 16
  27:main.c        ****     CyGlobalIntEnable; /* Enable global interrupts. */
 127              		.loc 1 27 0
 128              		.syntax unified
 129              	@ 27 "main.c" 1
 130 0004 62B6     		CPSIE   i
 131              	@ 0 "" 2
  28:main.c        ****     UART_1_Start();
 132              		.loc 1 28 0
 133              		.thumb
 134              		.syntax unified
 135 0006 FFF7FEFF 		bl	UART_1_Start
 136              	.LVL10:
  29:main.c        ****     UART_1_PutString("COM Port Open");
 137              		.loc 1 29 0
 138 000a 0A48     		ldr	r0, .L8
 139 000c FFF7FEFF 		bl	UART_1_PutString
 140              	.LVL11:
  30:main.c        ****     /* Place your initialization/startup code here (e.g. MyInst_Start()) */
ARM GAS  C:\Users\bkettle\AppData\Local\Temp\ccGiBpZ7.s 			page 4


  31:main.c        ****     I2CRTC_Start();
 141              		.loc 1 31 0
 142 0010 FFF7FEFF 		bl	I2CRTC_Start
 143              	.LVL12:
  32:main.c        ****     I2CRTC_EnableInt();
 144              		.loc 1 32 0
 145 0014 4FF40042 		mov	r2, #32768
 146 0018 074B     		ldr	r3, .L8+4
 147 001a 1A60     		str	r2, [r3]
 148              	.L6:
 149              	.LBB2:
  33:main.c        ****     
  34:main.c        ****     
  35:main.c        ****     
  36:main.c        ****     /*DateTime init = {
  37:main.c        ****         20,     // year from 2000
  38:main.c        ****         6,      // month
  39:main.c        ****         1,      // day
  40:main.c        ****         16,      // hour
  41:main.c        ****         3,      // minute
  42:main.c        ****         22      // second
  43:main.c        ****     };
  44:main.c        ****     RTC_setTime(init); TIME SHOULD BE SET NOW*/
  45:main.c        **** 
  46:main.c        ****     for(;;)
  47:main.c        ****     {
  48:main.c        ****         DateTime now;
  49:main.c        ****         now = RTC_now();
 150              		.loc 1 49 0 discriminator 1
 151 001c 6846     		mov	r0, sp
 152 001e FFF7FEFF 		bl	RTC_now
 153              	.LVL13:
  50:main.c        ****         serial_print_dt(now);
 154              		.loc 1 50 0 discriminator 1
 155 0022 9DE80300 		ldmia	sp, {r0, r1}
 156 0026 FFF7FEFF 		bl	serial_print_dt
 157              	.LVL14:
  51:main.c        ****         CyDelay(1000);
 158              		.loc 1 51 0 discriminator 1
 159 002a 4FF47A70 		mov	r0, #1000
 160 002e FFF7FEFF 		bl	CyDelay
 161              	.LVL15:
 162 0032 F3E7     		b	.L6
 163              	.L9:
 164              		.align	2
 165              	.L8:
 166 0034 30000000 		.word	.LC2
 167 0038 00E100E0 		.word	-536813312
 168              	.LBE2:
 169              		.cfi_endproc
 170              	.LFE65:
 171              		.size	main, .-main
 172              		.section	.rodata.str1.4,"aMS",%progbits,1
 173              		.align	2
 174              	.LC0:
 175 0000 0A0D6461 		.ascii	"\012\015datetime: \000"
 175      74657469 
ARM GAS  C:\Users\bkettle\AppData\Local\Temp\ccGiBpZ7.s 			page 5


 175      6D653A20 
 175      00
 176 000d 000000   		.space	3
 177              	.LC1:
 178 0010 25642D25 		.ascii	"%d-%d-%d %d:%d:%2.0d unix: %d\000"
 178      642D2564 
 178      2025643A 
 178      25643A25 
 178      322E3064 
 179 002e 0000     		.space	2
 180              	.LC2:
 181 0030 434F4D20 		.ascii	"COM Port Open\000"
 181      506F7274 
 181      204F7065 
 181      6E00
 182              		.text
 183              	.Letext0:
 184              		.file 2 "c:\\program files (x86)\\cypress\\psoc creator\\4.3\\psoc creator\\import\\gnu\\arm\\5.4.
 185              		.file 3 "c:\\program files (x86)\\cypress\\psoc creator\\4.3\\psoc creator\\import\\gnu\\arm\\5.4.
 186              		.file 4 "Generated_Source\\PSoC5/cytypes.h"
 187              		.file 5 "ds3231.h"
 188              		.file 6 "Generated_Source\\PSoC5/UART_1.h"
 189              		.file 7 "c:\\program files (x86)\\cypress\\psoc creator\\4.3\\psoc creator\\import\\gnu\\arm\\5.4.
 190              		.file 8 "Generated_Source\\PSoC5/CyLib.h"
 191              		.file 9 "Generated_Source\\PSoC5/I2CRTC.h"
 192              		.file 10 "Generated_Source\\PSoC5/core_cm3.h"