ARM GAS  C:\Users\bkettle\AppData\Local\Temp\ccPMhHop.s 			page 1


   1              		.syntax unified
   2              		.cpu cortex-m3
   3              		.fpu softvfp
   4              		.eabi_attribute 20, 1
   5              		.eabi_attribute 21, 1
   6              		.eabi_attribute 23, 3
   7              		.eabi_attribute 24, 1
   8              		.eabi_attribute 25, 1
   9              		.eabi_attribute 26, 1
  10              		.eabi_attribute 30, 1
  11              		.eabi_attribute 34, 1
  12              		.eabi_attribute 18, 4
  13              		.thumb
  14              		.syntax unified
  15              		.file	"hmac.c"
  16              		.text
  17              	.Ltext0:
  18              		.cfi_sections	.debug_frame
  19              		.section	.text.hmacReset,"ax",%progbits
  20              		.align	2
  21              		.global	hmacReset
  22              		.thumb
  23              		.thumb_func
  24              		.type	hmacReset, %function
  25              	hmacReset:
  26              	.LFB1:
  27              		.file 1 "..\\lib\\yubico-c-client\\hmac.c"
   1:..\lib\yubico-c-client/hmac.c **** /**************************** hmac.c ****************************/
   2:..\lib\yubico-c-client/hmac.c **** /******************** See RFC 4634 for details ******************/
   3:..\lib\yubico-c-client/hmac.c **** /*
   4:..\lib\yubico-c-client/hmac.c ****  *  Description:
   5:..\lib\yubico-c-client/hmac.c ****  *      This file implements the HMAC algorithm (Keyed-Hashing for
   6:..\lib\yubico-c-client/hmac.c ****  *      Message Authentication, RFC2104), expressed in terms of the
   7:..\lib\yubico-c-client/hmac.c ****  *      various SHA algorithms.
   8:..\lib\yubico-c-client/hmac.c ****  */
   9:..\lib\yubico-c-client/hmac.c **** 
  10:..\lib\yubico-c-client/hmac.c **** #include "sha.h"
  11:..\lib\yubico-c-client/hmac.c **** 
  12:..\lib\yubico-c-client/hmac.c **** /*
  13:..\lib\yubico-c-client/hmac.c ****  *  hmac
  14:..\lib\yubico-c-client/hmac.c ****  *
  15:..\lib\yubico-c-client/hmac.c ****  *  Description:
  16:..\lib\yubico-c-client/hmac.c ****  *      This function will compute an HMAC message digest.
  17:..\lib\yubico-c-client/hmac.c ****  *
  18:..\lib\yubico-c-client/hmac.c ****  *  Parameters:
  19:..\lib\yubico-c-client/hmac.c ****  *      whichSha: [in]
  20:..\lib\yubico-c-client/hmac.c ****  *          One of SHA1, SHA224, SHA256, SHA384, SHA512
  21:..\lib\yubico-c-client/hmac.c ****  *      key: [in]
  22:..\lib\yubico-c-client/hmac.c ****  *          The secret shared key.
  23:..\lib\yubico-c-client/hmac.c ****  *      key_len: [in]
  24:..\lib\yubico-c-client/hmac.c ****  *          The length of the secret shared key.
  25:..\lib\yubico-c-client/hmac.c ****  *      message_array: [in]
  26:..\lib\yubico-c-client/hmac.c ****  *          An array of characters representing the message.
  27:..\lib\yubico-c-client/hmac.c ****  *      length: [in]
  28:..\lib\yubico-c-client/hmac.c ****  *          The length of the message in message_array
  29:..\lib\yubico-c-client/hmac.c ****  *      digest: [out]
  30:..\lib\yubico-c-client/hmac.c ****  *          Where the digest is returned.
ARM GAS  C:\Users\bkettle\AppData\Local\Temp\ccPMhHop.s 			page 2


  31:..\lib\yubico-c-client/hmac.c ****  *          NOTE: The length of the digest is determined by
  32:..\lib\yubico-c-client/hmac.c ****  *              the value of whichSha.
  33:..\lib\yubico-c-client/hmac.c ****  *
  34:..\lib\yubico-c-client/hmac.c ****  *  Returns:
  35:..\lib\yubico-c-client/hmac.c ****  *      sha Error Code.
  36:..\lib\yubico-c-client/hmac.c ****  *
  37:..\lib\yubico-c-client/hmac.c ****  */
  38:..\lib\yubico-c-client/hmac.c **** int
  39:..\lib\yubico-c-client/hmac.c **** hmac (SHAversion whichSha, const unsigned char *text, int text_len,
  40:..\lib\yubico-c-client/hmac.c ****       const unsigned char *key, int key_len, uint8_t digest[USHAMaxHashSize])
  41:..\lib\yubico-c-client/hmac.c **** {
  42:..\lib\yubico-c-client/hmac.c ****   HMACContext ctx;
  43:..\lib\yubico-c-client/hmac.c ****   return hmacReset (&ctx, whichSha, key, key_len) ||
  44:..\lib\yubico-c-client/hmac.c ****     hmacInput (&ctx, text, text_len) || hmacResult (&ctx, digest);
  45:..\lib\yubico-c-client/hmac.c **** }
  46:..\lib\yubico-c-client/hmac.c **** 
  47:..\lib\yubico-c-client/hmac.c **** /*
  48:..\lib\yubico-c-client/hmac.c ****  *  hmacReset
  49:..\lib\yubico-c-client/hmac.c ****  *
  50:..\lib\yubico-c-client/hmac.c ****  *  Description:
  51:..\lib\yubico-c-client/hmac.c ****  *      This function will initialize the hmacContext in preparation
  52:..\lib\yubico-c-client/hmac.c ****  *      for computing a new HMAC message digest.
  53:..\lib\yubico-c-client/hmac.c ****  *
  54:..\lib\yubico-c-client/hmac.c ****  *  Parameters:
  55:..\lib\yubico-c-client/hmac.c ****  *      context: [in/out]
  56:..\lib\yubico-c-client/hmac.c ****  *          The context to reset.
  57:..\lib\yubico-c-client/hmac.c ****  *      whichSha: [in]
  58:..\lib\yubico-c-client/hmac.c ****  *          One of SHA1, SHA224, SHA256, SHA384, SHA512
  59:..\lib\yubico-c-client/hmac.c ****  *      key: [in]
  60:..\lib\yubico-c-client/hmac.c ****  *          The secret shared key.
  61:..\lib\yubico-c-client/hmac.c ****  *      key_len: [in]
  62:..\lib\yubico-c-client/hmac.c ****  *          The length of the secret shared key.
  63:..\lib\yubico-c-client/hmac.c ****  *
  64:..\lib\yubico-c-client/hmac.c ****  *  Returns:
  65:..\lib\yubico-c-client/hmac.c ****  *      sha Error Code.
  66:..\lib\yubico-c-client/hmac.c ****  *
  67:..\lib\yubico-c-client/hmac.c ****  */
  68:..\lib\yubico-c-client/hmac.c **** int
  69:..\lib\yubico-c-client/hmac.c **** hmacReset (HMACContext * ctx, enum SHAversion whichSha,
  70:..\lib\yubico-c-client/hmac.c **** 	   const unsigned char *key, int key_len)
  71:..\lib\yubico-c-client/hmac.c **** {
  28              		.loc 1 71 0
  29              		.cfi_startproc
  30              		@ args = 0, pretend = 0, frame = 424
  31              		@ frame_needed = 0, uses_anonymous_args = 0
  32              	.LVL0:
  72:..\lib\yubico-c-client/hmac.c ****   int i, blocksize, hashsize;
  73:..\lib\yubico-c-client/hmac.c **** 
  74:..\lib\yubico-c-client/hmac.c ****   /* inner padding - key XORd with ipad */
  75:..\lib\yubico-c-client/hmac.c ****   unsigned char k_ipad[USHA_Max_Message_Block_Size];
  76:..\lib\yubico-c-client/hmac.c **** 
  77:..\lib\yubico-c-client/hmac.c ****   /* temporary buffer when keylen > blocksize */
  78:..\lib\yubico-c-client/hmac.c ****   unsigned char tempkey[USHAMaxHashSize];
  79:..\lib\yubico-c-client/hmac.c **** 
  80:..\lib\yubico-c-client/hmac.c ****   if (!ctx)
  33              		.loc 1 80 0
  34 0000 0028     		cmp	r0, #0
ARM GAS  C:\Users\bkettle\AppData\Local\Temp\ccPMhHop.s 			page 3


  35 0002 5BD0     		beq	.L10
  71:..\lib\yubico-c-client/hmac.c ****   int i, blocksize, hashsize;
  36              		.loc 1 71 0
  37 0004 2DE9F043 		push	{r4, r5, r6, r7, r8, r9, lr}
  38              		.cfi_def_cfa_offset 28
  39              		.cfi_offset 4, -28
  40              		.cfi_offset 5, -24
  41              		.cfi_offset 6, -20
  42              		.cfi_offset 7, -16
  43              		.cfi_offset 8, -12
  44              		.cfi_offset 9, -8
  45              		.cfi_offset 14, -4
  46 0008 EBB0     		sub	sp, sp, #428
  47              		.cfi_def_cfa_offset 456
  48 000a 8846     		mov	r8, r1
  49 000c 1546     		mov	r5, r2
  50 000e 1F46     		mov	r7, r3
  51 0010 0446     		mov	r4, r0
  81:..\lib\yubico-c-client/hmac.c ****     return shaNull;
  82:..\lib\yubico-c-client/hmac.c **** 
  83:..\lib\yubico-c-client/hmac.c ****   blocksize = ctx->blockSize = USHABlockSize (whichSha);
  52              		.loc 1 83 0
  53 0012 0846     		mov	r0, r1
  54              	.LVL1:
  55 0014 FFF7FEFF 		bl	USHABlockSize
  56              	.LVL2:
  57 0018 0646     		mov	r6, r0
  58 001a A060     		str	r0, [r4, #8]
  59              	.LVL3:
  84:..\lib\yubico-c-client/hmac.c ****   hashsize = ctx->hashSize = USHAHashSize (whichSha);
  60              		.loc 1 84 0
  61 001c 4046     		mov	r0, r8
  62              	.LVL4:
  63 001e FFF7FEFF 		bl	USHAHashSize
  64              	.LVL5:
  65 0022 8146     		mov	r9, r0
  66 0024 6060     		str	r0, [r4, #4]
  67              	.LVL6:
  85:..\lib\yubico-c-client/hmac.c **** 
  86:..\lib\yubico-c-client/hmac.c ****   ctx->whichSha = whichSha;
  68              		.loc 1 86 0
  69 0026 C4F80080 		str	r8, [r4]
  87:..\lib\yubico-c-client/hmac.c **** 
  88:..\lib\yubico-c-client/hmac.c ****   /*
  89:..\lib\yubico-c-client/hmac.c ****    * If key is longer than the hash blocksize,
  90:..\lib\yubico-c-client/hmac.c ****    * reset it to key = HASH(key).
  91:..\lib\yubico-c-client/hmac.c ****    */
  92:..\lib\yubico-c-client/hmac.c ****   if (key_len > blocksize)
  70              		.loc 1 92 0
  71 002a BE42     		cmp	r6, r7
  72 002c 19DA     		bge	.L3
  73              	.LBB2:
  93:..\lib\yubico-c-client/hmac.c ****     {
  94:..\lib\yubico-c-client/hmac.c ****       USHAContext tctx;
  95:..\lib\yubico-c-client/hmac.c ****       int err = USHAReset (&tctx, whichSha) ||
  74              		.loc 1 95 0
  75 002e 4146     		mov	r1, r8
ARM GAS  C:\Users\bkettle\AppData\Local\Temp\ccPMhHop.s 			page 4


  76 0030 6846     		mov	r0, sp
  77              	.LVL7:
  78 0032 FFF7FEFF 		bl	USHAReset
  79              	.LVL8:
  96:..\lib\yubico-c-client/hmac.c **** 	USHAInput (&tctx, key, key_len) || USHAResult (&tctx, tempkey);
  80              		.loc 1 96 0
  81 0036 60B9     		cbnz	r0, .L11
  82              		.loc 1 96 0 is_stmt 0 discriminator 2
  83 0038 3A46     		mov	r2, r7
  84 003a 2946     		mov	r1, r5
  85 003c 6846     		mov	r0, sp
  86 003e FFF7FEFF 		bl	USHAInput
  87              	.LVL9:
  95:..\lib\yubico-c-client/hmac.c **** 	USHAInput (&tctx, key, key_len) || USHAResult (&tctx, tempkey);
  88              		.loc 1 95 0 is_stmt 1 discriminator 2
  89 0042 40B9     		cbnz	r0, .L12
  90              		.loc 1 96 0 discriminator 3
  91 0044 3AA9     		add	r1, sp, #232
  92 0046 6846     		mov	r0, sp
  93 0048 FFF7FEFF 		bl	USHAResult
  94              	.LVL10:
  95 004c 28B9     		cbnz	r0, .L13
  96              		.loc 1 96 0 is_stmt 0
  97 004e 0023     		movs	r3, #0
  98 0050 04E0     		b	.L4
  99              	.L11:
 100 0052 0123     		movs	r3, #1
 101 0054 02E0     		b	.L4
 102              	.L12:
 103 0056 0123     		movs	r3, #1
 104 0058 00E0     		b	.L4
 105              	.L13:
 106 005a 0123     		movs	r3, #1
 107              	.L4:
 108              	.LVL11:
  97:..\lib\yubico-c-client/hmac.c ****       if (err != shaSuccess)
 109              		.loc 1 97 0 is_stmt 1
 110 005c A3BB     		cbnz	r3, .L2
 111              	.LVL12:
  98:..\lib\yubico-c-client/hmac.c **** 	return err;
  99:..\lib\yubico-c-client/hmac.c **** 
 100:..\lib\yubico-c-client/hmac.c ****       key = tempkey;
 101:..\lib\yubico-c-client/hmac.c ****       key_len = hashsize;
 112              		.loc 1 101 0
 113 005e 4F46     		mov	r7, r9
 100:..\lib\yubico-c-client/hmac.c ****       key_len = hashsize;
 114              		.loc 1 100 0
 115 0060 3AAD     		add	r5, sp, #232
 116              	.LVL13:
 117              	.L3:
 118              	.LBE2:
 102:..\lib\yubico-c-client/hmac.c ****     }
 103:..\lib\yubico-c-client/hmac.c **** 
 104:..\lib\yubico-c-client/hmac.c ****   /*
 105:..\lib\yubico-c-client/hmac.c ****    * The HMAC transform looks like:
 106:..\lib\yubico-c-client/hmac.c ****    *
 107:..\lib\yubico-c-client/hmac.c ****    * SHA(K XOR opad, SHA(K XOR ipad, text))
ARM GAS  C:\Users\bkettle\AppData\Local\Temp\ccPMhHop.s 			page 5


 108:..\lib\yubico-c-client/hmac.c ****    *
 109:..\lib\yubico-c-client/hmac.c ****    * where K is an n byte key.
 110:..\lib\yubico-c-client/hmac.c ****    * ipad is the byte 0x36 repeated blocksize times
 111:..\lib\yubico-c-client/hmac.c ****    * opad is the byte 0x5c repeated blocksize times
 112:..\lib\yubico-c-client/hmac.c ****    * and text is the data being protected.
 113:..\lib\yubico-c-client/hmac.c ****    */
 114:..\lib\yubico-c-client/hmac.c **** 
 115:..\lib\yubico-c-client/hmac.c ****   /* store key into the pads, XOR'd with ipad and opad values */
 116:..\lib\yubico-c-client/hmac.c ****   for (i = 0; i < key_len; i++)
 119              		.loc 1 116 0
 120 0062 0023     		movs	r3, #0
 121 0064 0DE0     		b	.L6
 122              	.LVL14:
 123              	.L7:
 117:..\lib\yubico-c-client/hmac.c ****     {
 118:..\lib\yubico-c-client/hmac.c ****       k_ipad[i] = key[i] ^ 0x36;
 124              		.loc 1 118 0 discriminator 3
 125 0066 EA5C     		ldrb	r2, [r5, r3]	@ zero_extendqisi2
 126 0068 6AA9     		add	r1, sp, #424
 127 006a 1944     		add	r1, r1, r3
 128 006c 82F03602 		eor	r2, r2, #54
 129 0070 01F8802C 		strb	r2, [r1, #-128]
 119:..\lib\yubico-c-client/hmac.c ****       ctx->k_opad[i] = key[i] ^ 0x5c;
 130              		.loc 1 119 0 discriminator 3
 131 0074 EA5C     		ldrb	r2, [r5, r3]	@ zero_extendqisi2
 132 0076 E118     		adds	r1, r4, r3
 133 0078 82F05C02 		eor	r2, r2, #92
 134 007c 81F8F820 		strb	r2, [r1, #248]
 116:..\lib\yubico-c-client/hmac.c ****     {
 135              		.loc 1 116 0 discriminator 3
 136 0080 0133     		adds	r3, r3, #1
 137              	.LVL15:
 138              	.L6:
 116:..\lib\yubico-c-client/hmac.c ****     {
 139              		.loc 1 116 0 is_stmt 0 discriminator 1
 140 0082 9F42     		cmp	r7, r3
 141 0084 EFDC     		bgt	.L7
 142 0086 09E0     		b	.L8
 143              	.L9:
 120:..\lib\yubico-c-client/hmac.c ****     }
 121:..\lib\yubico-c-client/hmac.c ****   /* remaining pad bytes are '\0' XOR'd with ipad and opad values */
 122:..\lib\yubico-c-client/hmac.c ****   for (; i < blocksize; i++)
 123:..\lib\yubico-c-client/hmac.c ****     {
 124:..\lib\yubico-c-client/hmac.c ****       k_ipad[i] = 0x36;
 144              		.loc 1 124 0 is_stmt 1 discriminator 2
 145 0088 6AAA     		add	r2, sp, #424
 146 008a 1A44     		add	r2, r2, r3
 147 008c 3621     		movs	r1, #54
 148 008e 02F8801C 		strb	r1, [r2, #-128]
 125:..\lib\yubico-c-client/hmac.c ****       ctx->k_opad[i] = 0x5c;
 149              		.loc 1 125 0 discriminator 2
 150 0092 E218     		adds	r2, r4, r3
 151 0094 5C21     		movs	r1, #92
 152 0096 82F8F810 		strb	r1, [r2, #248]
 122:..\lib\yubico-c-client/hmac.c ****     {
 153              		.loc 1 122 0 discriminator 2
 154 009a 0133     		adds	r3, r3, #1
ARM GAS  C:\Users\bkettle\AppData\Local\Temp\ccPMhHop.s 			page 6


 155              	.LVL16:
 156              	.L8:
 122:..\lib\yubico-c-client/hmac.c ****     {
 157              		.loc 1 122 0 is_stmt 0 discriminator 1
 158 009c B342     		cmp	r3, r6
 159 009e F3DB     		blt	.L9
 126:..\lib\yubico-c-client/hmac.c ****     }
 127:..\lib\yubico-c-client/hmac.c **** 
 128:..\lib\yubico-c-client/hmac.c ****   /* perform inner hash */
 129:..\lib\yubico-c-client/hmac.c ****   /* init context for 1st pass */
 130:..\lib\yubico-c-client/hmac.c ****   return USHAReset (&ctx->shaContext, whichSha) ||
 160              		.loc 1 130 0 is_stmt 1
 161 00a0 1034     		adds	r4, r4, #16
 162              	.LVL17:
 163 00a2 4146     		mov	r1, r8
 164 00a4 2046     		mov	r0, r4
 165 00a6 FFF7FEFF 		bl	USHAReset
 166              	.LVL18:
 167 00aa 50B9     		cbnz	r0, .L14
 131:..\lib\yubico-c-client/hmac.c ****     /* and start with inner pad */
 132:..\lib\yubico-c-client/hmac.c ****     USHAInput (&ctx->shaContext, k_ipad, blocksize);
 168              		.loc 1 132 0 discriminator 2
 169 00ac 3246     		mov	r2, r6
 170 00ae 4AA9     		add	r1, sp, #296
 171 00b0 2046     		mov	r0, r4
 172 00b2 FFF7FEFF 		bl	USHAInput
 173              	.LVL19:
 130:..\lib\yubico-c-client/hmac.c ****     /* and start with inner pad */
 174              		.loc 1 130 0 discriminator 2
 175 00b6 0346     		mov	r3, r0
 176 00b8 28B9     		cbnz	r0, .L15
 177 00ba 05E0     		b	.L2
 178              	.LVL20:
 179              	.L10:
 180              		.cfi_def_cfa_offset 0
 181              		.cfi_restore 4
 182              		.cfi_restore 5
 183              		.cfi_restore 6
 184              		.cfi_restore 7
 185              		.cfi_restore 8
 186              		.cfi_restore 9
 187              		.cfi_restore 14
  81:..\lib\yubico-c-client/hmac.c **** 
 188              		.loc 1 81 0
 189 00bc 0123     		movs	r3, #1
 190              	.LVL21:
 133:..\lib\yubico-c-client/hmac.c **** }
 191              		.loc 1 133 0
 192 00be 1846     		mov	r0, r3
 193              	.LVL22:
 194 00c0 7047     		bx	lr
 195              	.LVL23:
 196              	.L14:
 197              		.cfi_def_cfa_offset 456
 198              		.cfi_offset 4, -28
 199              		.cfi_offset 5, -24
 200              		.cfi_offset 6, -20
ARM GAS  C:\Users\bkettle\AppData\Local\Temp\ccPMhHop.s 			page 7


 201              		.cfi_offset 7, -16
 202              		.cfi_offset 8, -12
 203              		.cfi_offset 9, -8
 204              		.cfi_offset 14, -4
 130:..\lib\yubico-c-client/hmac.c ****     /* and start with inner pad */
 205              		.loc 1 130 0
 206 00c2 0123     		movs	r3, #1
 207 00c4 00E0     		b	.L2
 208              	.L15:
 209 00c6 0123     		movs	r3, #1
 210              	.LVL24:
 211              	.L2:
 212              		.loc 1 133 0
 213 00c8 1846     		mov	r0, r3
 214 00ca 6BB0     		add	sp, sp, #428
 215              		.cfi_def_cfa_offset 28
 216              		@ sp needed
 217 00cc BDE8F083 		pop	{r4, r5, r6, r7, r8, r9, pc}
 218              		.cfi_endproc
 219              	.LFE1:
 220              		.size	hmacReset, .-hmacReset
 221              		.section	.text.hmacInput,"ax",%progbits
 222              		.align	2
 223              		.global	hmacInput
 224              		.thumb
 225              		.thumb_func
 226              		.type	hmacInput, %function
 227              	hmacInput:
 228              	.LFB2:
 134:..\lib\yubico-c-client/hmac.c **** 
 135:..\lib\yubico-c-client/hmac.c **** /*
 136:..\lib\yubico-c-client/hmac.c ****  *  hmacInput
 137:..\lib\yubico-c-client/hmac.c ****  *
 138:..\lib\yubico-c-client/hmac.c ****  *  Description:
 139:..\lib\yubico-c-client/hmac.c ****  *      This function accepts an array of octets as the next portion
 140:..\lib\yubico-c-client/hmac.c ****  *      of the message.
 141:..\lib\yubico-c-client/hmac.c ****  *
 142:..\lib\yubico-c-client/hmac.c ****  *  Parameters:
 143:..\lib\yubico-c-client/hmac.c ****  *      context: [in/out]
 144:..\lib\yubico-c-client/hmac.c ****  *          The HMAC context to update
 145:..\lib\yubico-c-client/hmac.c ****  *      message_array: [in]
 146:..\lib\yubico-c-client/hmac.c ****  *          An array of characters representing the next portion of
 147:..\lib\yubico-c-client/hmac.c ****  *          the message.
 148:..\lib\yubico-c-client/hmac.c ****  *      length: [in]
 149:..\lib\yubico-c-client/hmac.c ****  *          The length of the message in message_array
 150:..\lib\yubico-c-client/hmac.c ****  *
 151:..\lib\yubico-c-client/hmac.c ****  *  Returns:
 152:..\lib\yubico-c-client/hmac.c ****  *      sha Error Code.
 153:..\lib\yubico-c-client/hmac.c ****  *
 154:..\lib\yubico-c-client/hmac.c ****  */
 155:..\lib\yubico-c-client/hmac.c **** int
 156:..\lib\yubico-c-client/hmac.c **** hmacInput (HMACContext * ctx, const unsigned char *text, int text_len)
 157:..\lib\yubico-c-client/hmac.c **** {
 229              		.loc 1 157 0
 230              		.cfi_startproc
 231              		@ args = 0, pretend = 0, frame = 0
 232              		@ frame_needed = 0, uses_anonymous_args = 0
ARM GAS  C:\Users\bkettle\AppData\Local\Temp\ccPMhHop.s 			page 8


 233              	.LVL25:
 158:..\lib\yubico-c-client/hmac.c ****   if (!ctx)
 234              		.loc 1 158 0
 235 0000 20B1     		cbz	r0, .L19
 157:..\lib\yubico-c-client/hmac.c ****   if (!ctx)
 236              		.loc 1 157 0
 237 0002 08B5     		push	{r3, lr}
 238              		.cfi_def_cfa_offset 8
 239              		.cfi_offset 3, -8
 240              		.cfi_offset 14, -4
 159:..\lib\yubico-c-client/hmac.c ****     return shaNull;
 160:..\lib\yubico-c-client/hmac.c ****   /* then text of datagram */
 161:..\lib\yubico-c-client/hmac.c ****   return USHAInput (&ctx->shaContext, text, text_len);
 241              		.loc 1 161 0
 242 0004 1030     		adds	r0, r0, #16
 243              	.LVL26:
 244 0006 FFF7FEFF 		bl	USHAInput
 245              	.LVL27:
 246 000a 08BD     		pop	{r3, pc}
 247              	.LVL28:
 248              	.L19:
 249              		.cfi_def_cfa_offset 0
 250              		.cfi_restore 3
 251              		.cfi_restore 14
 159:..\lib\yubico-c-client/hmac.c ****     return shaNull;
 252              		.loc 1 159 0
 253 000c 0120     		movs	r0, #1
 254              	.LVL29:
 255 000e 7047     		bx	lr
 256              		.cfi_endproc
 257              	.LFE2:
 258              		.size	hmacInput, .-hmacInput
 259              		.section	.text.hmacFinalBits,"ax",%progbits
 260              		.align	2
 261              		.global	hmacFinalBits
 262              		.thumb
 263              		.thumb_func
 264              		.type	hmacFinalBits, %function
 265              	hmacFinalBits:
 266              	.LFB3:
 162:..\lib\yubico-c-client/hmac.c **** }
 163:..\lib\yubico-c-client/hmac.c **** 
 164:..\lib\yubico-c-client/hmac.c **** /*
 165:..\lib\yubico-c-client/hmac.c ****  * HMACFinalBits
 166:..\lib\yubico-c-client/hmac.c ****  *
 167:..\lib\yubico-c-client/hmac.c ****  * Description:
 168:..\lib\yubico-c-client/hmac.c ****  *   This function will add in any final bits of the message.
 169:..\lib\yubico-c-client/hmac.c ****  *
 170:..\lib\yubico-c-client/hmac.c ****  * Parameters:
 171:..\lib\yubico-c-client/hmac.c ****  *   context: [in/out]
 172:..\lib\yubico-c-client/hmac.c ****  *     The HMAC context to update
 173:..\lib\yubico-c-client/hmac.c ****  *   message_bits: [in]
 174:..\lib\yubico-c-client/hmac.c ****  *     The final bits of the message, in the upper portion of the
 175:..\lib\yubico-c-client/hmac.c ****  *     byte. (Use 0b###00000 instead of 0b00000### to input the
 176:..\lib\yubico-c-client/hmac.c ****  *     three bits ###.)
 177:..\lib\yubico-c-client/hmac.c ****  *   length: [in]
 178:..\lib\yubico-c-client/hmac.c ****  *     The number of bits in message_bits, between 1 and 7.
ARM GAS  C:\Users\bkettle\AppData\Local\Temp\ccPMhHop.s 			page 9


 179:..\lib\yubico-c-client/hmac.c ****  *
 180:..\lib\yubico-c-client/hmac.c ****  * Returns:
 181:..\lib\yubico-c-client/hmac.c ****  *   sha Error Code.
 182:..\lib\yubico-c-client/hmac.c ****  */
 183:..\lib\yubico-c-client/hmac.c **** int
 184:..\lib\yubico-c-client/hmac.c **** hmacFinalBits (HMACContext * ctx, const uint8_t bits, unsigned int bitcount)
 185:..\lib\yubico-c-client/hmac.c **** {
 267              		.loc 1 185 0
 268              		.cfi_startproc
 269              		@ args = 0, pretend = 0, frame = 0
 270              		@ frame_needed = 0, uses_anonymous_args = 0
 271              	.LVL30:
 186:..\lib\yubico-c-client/hmac.c ****   if (!ctx)
 272              		.loc 1 186 0
 273 0000 20B1     		cbz	r0, .L24
 185:..\lib\yubico-c-client/hmac.c ****   if (!ctx)
 274              		.loc 1 185 0
 275 0002 08B5     		push	{r3, lr}
 276              		.cfi_def_cfa_offset 8
 277              		.cfi_offset 3, -8
 278              		.cfi_offset 14, -4
 187:..\lib\yubico-c-client/hmac.c ****     return shaNull;
 188:..\lib\yubico-c-client/hmac.c ****   /* then final bits of datagram */
 189:..\lib\yubico-c-client/hmac.c ****   return USHAFinalBits (&ctx->shaContext, bits, bitcount);
 279              		.loc 1 189 0
 280 0004 1030     		adds	r0, r0, #16
 281              	.LVL31:
 282 0006 FFF7FEFF 		bl	USHAFinalBits
 283              	.LVL32:
 284 000a 08BD     		pop	{r3, pc}
 285              	.LVL33:
 286              	.L24:
 287              		.cfi_def_cfa_offset 0
 288              		.cfi_restore 3
 289              		.cfi_restore 14
 187:..\lib\yubico-c-client/hmac.c ****     return shaNull;
 290              		.loc 1 187 0
 291 000c 0120     		movs	r0, #1
 292              	.LVL34:
 293 000e 7047     		bx	lr
 294              		.cfi_endproc
 295              	.LFE3:
 296              		.size	hmacFinalBits, .-hmacFinalBits
 297              		.section	.text.hmacResult,"ax",%progbits
 298              		.align	2
 299              		.global	hmacResult
 300              		.thumb
 301              		.thumb_func
 302              		.type	hmacResult, %function
 303              	hmacResult:
 304              	.LFB4:
 190:..\lib\yubico-c-client/hmac.c **** }
 191:..\lib\yubico-c-client/hmac.c **** 
 192:..\lib\yubico-c-client/hmac.c **** /*
 193:..\lib\yubico-c-client/hmac.c ****  * HMACResult
 194:..\lib\yubico-c-client/hmac.c ****  *
 195:..\lib\yubico-c-client/hmac.c ****  * Description:
ARM GAS  C:\Users\bkettle\AppData\Local\Temp\ccPMhHop.s 			page 10


 196:..\lib\yubico-c-client/hmac.c ****  *   This function will return the N-byte message digest into the
 197:..\lib\yubico-c-client/hmac.c ****  *   Message_Digest array provided by the caller.
 198:..\lib\yubico-c-client/hmac.c ****  *   NOTE: The first octet of hash is stored in the 0th element,
 199:..\lib\yubico-c-client/hmac.c ****  *      the last octet of hash in the Nth element.
 200:..\lib\yubico-c-client/hmac.c ****  *
 201:..\lib\yubico-c-client/hmac.c ****  * Parameters:
 202:..\lib\yubico-c-client/hmac.c ****  *   context: [in/out]
 203:..\lib\yubico-c-client/hmac.c ****  *     The context to use to calculate the HMAC hash.
 204:..\lib\yubico-c-client/hmac.c ****  *   digest: [out]
 205:..\lib\yubico-c-client/hmac.c ****  *     Where the digest is returned.
 206:..\lib\yubico-c-client/hmac.c ****  *   NOTE 2: The length of the hash is determined by the value of
 207:..\lib\yubico-c-client/hmac.c ****  *      whichSha that was passed to hmacReset().
 208:..\lib\yubico-c-client/hmac.c ****  *
 209:..\lib\yubico-c-client/hmac.c ****  * Returns:
 210:..\lib\yubico-c-client/hmac.c ****  *   sha Error Code.
 211:..\lib\yubico-c-client/hmac.c ****  *
 212:..\lib\yubico-c-client/hmac.c ****  */
 213:..\lib\yubico-c-client/hmac.c **** int
 214:..\lib\yubico-c-client/hmac.c **** hmacResult (HMACContext * ctx, uint8_t * digest)
 215:..\lib\yubico-c-client/hmac.c **** {
 305              		.loc 1 215 0
 306              		.cfi_startproc
 307              		@ args = 0, pretend = 0, frame = 0
 308              		@ frame_needed = 0, uses_anonymous_args = 0
 309              	.LVL35:
 216:..\lib\yubico-c-client/hmac.c ****   if (!ctx)
 310              		.loc 1 216 0
 311 0000 08B3     		cbz	r0, .L29
 215:..\lib\yubico-c-client/hmac.c ****   if (!ctx)
 312              		.loc 1 215 0
 313 0002 70B5     		push	{r4, r5, r6, lr}
 314              		.cfi_def_cfa_offset 16
 315              		.cfi_offset 4, -16
 316              		.cfi_offset 5, -12
 317              		.cfi_offset 6, -8
 318              		.cfi_offset 14, -4
 319 0004 0446     		mov	r4, r0
 320 0006 0D46     		mov	r5, r1
 217:..\lib\yubico-c-client/hmac.c ****     return shaNull;
 218:..\lib\yubico-c-client/hmac.c **** 
 219:..\lib\yubico-c-client/hmac.c ****   /* finish up 1st pass */
 220:..\lib\yubico-c-client/hmac.c ****   /* (Use digest here as a temporary buffer.) */
 221:..\lib\yubico-c-client/hmac.c ****   return USHAResult (&ctx->shaContext, digest) ||
 321              		.loc 1 221 0
 322 0008 00F11006 		add	r6, r0, #16
 323 000c 3046     		mov	r0, r6
 324              	.LVL36:
 325 000e FFF7FEFF 		bl	USHAResult
 326              	.LVL37:
 222:..\lib\yubico-c-client/hmac.c ****     /* perform outer SHA */
 223:..\lib\yubico-c-client/hmac.c ****     /* init context for 2nd pass */
 224:..\lib\yubico-c-client/hmac.c ****     USHAReset (&ctx->shaContext, ctx->whichSha) ||
 225:..\lib\yubico-c-client/hmac.c ****     /* start with outer pad */
 226:..\lib\yubico-c-client/hmac.c ****     USHAInput (&ctx->shaContext, ctx->k_opad, ctx->blockSize) ||
 227:..\lib\yubico-c-client/hmac.c ****     /* then results of 1st hash */
 228:..\lib\yubico-c-client/hmac.c ****     USHAInput (&ctx->shaContext, digest, ctx->hashSize) ||
 327              		.loc 1 228 0
ARM GAS  C:\Users\bkettle\AppData\Local\Temp\ccPMhHop.s 			page 11


 328 0012 D8B9     		cbnz	r0, .L30
 224:..\lib\yubico-c-client/hmac.c ****     /* start with outer pad */
 329              		.loc 1 224 0
 330 0014 2178     		ldrb	r1, [r4]	@ zero_extendqisi2
 331 0016 3046     		mov	r0, r6
 332 0018 FFF7FEFF 		bl	USHAReset
 333              	.LVL38:
 221:..\lib\yubico-c-client/hmac.c ****     /* perform outer SHA */
 334              		.loc 1 221 0
 335 001c C0B9     		cbnz	r0, .L31
 226:..\lib\yubico-c-client/hmac.c ****     /* then results of 1st hash */
 336              		.loc 1 226 0
 337 001e A268     		ldr	r2, [r4, #8]
 338 0020 04F1F801 		add	r1, r4, #248
 339 0024 3046     		mov	r0, r6
 340 0026 FFF7FEFF 		bl	USHAInput
 341              	.LVL39:
 224:..\lib\yubico-c-client/hmac.c ****     /* start with outer pad */
 342              		.loc 1 224 0
 343 002a 98B9     		cbnz	r0, .L32
 344              		.loc 1 228 0
 345 002c 6268     		ldr	r2, [r4, #4]
 346 002e 2946     		mov	r1, r5
 347 0030 3046     		mov	r0, r6
 348 0032 FFF7FEFF 		bl	USHAInput
 349              	.LVL40:
 226:..\lib\yubico-c-client/hmac.c ****     /* then results of 1st hash */
 350              		.loc 1 226 0
 351 0036 78B9     		cbnz	r0, .L33
 229:..\lib\yubico-c-client/hmac.c ****     /* finish up 2nd pass */
 230:..\lib\yubico-c-client/hmac.c ****     USHAResult (&ctx->shaContext, digest);
 352              		.loc 1 230 0 discriminator 2
 353 0038 2946     		mov	r1, r5
 354 003a 3046     		mov	r0, r6
 355 003c FFF7FEFF 		bl	USHAResult
 356              	.LVL41:
 228:..\lib\yubico-c-client/hmac.c ****     /* finish up 2nd pass */
 357              		.loc 1 228 0 discriminator 2
 358 0040 0346     		mov	r3, r0
 359 0042 58B9     		cbnz	r0, .L34
 360 0044 0BE0     		b	.L28
 361              	.LVL42:
 362              	.L29:
 363              		.cfi_def_cfa_offset 0
 364              		.cfi_restore 4
 365              		.cfi_restore 5
 366              		.cfi_restore 6
 367              		.cfi_restore 14
 217:..\lib\yubico-c-client/hmac.c **** 
 368              		.loc 1 217 0
 369 0046 0123     		movs	r3, #1
 231:..\lib\yubico-c-client/hmac.c **** }
 370              		.loc 1 231 0
 371 0048 1846     		mov	r0, r3
 372              	.LVL43:
 373 004a 7047     		bx	lr
 374              	.LVL44:
ARM GAS  C:\Users\bkettle\AppData\Local\Temp\ccPMhHop.s 			page 12


 375              	.L30:
 376              		.cfi_def_cfa_offset 16
 377              		.cfi_offset 4, -16
 378              		.cfi_offset 5, -12
 379              		.cfi_offset 6, -8
 380              		.cfi_offset 14, -4
 228:..\lib\yubico-c-client/hmac.c ****     /* finish up 2nd pass */
 381              		.loc 1 228 0
 382 004c 0123     		movs	r3, #1
 383 004e 06E0     		b	.L28
 384              	.L31:
 385 0050 0123     		movs	r3, #1
 386 0052 04E0     		b	.L28
 387              	.L32:
 388 0054 0123     		movs	r3, #1
 389 0056 02E0     		b	.L28
 390              	.L33:
 391 0058 0123     		movs	r3, #1
 392 005a 00E0     		b	.L28
 393              	.L34:
 394 005c 0123     		movs	r3, #1
 395              	.L28:
 396              		.loc 1 231 0
 397 005e 1846     		mov	r0, r3
 398 0060 70BD     		pop	{r4, r5, r6, pc}
 399              		.cfi_endproc
 400              	.LFE4:
 401              		.size	hmacResult, .-hmacResult
 402 0062 00BF     		.section	.text.hmac,"ax",%progbits
 403              		.align	2
 404              		.global	hmac
 405              		.thumb
 406              		.thumb_func
 407              		.type	hmac, %function
 408              	hmac:
 409              	.LFB0:
  41:..\lib\yubico-c-client/hmac.c ****   HMACContext ctx;
 410              		.loc 1 41 0
 411              		.cfi_startproc
 412              		@ args = 8, pretend = 0, frame = 376
 413              		@ frame_needed = 0, uses_anonymous_args = 0
 414              	.LVL45:
 415 0000 30B5     		push	{r4, r5, lr}
 416              		.cfi_def_cfa_offset 12
 417              		.cfi_offset 4, -12
 418              		.cfi_offset 5, -8
 419              		.cfi_offset 14, -4
 420 0002 DFB0     		sub	sp, sp, #380
 421              		.cfi_def_cfa_offset 392
 422 0004 0C46     		mov	r4, r1
 423 0006 1546     		mov	r5, r2
 424 0008 1A46     		mov	r2, r3
 425              	.LVL46:
  43:..\lib\yubico-c-client/hmac.c ****     hmacInput (&ctx, text, text_len) || hmacResult (&ctx, digest);
 426              		.loc 1 43 0
 427 000a 629B     		ldr	r3, [sp, #392]
 428              	.LVL47:
ARM GAS  C:\Users\bkettle\AppData\Local\Temp\ccPMhHop.s 			page 13


 429 000c 0146     		mov	r1, r0
 430              	.LVL48:
 431 000e 6846     		mov	r0, sp
 432              	.LVL49:
 433 0010 FFF7FEFF 		bl	hmacReset
 434              	.LVL50:
  44:..\lib\yubico-c-client/hmac.c **** }
 435              		.loc 1 44 0
 436 0014 60B9     		cbnz	r0, .L38
  44:..\lib\yubico-c-client/hmac.c **** }
 437              		.loc 1 44 0 is_stmt 0 discriminator 2
 438 0016 2A46     		mov	r2, r5
 439 0018 2146     		mov	r1, r4
 440 001a 6846     		mov	r0, sp
 441 001c FFF7FEFF 		bl	hmacInput
 442              	.LVL51:
  43:..\lib\yubico-c-client/hmac.c ****     hmacInput (&ctx, text, text_len) || hmacResult (&ctx, digest);
 443              		.loc 1 43 0 is_stmt 1 discriminator 2
 444 0020 40B9     		cbnz	r0, .L39
  44:..\lib\yubico-c-client/hmac.c **** }
 445              		.loc 1 44 0 discriminator 3
 446 0022 6399     		ldr	r1, [sp, #396]
 447 0024 6846     		mov	r0, sp
 448 0026 FFF7FEFF 		bl	hmacResult
 449              	.LVL52:
 450 002a 0346     		mov	r3, r0
 451 002c 20B9     		cbnz	r0, .L40
 452 002e 04E0     		b	.L37
 453              	.L38:
  44:..\lib\yubico-c-client/hmac.c **** }
 454              		.loc 1 44 0 is_stmt 0
 455 0030 0123     		movs	r3, #1
 456 0032 02E0     		b	.L37
 457              	.L39:
 458 0034 0123     		movs	r3, #1
 459 0036 00E0     		b	.L37
 460              	.L40:
 461 0038 0123     		movs	r3, #1
 462              	.L37:
  45:..\lib\yubico-c-client/hmac.c **** 
 463              		.loc 1 45 0 is_stmt 1
 464 003a 1846     		mov	r0, r3
 465 003c 5FB0     		add	sp, sp, #380
 466              		.cfi_def_cfa_offset 12
 467              		@ sp needed
 468 003e 30BD     		pop	{r4, r5, pc}
 469              		.cfi_endproc
 470              	.LFE0:
 471              		.size	hmac, .-hmac
 472              		.text
 473              	.Letext0:
 474              		.file 2 "c:\\program files (x86)\\cypress\\psoc creator\\4.3\\psoc creator\\import\\gnu\\arm\\5.4.
 475              		.file 3 "c:\\program files (x86)\\cypress\\psoc creator\\4.3\\psoc creator\\import\\gnu\\arm\\5.4.
 476              		.file 4 "c:\\program files (x86)\\cypress\\psoc creator\\4.3\\psoc creator\\import\\gnu\\arm\\5.4.
 477              		.file 5 "..\\lib\\yubico-c-client\\sha.h"