ARM GAS  C:\Users\bkettle\AppData\Local\Temp\cc7ruapK.s 			page 1


   1              		.syntax unified
   2              		.cpu cortex-m3
   3              		.fpu softvfp
   4              		.eabi_attribute 20, 1
   5              		.eabi_attribute 21, 1
   6              		.eabi_attribute 23, 3
   7              		.eabi_attribute 24, 1
   8              		.eabi_attribute 25, 1
   9              		.eabi_attribute 26, 1
  10              		.eabi_attribute 30, 1
  11              		.eabi_attribute 34, 1
  12              		.eabi_attribute 18, 4
  13              		.thumb
  14              		.syntax unified
  15              		.file	"hmac_sha1.c"
  16              		.text
  17              	.Ltext0:
  18              		.cfi_sections	.debug_frame
  19              		.section	.text.hmac_sha1,"ax",%progbits
  20              		.align	2
  21              		.global	hmac_sha1
  22              		.thumb
  23              		.thumb_func
  24              		.type	hmac_sha1, %function
  25              	hmac_sha1:
  26              	.LFB0:
  27              		.file 1 "..\\lib\\psoc_totp\\hmac_sha1.c"
   1:..\lib\psoc_totp/hmac_sha1.c **** /**
   2:..\lib\psoc_totp/hmac_sha1.c **** * @file hmac_sha1.c  Implements HMAC-SHA1 as of RFC 2202
   3:..\lib\psoc_totp/hmac_sha1.c **** *
   4:..\lib\psoc_totp/hmac_sha1.c **** * Copyright (C) 2010 Creytiv.com
   5:..\lib\psoc_totp/hmac_sha1.c **** https://github.com/Akagi201/hmac-sha1
   6:..\lib\psoc_totp/hmac_sha1.c **** 
   7:..\lib\psoc_totp/hmac_sha1.c **** modified for use with another sha implementation
   8:..\lib\psoc_totp/hmac_sha1.c **** 
   9:..\lib\psoc_totp/hmac_sha1.c **** */
  10:..\lib\psoc_totp/hmac_sha1.c **** #include <string.h>
  11:..\lib\psoc_totp/hmac_sha1.c **** #include <stdint.h>
  12:..\lib\psoc_totp/hmac_sha1.c **** 
  13:..\lib\psoc_totp/hmac_sha1.c **** #include <sha1.h>
  14:..\lib\psoc_totp/hmac_sha1.c **** #include <hmac.h>
  15:..\lib\psoc_totp/hmac_sha1.c **** 
  16:..\lib\psoc_totp/hmac_sha1.c **** 
  17:..\lib\psoc_totp/hmac_sha1.c **** /** SHA-1 Block size */
  18:..\lib\psoc_totp/hmac_sha1.c **** #ifndef SHA_BLOCKSIZE
  19:..\lib\psoc_totp/hmac_sha1.c **** #define SHA_BLOCKSIZE   (64)
  20:..\lib\psoc_totp/hmac_sha1.c **** #endif
  21:..\lib\psoc_totp/hmac_sha1.c **** 
  22:..\lib\psoc_totp/hmac_sha1.c **** 
  23:..\lib\psoc_totp/hmac_sha1.c **** /**
  24:..\lib\psoc_totp/hmac_sha1.c **** * Function to compute the digest
  25:..\lib\psoc_totp/hmac_sha1.c **** *
  26:..\lib\psoc_totp/hmac_sha1.c **** * @param k   Secret key
  27:..\lib\psoc_totp/hmac_sha1.c **** * @param lk  Length of the key in bytes
  28:..\lib\psoc_totp/hmac_sha1.c **** * @param d   Data
  29:..\lib\psoc_totp/hmac_sha1.c **** * @param ld  Length of data in bytes
  30:..\lib\psoc_totp/hmac_sha1.c **** * @param out Digest output
ARM GAS  C:\Users\bkettle\AppData\Local\Temp\cc7ruapK.s 			page 2


  31:..\lib\psoc_totp/hmac_sha1.c **** * @param t   Size of digest output
  32:..\lib\psoc_totp/hmac_sha1.c **** */
  33:..\lib\psoc_totp/hmac_sha1.c **** void hmac_sha1(const uint8_t *k,  /* secret key */
  34:..\lib\psoc_totp/hmac_sha1.c ****         size_t lk,       /* length of the key in bytes */
  35:..\lib\psoc_totp/hmac_sha1.c ****         const uint8_t *d,  /* data */
  36:..\lib\psoc_totp/hmac_sha1.c ****         size_t ld,       /* length of data in bytes */
  37:..\lib\psoc_totp/hmac_sha1.c ****         uint8_t *out,      /* output buffer, at least "t" bytes */
  38:..\lib\psoc_totp/hmac_sha1.c ****         size_t *t) {
  28              		.loc 1 38 0
  29              		.cfi_startproc
  30              		@ args = 8, pretend = 0, frame = 400
  31              		@ frame_needed = 0, uses_anonymous_args = 0
  32              	.LVL0:
  33 0000 2DE9F041 		push	{r4, r5, r6, r7, r8, lr}
  34              		.cfi_def_cfa_offset 24
  35              		.cfi_offset 4, -24
  36              		.cfi_offset 5, -20
  37              		.cfi_offset 6, -16
  38              		.cfi_offset 7, -12
  39              		.cfi_offset 8, -8
  40              		.cfi_offset 14, -4
  41 0004 E4B0     		sub	sp, sp, #400
  42              		.cfi_def_cfa_offset 424
  43 0006 0546     		mov	r5, r0
  44 0008 0C46     		mov	r4, r1
  45 000a 1746     		mov	r7, r2
  46 000c 9846     		mov	r8, r3
  47 000e 6B9E     		ldr	r6, [sp, #428]
  39:..\lib\psoc_totp/hmac_sha1.c **** 
  40:..\lib\psoc_totp/hmac_sha1.c ****     SHA1_CTX ictx, octx;
  41:..\lib\psoc_totp/hmac_sha1.c ****     uint8_t isha[SHA_DIGEST_LENGTH], osha[SHA_DIGEST_LENGTH];
  42:..\lib\psoc_totp/hmac_sha1.c ****     uint8_t key[SHA_DIGEST_LENGTH];
  43:..\lib\psoc_totp/hmac_sha1.c ****     uint8_t buf[SHA_BLOCKSIZE];
  44:..\lib\psoc_totp/hmac_sha1.c ****     size_t i;
  45:..\lib\psoc_totp/hmac_sha1.c **** 
  46:..\lib\psoc_totp/hmac_sha1.c ****     if (lk > SHA_BLOCKSIZE) {
  48              		.loc 1 46 0
  49 0010 4029     		cmp	r1, #64
  50 0012 0DD9     		bls	.L2
  51              	.LBB2:
  47:..\lib\psoc_totp/hmac_sha1.c ****         SHA1_CTX tctx;
  48:..\lib\psoc_totp/hmac_sha1.c **** 
  49:..\lib\psoc_totp/hmac_sha1.c ****         SHA1Init(&tctx);
  52              		.loc 1 49 0
  53 0014 6846     		mov	r0, sp
  54              	.LVL1:
  55 0016 FFF7FEFF 		bl	SHA1Init
  56              	.LVL2:
  50:..\lib\psoc_totp/hmac_sha1.c ****         SHA1Update(&tctx, k, lk);
  57              		.loc 1 50 0
  58 001a 2246     		mov	r2, r4
  59 001c 2946     		mov	r1, r5
  60 001e 6846     		mov	r0, sp
  61 0020 FFF7FEFF 		bl	SHA1Update
  62              	.LVL3:
  51:..\lib\psoc_totp/hmac_sha1.c ****         SHA1Final(key, &tctx);
  63              		.loc 1 51 0
ARM GAS  C:\Users\bkettle\AppData\Local\Temp\cc7ruapK.s 			page 3


  64 0024 6946     		mov	r1, sp
  65 0026 27A8     		add	r0, sp, #156
  66 0028 FFF7FEFF 		bl	SHA1Final
  67              	.LVL4:
  52:..\lib\psoc_totp/hmac_sha1.c **** 
  53:..\lib\psoc_totp/hmac_sha1.c ****         k = key;
  54:..\lib\psoc_totp/hmac_sha1.c ****         lk = SHA_DIGEST_LENGTH;
  68              		.loc 1 54 0
  69 002c 1424     		movs	r4, #20
  53:..\lib\psoc_totp/hmac_sha1.c ****         lk = SHA_DIGEST_LENGTH;
  70              		.loc 1 53 0
  71 002e 27AD     		add	r5, sp, #156
  72              	.LVL5:
  73              	.L2:
  74              	.LBE2:
  55:..\lib\psoc_totp/hmac_sha1.c ****     }
  56:..\lib\psoc_totp/hmac_sha1.c **** 
  57:..\lib\psoc_totp/hmac_sha1.c ****     /**** Inner Digest ****/
  58:..\lib\psoc_totp/hmac_sha1.c **** 
  59:..\lib\psoc_totp/hmac_sha1.c ****     SHA1Init(&ictx);
  75              		.loc 1 59 0
  76 0030 4DA8     		add	r0, sp, #308
  77 0032 FFF7FEFF 		bl	SHA1Init
  78              	.LVL6:
  60:..\lib\psoc_totp/hmac_sha1.c **** 
  61:..\lib\psoc_totp/hmac_sha1.c ****     /* Pad the key for inner digest */
  62:..\lib\psoc_totp/hmac_sha1.c ****     for (i = 0; i < lk; ++i) {
  79              		.loc 1 62 0
  80 0036 0023     		movs	r3, #0
  81 0038 05E0     		b	.L3
  82              	.LVL7:
  83              	.L4:
  63:..\lib\psoc_totp/hmac_sha1.c ****         buf[i] = k[i] ^ 0x36;
  84              		.loc 1 63 0 discriminator 3
  85 003a EA5C     		ldrb	r2, [r5, r3]	@ zero_extendqisi2
  86 003c 82F03602 		eor	r2, r2, #54
  87 0040 17A9     		add	r1, sp, #92
  88 0042 CA54     		strb	r2, [r1, r3]
  62:..\lib\psoc_totp/hmac_sha1.c ****         buf[i] = k[i] ^ 0x36;
  89              		.loc 1 62 0 discriminator 3
  90 0044 0133     		adds	r3, r3, #1
  91              	.LVL8:
  92              	.L3:
  62:..\lib\psoc_totp/hmac_sha1.c ****         buf[i] = k[i] ^ 0x36;
  93              		.loc 1 62 0 is_stmt 0 discriminator 1
  94 0046 9C42     		cmp	r4, r3
  95 0048 F7D8     		bhi	.L4
  96 004a 2346     		mov	r3, r4
  97              	.LVL9:
  98 004c 03E0     		b	.L5
  99              	.LVL10:
 100              	.L6:
  64:..\lib\psoc_totp/hmac_sha1.c ****     }
  65:..\lib\psoc_totp/hmac_sha1.c ****     for (i = lk; i < SHA_BLOCKSIZE; ++i) {
  66:..\lib\psoc_totp/hmac_sha1.c ****         buf[i] = 0x36;
 101              		.loc 1 66 0 is_stmt 1 discriminator 3
 102 004e 3621     		movs	r1, #54
ARM GAS  C:\Users\bkettle\AppData\Local\Temp\cc7ruapK.s 			page 4


 103 0050 17AA     		add	r2, sp, #92
 104 0052 D154     		strb	r1, [r2, r3]
  65:..\lib\psoc_totp/hmac_sha1.c ****         buf[i] = 0x36;
 105              		.loc 1 65 0 discriminator 3
 106 0054 0133     		adds	r3, r3, #1
 107              	.LVL11:
 108              	.L5:
  65:..\lib\psoc_totp/hmac_sha1.c ****         buf[i] = 0x36;
 109              		.loc 1 65 0 is_stmt 0 discriminator 1
 110 0056 3F2B     		cmp	r3, #63
 111 0058 F9D9     		bls	.L6
  67:..\lib\psoc_totp/hmac_sha1.c ****     }
  68:..\lib\psoc_totp/hmac_sha1.c **** 
  69:..\lib\psoc_totp/hmac_sha1.c ****     SHA1Update(&ictx, buf, SHA_BLOCKSIZE);
 112              		.loc 1 69 0 is_stmt 1
 113 005a 4022     		movs	r2, #64
 114 005c 17A9     		add	r1, sp, #92
 115 005e 4DA8     		add	r0, sp, #308
 116 0060 FFF7FEFF 		bl	SHA1Update
 117              	.LVL12:
  70:..\lib\psoc_totp/hmac_sha1.c ****     SHA1Update(&ictx, d, ld);
 118              		.loc 1 70 0
 119 0064 4246     		mov	r2, r8
 120 0066 3946     		mov	r1, r7
 121 0068 4DA8     		add	r0, sp, #308
 122 006a FFF7FEFF 		bl	SHA1Update
 123              	.LVL13:
  71:..\lib\psoc_totp/hmac_sha1.c **** 
  72:..\lib\psoc_totp/hmac_sha1.c ****     SHA1Final(isha, &ictx);
 124              		.loc 1 72 0
 125 006e 4DA9     		add	r1, sp, #308
 126 0070 31A8     		add	r0, sp, #196
 127 0072 FFF7FEFF 		bl	SHA1Final
 128              	.LVL14:
  73:..\lib\psoc_totp/hmac_sha1.c **** 
  74:..\lib\psoc_totp/hmac_sha1.c ****     /**** Outer Digest ****/
  75:..\lib\psoc_totp/hmac_sha1.c **** 
  76:..\lib\psoc_totp/hmac_sha1.c ****     SHA1Init(&octx);
 129              		.loc 1 76 0
 130 0076 36A8     		add	r0, sp, #216
 131 0078 FFF7FEFF 		bl	SHA1Init
 132              	.LVL15:
  77:..\lib\psoc_totp/hmac_sha1.c **** 
  78:..\lib\psoc_totp/hmac_sha1.c ****     /* Pad the key for outter digest */
  79:..\lib\psoc_totp/hmac_sha1.c **** 
  80:..\lib\psoc_totp/hmac_sha1.c ****     for (i = 0; i < lk; ++i) {
 133              		.loc 1 80 0
 134 007c 0023     		movs	r3, #0
 135 007e 05E0     		b	.L7
 136              	.LVL16:
 137              	.L8:
  81:..\lib\psoc_totp/hmac_sha1.c ****         buf[i] = k[i] ^ 0x5c;
 138              		.loc 1 81 0 discriminator 3
 139 0080 EA5C     		ldrb	r2, [r5, r3]	@ zero_extendqisi2
 140 0082 82F05C02 		eor	r2, r2, #92
 141 0086 17A9     		add	r1, sp, #92
 142 0088 CA54     		strb	r2, [r1, r3]
ARM GAS  C:\Users\bkettle\AppData\Local\Temp\cc7ruapK.s 			page 5


  80:..\lib\psoc_totp/hmac_sha1.c ****         buf[i] = k[i] ^ 0x5c;
 143              		.loc 1 80 0 discriminator 3
 144 008a 0133     		adds	r3, r3, #1
 145              	.LVL17:
 146              	.L7:
  80:..\lib\psoc_totp/hmac_sha1.c ****         buf[i] = k[i] ^ 0x5c;
 147              		.loc 1 80 0 is_stmt 0 discriminator 1
 148 008c 9C42     		cmp	r4, r3
 149 008e F7D8     		bhi	.L8
 150 0090 04E0     		b	.L9
 151              	.LVL18:
 152              	.L10:
  82:..\lib\psoc_totp/hmac_sha1.c ****     }
  83:..\lib\psoc_totp/hmac_sha1.c ****     for (i = lk; i < SHA_BLOCKSIZE; ++i) {
  84:..\lib\psoc_totp/hmac_sha1.c ****         buf[i] = 0x5c;
 153              		.loc 1 84 0 is_stmt 1 discriminator 3
 154 0092 5C22     		movs	r2, #92
 155 0094 0DEB0203 		add	r3, sp, r2
 156 0098 1A55     		strb	r2, [r3, r4]
  83:..\lib\psoc_totp/hmac_sha1.c ****         buf[i] = 0x5c;
 157              		.loc 1 83 0 discriminator 3
 158 009a 0134     		adds	r4, r4, #1
 159              	.LVL19:
 160              	.L9:
  83:..\lib\psoc_totp/hmac_sha1.c ****         buf[i] = 0x5c;
 161              		.loc 1 83 0 is_stmt 0 discriminator 1
 162 009c 3F2C     		cmp	r4, #63
 163 009e F8D9     		bls	.L10
  85:..\lib\psoc_totp/hmac_sha1.c ****     }
  86:..\lib\psoc_totp/hmac_sha1.c **** 
  87:..\lib\psoc_totp/hmac_sha1.c ****     SHA1Update(&octx, buf, SHA_BLOCKSIZE);
 164              		.loc 1 87 0 is_stmt 1
 165 00a0 4022     		movs	r2, #64
 166 00a2 17A9     		add	r1, sp, #92
 167 00a4 36A8     		add	r0, sp, #216
 168 00a6 FFF7FEFF 		bl	SHA1Update
 169              	.LVL20:
  88:..\lib\psoc_totp/hmac_sha1.c ****     SHA1Update(&octx, isha, SHA_DIGEST_LENGTH);
 170              		.loc 1 88 0
 171 00aa 1422     		movs	r2, #20
 172 00ac 31A9     		add	r1, sp, #196
 173 00ae 36A8     		add	r0, sp, #216
 174 00b0 FFF7FEFF 		bl	SHA1Update
 175              	.LVL21:
  89:..\lib\psoc_totp/hmac_sha1.c **** 
  90:..\lib\psoc_totp/hmac_sha1.c ****     SHA1Final(osha, &octx);
 176              		.loc 1 90 0
 177 00b4 36A9     		add	r1, sp, #216
 178 00b6 2CA8     		add	r0, sp, #176
 179 00b8 FFF7FEFF 		bl	SHA1Final
 180              	.LVL22:
  91:..\lib\psoc_totp/hmac_sha1.c **** 
  92:..\lib\psoc_totp/hmac_sha1.c ****     /* truncate and print the results */
  93:..\lib\psoc_totp/hmac_sha1.c ****     *t = *t > SHA_DIGEST_LENGTH ? SHA_DIGEST_LENGTH : *t;
 181              		.loc 1 93 0
 182 00bc 3268     		ldr	r2, [r6]
 183 00be 142A     		cmp	r2, #20
ARM GAS  C:\Users\bkettle\AppData\Local\Temp\cc7ruapK.s 			page 6


 184 00c0 28BF     		it	cs
 185 00c2 1422     		movcs	r2, #20
 186 00c4 3260     		str	r2, [r6]
  94:..\lib\psoc_totp/hmac_sha1.c ****     memcpy(out, osha, *t);
 187              		.loc 1 94 0
 188 00c6 2CA9     		add	r1, sp, #176
 189 00c8 6A98     		ldr	r0, [sp, #424]
 190 00ca FFF7FEFF 		bl	memcpy
 191              	.LVL23:
  95:..\lib\psoc_totp/hmac_sha1.c **** }
 192              		.loc 1 95 0
 193 00ce 64B0     		add	sp, sp, #400
 194              		.cfi_def_cfa_offset 24
 195              		@ sp needed
 196 00d0 BDE8F081 		pop	{r4, r5, r6, r7, r8, pc}
 197              		.cfi_endproc
 198              	.LFE0:
 199              		.size	hmac_sha1, .-hmac_sha1
 200              		.text
 201              	.Letext0:
 202              		.file 2 "c:\\program files (x86)\\cypress\\psoc creator\\4.3\\psoc creator\\import\\gnu\\arm\\5.4.
 203              		.file 3 "c:\\program files (x86)\\cypress\\psoc creator\\4.3\\psoc creator\\import\\gnu\\arm\\5.4.
 204              		.file 4 "c:\\program files (x86)\\cypress\\psoc creator\\4.3\\psoc creator\\import\\gnu\\arm\\5.4.
 205              		.file 5 "..\\lib\\psoc_totp/sha1.h"