ARM GAS  C:\Users\bkettle\AppData\Local\Temp\ccs5dHXb.s 			page 1


   1              		.syntax unified
   2              		.cpu cortex-m3
   3              		.fpu softvfp
   4              		.eabi_attribute 20, 1
   5              		.eabi_attribute 21, 1
   6              		.eabi_attribute 23, 3
   7              		.eabi_attribute 24, 1
   8              		.eabi_attribute 25, 1
   9              		.eabi_attribute 26, 1
  10              		.eabi_attribute 30, 1
  11              		.eabi_attribute 34, 1
  12              		.eabi_attribute 18, 4
  13              		.thumb
  14              		.syntax unified
  15              		.file	"main.c"
  16              		.text
  17              	.Ltext0:
  18              		.cfi_sections	.debug_frame
  19              		.section	.text.phex,"ax",%progbits
  20              		.align	2
  21              		.global	phex
  22              		.thumb
  23              		.thumb_func
  24              		.type	phex, %function
  25              	phex:
  26              	.LFB64:
  27              		.file 1 "main.c"
   1:main.c        **** /* ========================================
   2:main.c        ****  *
   3:main.c        ****  * Copyright YOUR COMPANY, THE YEAR
   4:main.c        ****  * All Rights Reserved
   5:main.c        ****  * UNPUBLISHED, LICENSED SOFTWARE.
   6:main.c        ****  *
   7:main.c        ****  * CONFIDENTIAL AND PROPRIETARY INFORMATION
   8:main.c        ****  * WHICH IS THE PROPERTY OF your company.
   9:main.c        ****  *
  10:main.c        ****  * ========================================
  11:main.c        **** */
  12:main.c        **** #include "project.h"
  13:main.c        **** #include "sha1.h"
  14:main.c        **** #include "hmac.h"
  15:main.c        **** #include "otp.h"
  16:main.c        **** 
  17:main.c        **** #include <stdio.h>
  18:main.c        **** 
  19:main.c        **** // print hex of a char array
  20:main.c        **** void phex(unsigned char * arr, size_t size) {
  28              		.loc 1 20 0
  29              		.cfi_startproc
  30              		@ args = 0, pretend = 0, frame = 8
  31              		@ frame_needed = 0, uses_anonymous_args = 0
  32              	.LVL0:
  33 0000 70B5     		push	{r4, r5, r6, lr}
  34              		.cfi_def_cfa_offset 16
  35              		.cfi_offset 4, -16
  36              		.cfi_offset 5, -12
  37              		.cfi_offset 6, -8
ARM GAS  C:\Users\bkettle\AppData\Local\Temp\ccs5dHXb.s 			page 2


  38              		.cfi_offset 14, -4
  39 0002 82B0     		sub	sp, sp, #8
  40              		.cfi_def_cfa_offset 24
  41 0004 0646     		mov	r6, r0
  42 0006 0D46     		mov	r5, r1
  43              	.LVL1:
  44              	.LBB2:
  21:main.c        ****     char tp[3]; //holds things to be printed
  22:main.c        ****     for (uint i=0; i<size; i++) {
  45              		.loc 1 22 0
  46 0008 0024     		movs	r4, #0
  47 000a 08E0     		b	.L2
  48              	.LVL2:
  49              	.L3:
  23:main.c        ****         sprintf(tp, "%X", arr[i]);
  50              		.loc 1 23 0 discriminator 3
  51 000c 325D     		ldrb	r2, [r6, r4]	@ zero_extendqisi2
  52 000e 0749     		ldr	r1, .L5
  53 0010 01A8     		add	r0, sp, #4
  54 0012 FFF7FEFF 		bl	sprintf
  55              	.LVL3:
  24:main.c        ****         UART_1_PutString(tp);
  56              		.loc 1 24 0 discriminator 3
  57 0016 01A8     		add	r0, sp, #4
  58 0018 FFF7FEFF 		bl	UART_1_PutString
  59              	.LVL4:
  22:main.c        ****         sprintf(tp, "%X", arr[i]);
  60              		.loc 1 22 0 discriminator 3
  61 001c 0134     		adds	r4, r4, #1
  62              	.LVL5:
  63              	.L2:
  22:main.c        ****         sprintf(tp, "%X", arr[i]);
  64              		.loc 1 22 0 is_stmt 0 discriminator 1
  65 001e AC42     		cmp	r4, r5
  66 0020 F4D3     		bcc	.L3
  67              	.LBE2:
  25:main.c        ****     }
  26:main.c        ****     UART_1_PutString(" ");
  68              		.loc 1 26 0 is_stmt 1
  69 0022 0348     		ldr	r0, .L5+4
  70 0024 FFF7FEFF 		bl	UART_1_PutString
  71              	.LVL6:
  27:main.c        **** }
  72              		.loc 1 27 0
  73 0028 02B0     		add	sp, sp, #8
  74              		.cfi_def_cfa_offset 16
  75              		@ sp needed
  76 002a 70BD     		pop	{r4, r5, r6, pc}
  77              	.LVL7:
  78              	.L6:
  79              		.align	2
  80              	.L5:
  81 002c 00000000 		.word	.LC1
  82 0030 04000000 		.word	.LC2
  83              		.cfi_endproc
  84              	.LFE64:
  85              		.size	phex, .-phex
ARM GAS  C:\Users\bkettle\AppData\Local\Temp\ccs5dHXb.s 			page 3


  86              		.section	.text.main,"ax",%progbits
  87              		.align	2
  88              		.global	main
  89              		.thumb
  90              		.thumb_func
  91              		.type	main, %function
  92              	main:
  93              	.LFB65:
  28:main.c        **** 
  29:main.c        **** // I THINK THIS WORKS NOW
  30:main.c        **** //void verbose_hotp() {
  31:main.c        **** //    // HOTP
  32:main.c        **** //    // right now only generates 6-digit ones but could do more
  33:main.c        **** //    UART_1_PutString("\n\rHOTP FUNCTION: ");
  34:main.c        **** //    uint64_t c_int = (uint64_t) counter; // convert counter to 8 Bytes
  35:main.c        **** //    c_int = __builtin_bswap64(c_int); // convert counter to big-endian
  36:main.c        **** //    unsigned char * c = &c_int; // get pointer to char array for thats
  37:main.c        **** //    
  38:main.c        **** //    
  39:main.c        **** // 
  40:main.c        **** //    UART_1_PutString("\n\r Count: 0x");
  41:main.c        **** //    phex(c, 8);
  42:main.c        **** //    UART_1_PutString(" Key: 0x");
  43:main.c        **** //    phex(key, key_len);
  44:main.c        **** //    unsigned char result[20];
  45:main.c        **** //    uint rlen = 20;
  46:main.c        **** //    hmac_sha1(key, key_len, c, 8, result, &rlen);
  47:main.c        **** //    UART_1_PutString("\n\rHMAC Calculated: ");
  48:main.c        **** //    phex(result, 20);
  49:main.c        **** //    
  50:main.c        **** //    // CALCULATE OFFSET
  51:main.c        **** //    char tp[3];
  52:main.c        **** //    sprintf(tp, " -> %X ", result[19]);
  53:main.c        **** //    UART_1_PutString(tp);
  54:main.c        **** //    // just take lower 4 bits of the last byte
  55:main.c        **** //    uint8_t offset = (uint8_t) result[19] & 0xF;
  56:main.c        **** //    sprintf(tp, "%X \n\r", offset);
  57:main.c        **** //    UART_1_PutString(tp);
  58:main.c        **** //    
  59:main.c        **** //    // TRUNCATE
  60:main.c        **** //    // take all but msb of result[offset]...result[offset+3]
  61:main.c        **** //    char trunc[4];
  62:main.c        **** //    UART_1_PutString("truncating: ");
  63:main.c        **** //    strncpy(trunc, (char*) result+offset, 4);
  64:main.c        **** //    phex(trunc, 4);
  65:main.c        **** //    // endianness determines whether this is trunc[0] or [3]
  66:main.c        **** //    // this is little endian, so trunc[3] is msB I think
  67:main.c        **** //    // delete most significant bit, could do this by anding with 0111111b too
  68:main.c        **** //    trunc[0] = trunc[0] & 0x7F;
  69:main.c        **** //    phex(trunc, 4);
  70:main.c        **** //    UART_1_PutString("\n\r");
  71:main.c        **** //    
  72:main.c        **** //    // compute hotp value
  73:main.c        **** //    UART_1_PutString("hotp value: ");
  74:main.c        **** //    // psoc little-endian, so we need to flip the order of bytes
  75:main.c        **** //    // because algorithm treats it as big-endian
  76:main.c        **** //    // nevermind that was messing it up!
ARM GAS  C:\Users\bkettle\AppData\Local\Temp\ccs5dHXb.s 			page 4


  77:main.c        **** //    // we just assign them as expected
  78:main.c        **** //    uint32_t t_num = trunc[0] << 24 | trunc[1] << 16 | trunc[2] << 8 | trunc[3];
  79:main.c        **** //    char to_print[20];
  80:main.c        **** //    sprintf(to_print, "%d ", t_num);
  81:main.c        **** //    UART_1_PutString(to_print);
  82:main.c        **** //    // mod with 10^6 for a 6-digit number
  83:main.c        **** //    uint32_t hotp_val = t_num % 1000000;
  84:main.c        **** //    sprintf(to_print, "-> %d", hotp_val);
  85:main.c        **** //    UART_1_PutString(to_print);
  86:main.c        **** //    UART_1_PutString("\n\r");
  87:main.c        **** //}
  88:main.c        ****     
  89:main.c        **** int main(void)
  90:main.c        **** {
  94              		.loc 1 90 0
  95              		.cfi_startproc
  96              		@ args = 0, pretend = 0, frame = 1640
  97              		@ frame_needed = 0, uses_anonymous_args = 0
  98 0000 2DE9F047 		push	{r4, r5, r6, r7, r8, r9, r10, lr}
  99              		.cfi_def_cfa_offset 32
 100              		.cfi_offset 4, -32
 101              		.cfi_offset 5, -28
 102              		.cfi_offset 6, -24
 103              		.cfi_offset 7, -20
 104              		.cfi_offset 8, -16
 105              		.cfi_offset 9, -12
 106              		.cfi_offset 10, -8
 107              		.cfi_offset 14, -4
 108 0004 ADF5CE6D 		sub	sp, sp, #1648
 109              		.cfi_def_cfa_offset 1680
  91:main.c        ****     CyGlobalIntEnable; /* Enable global interrupts. */
 110              		.loc 1 91 0
 111              		.syntax unified
 112              	@ 91 "main.c" 1
 113 0008 62B6     		CPSIE   i
 114              	@ 0 "" 2
  92:main.c        **** 
  93:main.c        ****     /* Place your initialization/startup code here (e.g. MyInst_Start()) */
  94:main.c        ****     UART_1_Start();
 115              		.loc 1 94 0
 116              		.thumb
 117              		.syntax unified
 118 000a FFF7FEFF 		bl	UART_1_Start
 119              	.LVL8:
 120              	.L8:
 121              	.LBB3:
  95:main.c        **** 
  96:main.c        ****     for(;;)
  97:main.c        ****     {
  98:main.c        ****         /* Place your application code here. */
  99:main.c        ****         
 100:main.c        ****         // SHA TEST
 101:main.c        ****         SHA1_CTX sha; 
 102:main.c        ****         uint8_t results[20]; 
 103:main.c        ****         char *buf; 
 104:main.c        ****         int n;
 105:main.c        **** 
ARM GAS  C:\Users\bkettle\AppData\Local\Temp\ccs5dHXb.s 			page 5


 106:main.c        ****         buf = ""; 
 107:main.c        ****         n = strlen(buf); 
 108:main.c        ****         SHA1Init(&sha); 
 122              		.loc 1 108 0 discriminator 1
 123 000e 85A8     		add	r0, sp, #532
 124 0010 FFF7FEFF 		bl	SHA1Init
 125              	.LVL9:
 109:main.c        ****         SHA1Update(&sha, (uint8_t *)buf, n); 
 126              		.loc 1 109 0 discriminator 1
 127 0014 0022     		movs	r2, #0
 128 0016 BF49     		ldr	r1, .L10
 129 0018 85A8     		add	r0, sp, #532
 130 001a FFF7FEFF 		bl	SHA1Update
 131              	.LVL10:
 110:main.c        ****         SHA1Final(results, &sha);
 132              		.loc 1 110 0 discriminator 1
 133 001e 85A9     		add	r1, sp, #532
 134 0020 0FA8     		add	r0, sp, #60
 135 0022 FFF7FEFF 		bl	SHA1Final
 136              	.LVL11:
 111:main.c        ****         UART_1_PutString("\n\rSHA TEST 1: ");
 137              		.loc 1 111 0 discriminator 1
 138 0026 BC48     		ldr	r0, .L10+4
 139 0028 FFF7FEFF 		bl	UART_1_PutString
 140              	.LVL12:
 112:main.c        ****         phex(results, 20);
 141              		.loc 1 112 0 discriminator 1
 142 002c 1421     		movs	r1, #20
 143 002e 0FA8     		add	r0, sp, #60
 144 0030 FFF7FEFF 		bl	phex
 145              	.LVL13:
 113:main.c        ****         
 114:main.c        ****         
 115:main.c        ****         // HMAC TEST 1
 116:main.c        ****         unsigned char sec_key1[] = "Jefe";
 146              		.loc 1 116 0 discriminator 1
 147 0034 B94A     		ldr	r2, .L10+8
 148 0036 92E80300 		ldmia	r2, {r0, r1}
 149 003a 0B90     		str	r0, [sp, #44]
 150 003c 8DF83010 		strb	r1, [sp, #48]
 117:main.c        ****         unsigned char data1[] = "what do ya want for nothing?";
 151              		.loc 1 117 0 discriminator 1
 152 0040 34AC     		add	r4, sp, #208
 153 0042 B74D     		ldr	r5, .L10+12
 154 0044 0FCD     		ldmia	r5!, {r0, r1, r2, r3}
 155 0046 0FC4     		stmia	r4!, {r0, r1, r2, r3}
 156 0048 95E80F00 		ldmia	r5, {r0, r1, r2, r3}
 157 004c 07C4     		stmia	r4!, {r0, r1, r2}
 158 004e 2370     		strb	r3, [r4]
 118:main.c        ****         unsigned char out1[256] = {0};
 159              		.loc 1 118 0 discriminator 1
 160 0050 9CAC     		add	r4, sp, #624
 161 0052 4FF48076 		mov	r6, #256
 162 0056 3246     		mov	r2, r6
 163 0058 0021     		movs	r1, #0
 164 005a 2046     		mov	r0, r4
 165 005c FFF7FEFF 		bl	memset
ARM GAS  C:\Users\bkettle\AppData\Local\Temp\ccs5dHXb.s 			page 6


 166              	.LVL14:
 119:main.c        ****         uint len1 = sizeof(out1);
 167              		.loc 1 119 0 discriminator 1
 168 0060 05AD     		add	r5, sp, #20
 169 0062 0596     		str	r6, [sp, #20]
 120:main.c        ****         hmac_sha1(sec_key1, 4, data1, strlen(data1), out1, &len1);
 170              		.loc 1 120 0 discriminator 1
 171 0064 34A8     		add	r0, sp, #208
 172 0066 FFF7FEFF 		bl	strlen
 173              	.LVL15:
 174 006a 0195     		str	r5, [sp, #4]
 175 006c 0094     		str	r4, [sp]
 176 006e 0346     		mov	r3, r0
 177 0070 34AA     		add	r2, sp, #208
 178 0072 0421     		movs	r1, #4
 179 0074 0BA8     		add	r0, sp, #44
 180 0076 FFF7FEFF 		bl	hmac_sha1
 181              	.LVL16:
 121:main.c        ****         UART_1_PutString("\n\rHMAC TEST 1: ");
 182              		.loc 1 121 0 discriminator 1
 183 007a AA48     		ldr	r0, .L10+16
 184 007c FFF7FEFF 		bl	UART_1_PutString
 185              	.LVL17:
 122:main.c        ****         phex(out1, 20);
 186              		.loc 1 122 0 discriminator 1
 187 0080 1421     		movs	r1, #20
 188 0082 2046     		mov	r0, r4
 189 0084 FFF7FEFF 		bl	phex
 190              	.LVL18:
 123:main.c        ****         UART_1_PutString("\n\r");
 191              		.loc 1 123 0 discriminator 1
 192 0088 A74F     		ldr	r7, .L10+20
 193 008a 3846     		mov	r0, r7
 194 008c FFF7FEFF 		bl	UART_1_PutString
 195              	.LVL19:
 124:main.c        ****         
 125:main.c        ****         // HMAC TEST 2
 126:main.c        ****         unsigned char sec_key2[] = {0x0c, 0x0c, 0x0c, 0x0c, 0x0c, 0x0c, 0x0c, 0x0c, 0x0c, 0x0c,
 196              		.loc 1 126 0 discriminator 1
 197 0090 A64D     		ldr	r5, .L10+24
 198 0092 14AC     		add	r4, sp, #80
 199 0094 2868     		ldr	r0, [r5]	@ unaligned
 200 0096 6968     		ldr	r1, [r5, #4]	@ unaligned
 201 0098 AA68     		ldr	r2, [r5, #8]	@ unaligned
 202 009a EB68     		ldr	r3, [r5, #12]	@ unaligned
 203 009c 0FC4     		stmia	r4!, {r0, r1, r2, r3}
 204 009e 2869     		ldr	r0, [r5, #16]	@ unaligned
 205 00a0 2060     		str	r0, [r4]	@ unaligned
 127:main.c        ****                                     0x0c, 0x0c, 0x0c, 0x0c, 0x0c, 0x0c, 0x0c, 0x0c, 0x0c, 0x0c};
 128:main.c        ****         unsigned char data2[] = "Test With Truncation";
 206              		.loc 1 128 0 discriminator 1
 207 00a2 28AC     		add	r4, sp, #160
 208 00a4 A24D     		ldr	r5, .L10+28
 209 00a6 0FCD     		ldmia	r5!, {r0, r1, r2, r3}
 210 00a8 0FC4     		stmia	r4!, {r0, r1, r2, r3}
 211 00aa 95E80300 		ldmia	r5, {r0, r1}
 212 00ae 44F8040B 		str	r0, [r4], #4
ARM GAS  C:\Users\bkettle\AppData\Local\Temp\ccs5dHXb.s 			page 7


 213 00b2 2170     		strb	r1, [r4]
 129:main.c        ****         unsigned char out2[256] = {0};
 214              		.loc 1 129 0 discriminator 1
 215 00b4 DCAC     		add	r4, sp, #880
 216 00b6 3246     		mov	r2, r6
 217 00b8 0021     		movs	r1, #0
 218 00ba 2046     		mov	r0, r4
 219 00bc FFF7FEFF 		bl	memset
 220              	.LVL20:
 130:main.c        ****         uint len2 = sizeof(out2);
 221              		.loc 1 130 0 discriminator 1
 222 00c0 06AD     		add	r5, sp, #24
 223 00c2 0696     		str	r6, [sp, #24]
 131:main.c        ****         hmac_sha1(sec_key2, 20, data2, strlen(data2), out2, &len2);
 224              		.loc 1 131 0 discriminator 1
 225 00c4 28A8     		add	r0, sp, #160
 226 00c6 FFF7FEFF 		bl	strlen
 227              	.LVL21:
 228 00ca 0195     		str	r5, [sp, #4]
 229 00cc 0094     		str	r4, [sp]
 230 00ce 0346     		mov	r3, r0
 231 00d0 28AA     		add	r2, sp, #160
 232 00d2 1421     		movs	r1, #20
 233 00d4 14A8     		add	r0, sp, #80
 234 00d6 FFF7FEFF 		bl	hmac_sha1
 235              	.LVL22:
 132:main.c        ****         UART_1_PutString("HMAC TEST 2: ");
 236              		.loc 1 132 0 discriminator 1
 237 00da 9648     		ldr	r0, .L10+32
 238 00dc FFF7FEFF 		bl	UART_1_PutString
 239              	.LVL23:
 133:main.c        ****         phex(out2, 20);
 240              		.loc 1 133 0 discriminator 1
 241 00e0 1421     		movs	r1, #20
 242 00e2 2046     		mov	r0, r4
 243 00e4 FFF7FEFF 		bl	phex
 244              	.LVL24:
 134:main.c        ****         UART_1_PutString("\n\r");
 245              		.loc 1 134 0 discriminator 1
 246 00e8 3846     		mov	r0, r7
 247 00ea FFF7FEFF 		bl	UART_1_PutString
 248              	.LVL25:
 135:main.c        ****         
 136:main.c        ****         // HMAC TEST 3
 137:main.c        ****         unsigned char sec_key3[80];
 138:main.c        ****         memset(sec_key3, 0xaa, 80);
 249              		.loc 1 138 0 discriminator 1
 250 00ee 5022     		movs	r2, #80
 251 00f0 AA21     		movs	r1, #170
 252 00f2 5DA8     		add	r0, sp, #372
 253 00f4 FFF7FEFF 		bl	memset
 254              	.LVL26:
 139:main.c        ****         unsigned char data3[] = "Test Using Larger Than Block-Size Key - Hash Key First";
 255              		.loc 1 139 0 discriminator 1
 256 00f8 3CAC     		add	r4, sp, #240
 257 00fa 8F4D     		ldr	r5, .L10+36
 258 00fc 0FCD     		ldmia	r5!, {r0, r1, r2, r3}
ARM GAS  C:\Users\bkettle\AppData\Local\Temp\ccs5dHXb.s 			page 8


 259 00fe 0FC4     		stmia	r4!, {r0, r1, r2, r3}
 260 0100 0FCD     		ldmia	r5!, {r0, r1, r2, r3}
 261 0102 0FC4     		stmia	r4!, {r0, r1, r2, r3}
 262 0104 0FCD     		ldmia	r5!, {r0, r1, r2, r3}
 263 0106 0FC4     		stmia	r4!, {r0, r1, r2, r3}
 264 0108 95E80300 		ldmia	r5, {r0, r1}
 265 010c 44F8040B 		str	r0, [r4], #4
 266 0110 24F8021B 		strh	r1, [r4], #2	@ movhi
 267 0114 090C     		lsrs	r1, r1, #16
 268 0116 2170     		strb	r1, [r4]
 140:main.c        ****         unsigned char out3[256] = {0};
 269              		.loc 1 140 0 discriminator 1
 270 0118 0DF58E64 		add	r4, sp, #1136
 271 011c 3246     		mov	r2, r6
 272 011e 0021     		movs	r1, #0
 273 0120 2046     		mov	r0, r4
 274 0122 FFF7FEFF 		bl	memset
 275              	.LVL27:
 141:main.c        ****         uint len3 = sizeof(out3);
 276              		.loc 1 141 0 discriminator 1
 277 0126 07AB     		add	r3, sp, #28
 278 0128 0796     		str	r6, [sp, #28]
 142:main.c        ****         hmac_sha1(sec_key3, 80, data3, 54, out3, &len3);
 279              		.loc 1 142 0 discriminator 1
 280 012a 0193     		str	r3, [sp, #4]
 281 012c 0094     		str	r4, [sp]
 282 012e 3623     		movs	r3, #54
 283 0130 3CAA     		add	r2, sp, #240
 284 0132 5021     		movs	r1, #80
 285 0134 5DA8     		add	r0, sp, #372
 286 0136 FFF7FEFF 		bl	hmac_sha1
 287              	.LVL28:
 143:main.c        ****         UART_1_PutString("HMAC TEST 3: ");
 288              		.loc 1 143 0 discriminator 1
 289 013a 8048     		ldr	r0, .L10+40
 290 013c FFF7FEFF 		bl	UART_1_PutString
 291              	.LVL29:
 144:main.c        ****         phex(out3, 20);
 292              		.loc 1 144 0 discriminator 1
 293 0140 1421     		movs	r1, #20
 294 0142 2046     		mov	r0, r4
 295 0144 FFF7FEFF 		bl	phex
 296              	.LVL30:
 145:main.c        ****         UART_1_PutString("\n\r");
 297              		.loc 1 145 0 discriminator 1
 298 0148 3846     		mov	r0, r7
 299 014a FFF7FEFF 		bl	UART_1_PutString
 300              	.LVL31:
 146:main.c        ****         
 147:main.c        ****         // HMAC TEST 4
 148:main.c        ****         unsigned char sec_key4[80];
 149:main.c        ****         memset(sec_key4, 0xaa, 80);
 301              		.loc 1 149 0 discriminator 1
 302 014e 5022     		movs	r2, #80
 303 0150 AA21     		movs	r1, #170
 304 0152 71A8     		add	r0, sp, #452
 305 0154 FFF7FEFF 		bl	memset
ARM GAS  C:\Users\bkettle\AppData\Local\Temp\ccs5dHXb.s 			page 9


 306              	.LVL32:
 150:main.c        ****         unsigned char data4[] = "Test Using Larger Than Block-Size Key and Larger Than One Block-Si
 307              		.loc 1 150 0 discriminator 1
 308 0158 4A22     		movs	r2, #74
 309 015a 7949     		ldr	r1, .L10+44
 310 015c 4AA8     		add	r0, sp, #296
 311 015e FFF7FEFF 		bl	memcpy
 312              	.LVL33:
 151:main.c        ****         unsigned char out4[256] = {0};
 313              		.loc 1 151 0 discriminator 1
 314 0162 0DF5AE64 		add	r4, sp, #1392
 315 0166 3246     		mov	r2, r6
 316 0168 0021     		movs	r1, #0
 317 016a 2046     		mov	r0, r4
 318 016c FFF7FEFF 		bl	memset
 319              	.LVL34:
 152:main.c        ****         uint len4 = sizeof(out4);
 320              		.loc 1 152 0 discriminator 1
 321 0170 08AB     		add	r3, sp, #32
 322 0172 0896     		str	r6, [sp, #32]
 153:main.c        ****         hmac_sha1(sec_key4, 80, data4, 73, out4, &len4);
 323              		.loc 1 153 0 discriminator 1
 324 0174 0193     		str	r3, [sp, #4]
 325 0176 0094     		str	r4, [sp]
 326 0178 4923     		movs	r3, #73
 327 017a 4AAA     		add	r2, sp, #296
 328 017c 5021     		movs	r1, #80
 329 017e 71A8     		add	r0, sp, #452
 330 0180 FFF7FEFF 		bl	hmac_sha1
 331              	.LVL35:
 154:main.c        ****         UART_1_PutString("HMAC TEST 4: ");
 332              		.loc 1 154 0 discriminator 1
 333 0184 6F48     		ldr	r0, .L10+48
 334 0186 FFF7FEFF 		bl	UART_1_PutString
 335              	.LVL36:
 155:main.c        ****         phex(out4, 20);
 336              		.loc 1 155 0 discriminator 1
 337 018a 1421     		movs	r1, #20
 338 018c 2046     		mov	r0, r4
 339 018e FFF7FEFF 		bl	phex
 340              	.LVL37:
 156:main.c        ****         UART_1_PutString("\n\r");
 341              		.loc 1 156 0 discriminator 1
 342 0192 3846     		mov	r0, r7
 343 0194 FFF7FEFF 		bl	UART_1_PutString
 344              	.LVL38:
 157:main.c        ****         
 158:main.c        ****         
 159:main.c        ****         
 160:main.c        ****         
 161:main.c        **** //      // HOTP
 162:main.c        ****         UART_1_PutString("\n\r HOTP TEST 1:");
 345              		.loc 1 162 0 discriminator 1
 346 0198 6B48     		ldr	r0, .L10+52
 347 019a FFF7FEFF 		bl	UART_1_PutString
 348              	.LVL39:
 163:main.c        ****         unsigned char c[8] = {0};
ARM GAS  C:\Users\bkettle\AppData\Local\Temp\ccs5dHXb.s 			page 10


 349              		.loc 1 163 0 discriminator 1
 350 019e 4FF00008 		mov	r8, #0
 351 01a2 CDF83480 		str	r8, [sp, #52]
 352 01a6 CDF83880 		str	r8, [sp, #56]
 164:main.c        ****         c[7] = 0x9; // set counter value to 1
 353              		.loc 1 164 0 discriminator 1
 354 01aa 0923     		movs	r3, #9
 355 01ac 8DF83B30 		strb	r3, [sp, #59]
 165:main.c        ****         UART_1_PutString("\n\r Count: 0x");
 356              		.loc 1 165 0 discriminator 1
 357 01b0 6648     		ldr	r0, .L10+56
 358 01b2 FFF7FEFF 		bl	UART_1_PutString
 359              	.LVL40:
 166:main.c        ****         phex(c, 8);
 360              		.loc 1 166 0 discriminator 1
 361 01b6 0821     		movs	r1, #8
 362 01b8 0DA8     		add	r0, sp, #52
 363 01ba FFF7FEFF 		bl	phex
 364              	.LVL41:
 167:main.c        ****         unsigned char key[] = "12345678901234567890";
 365              		.loc 1 167 0 discriminator 1
 366 01be 644E     		ldr	r6, .L10+60
 367 01c0 2EAC     		add	r4, sp, #184
 368 01c2 3546     		mov	r5, r6
 369 01c4 0FCD     		ldmia	r5!, {r0, r1, r2, r3}
 370 01c6 0FC4     		stmia	r4!, {r0, r1, r2, r3}
 371 01c8 95E80300 		ldmia	r5, {r0, r1}
 372 01cc 44F8040B 		str	r0, [r4], #4
 373 01d0 2170     		strb	r1, [r4]
 168:main.c        ****         UART_1_PutString(" Key: 0x");
 374              		.loc 1 168 0 discriminator 1
 375 01d2 6048     		ldr	r0, .L10+64
 376 01d4 FFF7FEFF 		bl	UART_1_PutString
 377              	.LVL42:
 169:main.c        ****         phex(key, 20);
 378              		.loc 1 169 0 discriminator 1
 379 01d8 1421     		movs	r1, #20
 380 01da 2EA8     		add	r0, sp, #184
 381 01dc FFF7FEFF 		bl	phex
 382              	.LVL43:
 170:main.c        ****         unsigned char result[20];
 171:main.c        ****         uint rlen = sizeof(result);
 383              		.loc 1 171 0 discriminator 1
 384 01e0 09AB     		add	r3, sp, #36
 385 01e2 4FF01409 		mov	r9, #20
 386 01e6 CDF82490 		str	r9, [sp, #36]
 172:main.c        ****         hmac_sha1(key, 20, c, 8, result, &rlen);
 387              		.loc 1 172 0 discriminator 1
 388 01ea 0193     		str	r3, [sp, #4]
 389 01ec 19AC     		add	r4, sp, #100
 390 01ee 0094     		str	r4, [sp]
 391 01f0 0823     		movs	r3, #8
 392 01f2 0DAA     		add	r2, sp, #52
 393 01f4 4946     		mov	r1, r9
 394 01f6 2EA8     		add	r0, sp, #184
 395 01f8 FFF7FEFF 		bl	hmac_sha1
 396              	.LVL44:
ARM GAS  C:\Users\bkettle\AppData\Local\Temp\ccs5dHXb.s 			page 11


 173:main.c        ****         UART_1_PutString("\n\rHMAC Calculated: ");
 397              		.loc 1 173 0 discriminator 1
 398 01fc 5648     		ldr	r0, .L10+68
 399 01fe FFF7FEFF 		bl	UART_1_PutString
 400              	.LVL45:
 174:main.c        ****         phex(result, 20);
 401              		.loc 1 174 0 discriminator 1
 402 0202 4946     		mov	r1, r9
 403 0204 2046     		mov	r0, r4
 404 0206 FFF7FEFF 		bl	phex
 405              	.LVL46:
 175:main.c        **** //        
 176:main.c        ****         // CALCULATE OFFSET
 177:main.c        ****         char tp[3];
 178:main.c        ****         sprintf(tp, " -> %X ", result[19]);
 406              		.loc 1 178 0 discriminator 1
 407 020a E27C     		ldrb	r2, [r4, #19]	@ zero_extendqisi2
 408 020c 5349     		ldr	r1, .L10+72
 409 020e 04A8     		add	r0, sp, #16
 410 0210 FFF7FEFF 		bl	sprintf
 411              	.LVL47:
 179:main.c        ****         UART_1_PutString(tp);
 412              		.loc 1 179 0 discriminator 1
 413 0214 04A8     		add	r0, sp, #16
 414 0216 FFF7FEFF 		bl	UART_1_PutString
 415              	.LVL48:
 180:main.c        ****         // just take lower 4 bits of the last byte
 181:main.c        ****         uint8_t offset = (uint8_t) result[19] & 0xF;
 416              		.loc 1 181 0 discriminator 1
 417 021a 94F813A0 		ldrb	r10, [r4, #19]	@ zero_extendqisi2
 418 021e 0AF00F0A 		and	r10, r10, #15
 419              	.LVL49:
 182:main.c        ****         sprintf(tp, "%X \n\r", offset);
 420              		.loc 1 182 0 discriminator 1
 421 0222 5246     		mov	r2, r10
 422 0224 4E49     		ldr	r1, .L10+76
 423 0226 04A8     		add	r0, sp, #16
 424 0228 FFF7FEFF 		bl	sprintf
 425              	.LVL50:
 183:main.c        ****         UART_1_PutString(tp);
 426              		.loc 1 183 0 discriminator 1
 427 022c 04A8     		add	r0, sp, #16
 428 022e FFF7FEFF 		bl	UART_1_PutString
 429              	.LVL51:
 184:main.c        ****         
 185:main.c        ****         // TRUNCATE
 186:main.c        ****         // take all but msb of result[offset]...result[offset+3]
 187:main.c        ****         char trunc[4];
 188:main.c        ****         UART_1_PutString("truncating: ");
 430              		.loc 1 188 0 discriminator 1
 431 0232 4C48     		ldr	r0, .L10+80
 432 0234 FFF7FEFF 		bl	UART_1_PutString
 433              	.LVL52:
 189:main.c        ****         strncpy(trunc, (char*) result+offset, 4);
 434              		.loc 1 189 0 discriminator 1
 435 0238 0422     		movs	r2, #4
 436 023a 04EB0A01 		add	r1, r4, r10
ARM GAS  C:\Users\bkettle\AppData\Local\Temp\ccs5dHXb.s 			page 12


 437 023e 0AA8     		add	r0, sp, #40
 438 0240 FFF7FEFF 		bl	strncpy
 439              	.LVL53:
 190:main.c        ****         phex(trunc, 4);
 440              		.loc 1 190 0 discriminator 1
 441 0244 0421     		movs	r1, #4
 442 0246 0AA8     		add	r0, sp, #40
 443 0248 FFF7FEFF 		bl	phex
 444              	.LVL54:
 191:main.c        ****         // endianness determines whether this is trunc[0] or [3]
 192:main.c        ****         // this is little endian, so trunc[3] is msB I think
 193:main.c        ****         // delete most significant bit, could do this by anding with 0111111b too
 194:main.c        ****         trunc[0] = trunc[0] & 0x7F;
 445              		.loc 1 194 0 discriminator 1
 446 024c 9DF82830 		ldrb	r3, [sp, #40]	@ zero_extendqisi2
 447 0250 03F07F03 		and	r3, r3, #127
 448 0254 8DF82830 		strb	r3, [sp, #40]
 195:main.c        ****         phex(trunc, 4);
 449              		.loc 1 195 0 discriminator 1
 450 0258 0421     		movs	r1, #4
 451 025a 0AA8     		add	r0, sp, #40
 452 025c FFF7FEFF 		bl	phex
 453              	.LVL55:
 196:main.c        ****         UART_1_PutString("\n\r");
 454              		.loc 1 196 0 discriminator 1
 455 0260 3846     		mov	r0, r7
 456 0262 FFF7FEFF 		bl	UART_1_PutString
 457              	.LVL56:
 197:main.c        ****         
 198:main.c        ****         // compute hotp value
 199:main.c        ****         UART_1_PutString("hotp value: ");
 458              		.loc 1 199 0 discriminator 1
 459 0266 4048     		ldr	r0, .L10+84
 460 0268 FFF7FEFF 		bl	UART_1_PutString
 461              	.LVL57:
 200:main.c        ****         // psoc little-endian, so we need to flip the order of bytes
 201:main.c        ****         // because algorithm treats it as big-endian
 202:main.c        ****         // nevermind that was messing it up!
 203:main.c        ****         // we just assign them as expected
 204:main.c        ****         uint32_t t_num = trunc[0] << 24 | trunc[1] << 16 | trunc[2] << 8 | trunc[3];
 462              		.loc 1 204 0 discriminator 1
 463 026c 9DF82840 		ldrb	r4, [sp, #40]	@ zero_extendqisi2
 464 0270 9DF82930 		ldrb	r3, [sp, #41]	@ zero_extendqisi2
 465 0274 1B04     		lsls	r3, r3, #16
 466 0276 43EA0464 		orr	r4, r3, r4, lsl #24
 467 027a 9DF82A30 		ldrb	r3, [sp, #42]	@ zero_extendqisi2
 468 027e 44EA0323 		orr	r3, r4, r3, lsl #8
 469 0282 9DF82B40 		ldrb	r4, [sp, #43]	@ zero_extendqisi2
 470 0286 1C43     		orrs	r4, r4, r3
 471              	.LVL58:
 205:main.c        ****         char to_print[20];
 206:main.c        ****         sprintf(to_print, "%d ", t_num);
 472              		.loc 1 206 0 discriminator 1
 473 0288 2246     		mov	r2, r4
 474 028a 3849     		ldr	r1, .L10+88
 475 028c 1EA8     		add	r0, sp, #120
 476 028e FFF7FEFF 		bl	sprintf
ARM GAS  C:\Users\bkettle\AppData\Local\Temp\ccs5dHXb.s 			page 13


 477              	.LVL59:
 207:main.c        ****         UART_1_PutString(to_print);
 478              		.loc 1 207 0 discriminator 1
 479 0292 1EA8     		add	r0, sp, #120
 480 0294 FFF7FEFF 		bl	UART_1_PutString
 481              	.LVL60:
 208:main.c        ****         // mod with 10^6 for a 6-digit number
 209:main.c        ****         uint32_t hotp = t_num % 1000000;
 482              		.loc 1 209 0 discriminator 1
 483 0298 354B     		ldr	r3, .L10+92
 484 029a A3FB0423 		umull	r2, r3, r3, r4
 485 029e 9B0C     		lsrs	r3, r3, #18
 486              	.LVL61:
 210:main.c        ****         sprintf(to_print, "-> %d", hotp);
 487              		.loc 1 210 0 discriminator 1
 488 02a0 344A     		ldr	r2, .L10+96
 489 02a2 02FB1342 		mls	r2, r2, r3, r4
 490              	.LVL62:
 491 02a6 3449     		ldr	r1, .L10+100
 492 02a8 1EA8     		add	r0, sp, #120
 493 02aa FFF7FEFF 		bl	sprintf
 494              	.LVL63:
 211:main.c        ****         UART_1_PutString(to_print);
 495              		.loc 1 211 0 discriminator 1
 496 02ae 1EA8     		add	r0, sp, #120
 497 02b0 FFF7FEFF 		bl	UART_1_PutString
 498              	.LVL64:
 212:main.c        ****         UART_1_PutString("\n\r");
 499              		.loc 1 212 0 discriminator 1
 500 02b4 3846     		mov	r0, r7
 501 02b6 FFF7FEFF 		bl	UART_1_PutString
 502              	.LVL65:
 213:main.c        ****         
 214:main.c        **** //        calc_hotp(0, key, 20);
 215:main.c        **** //        calc_hotp(1, key, 20);
 216:main.c        **** //        calc_hotp(2, key, 20);
 217:main.c        **** //        calc_hotp(3, key, 20);
 218:main.c        **** //        calc_hotp(4, key, 20);
 219:main.c        **** //        calc_hotp(5, key, 20);
 220:main.c        **** //        calc_hotp(6, key, 20);
 221:main.c        **** //        calc_hotp(7, key, 20);
 222:main.c        ****         
 223:main.c        ****         UART_1_PutString("\n\rTOTP Test: ");
 503              		.loc 1 223 0 discriminator 1
 504 02ba 3048     		ldr	r0, .L10+104
 505 02bc FFF7FEFF 		bl	UART_1_PutString
 506              	.LVL66:
 224:main.c        ****         char totpkey[20] = "12345678901234567890";
 507              		.loc 1 224 0 discriminator 1
 508 02c0 23AF     		add	r7, sp, #140
 509 02c2 3446     		mov	r4, r6
 510              	.LVL67:
 511 02c4 0FCC     		ldmia	r4!, {r0, r1, r2, r3}
 512 02c6 0FC7     		stmia	r7!, {r0, r1, r2, r3}
 513 02c8 2B68     		ldr	r3, [r5]
 514 02ca 3B60     		str	r3, [r7]
 225:main.c        ****         sprintf(to_print, "%d", calc_totp(59, totpkey, 20, 30, 0));
ARM GAS  C:\Users\bkettle\AppData\Local\Temp\ccs5dHXb.s 			page 14


 515              		.loc 1 225 0 discriminator 1
 516 02cc CDF80080 		str	r8, [sp]
 517 02d0 1E23     		movs	r3, #30
 518 02d2 4A46     		mov	r2, r9
 519 02d4 23A9     		add	r1, sp, #140
 520 02d6 3B20     		movs	r0, #59
 521 02d8 FFF7FEFF 		bl	calc_totp
 522              	.LVL68:
 523 02dc 0246     		mov	r2, r0
 524 02de 2849     		ldr	r1, .L10+108
 525 02e0 1EA8     		add	r0, sp, #120
 526 02e2 FFF7FEFF 		bl	sprintf
 527              	.LVL69:
 226:main.c        ****         UART_1_PutString(to_print);
 528              		.loc 1 226 0 discriminator 1
 529 02e6 1EA8     		add	r0, sp, #120
 530 02e8 FFF7FEFF 		bl	UART_1_PutString
 531              	.LVL70:
 227:main.c        ****         
 228:main.c        ****         
 229:main.c        ****         // quick endian test
 230:main.c        ****         // shows that LEAST significant byte is at index 0
 231:main.c        ****         uint16_t num = 1;
 532              		.loc 1 231 0 discriminator 1
 533 02ec 0123     		movs	r3, #1
 534 02ee ADF80E30 		strh	r3, [sp, #14]	@ movhi
 232:main.c        ****         UART_1_PutString("endian test: ");
 535              		.loc 1 232 0 discriminator 1
 536 02f2 2448     		ldr	r0, .L10+112
 537 02f4 FFF7FEFF 		bl	UART_1_PutString
 538              	.LVL71:
 233:main.c        ****         phex((unsigned char*) &num, 2);
 539              		.loc 1 233 0 discriminator 1
 540 02f8 0221     		movs	r1, #2
 541 02fa 0DF10E00 		add	r0, sp, #14
 542 02fe FFF7FEFF 		bl	phex
 543              	.LVL72:
 234:main.c        ****         
 235:main.c        ****         
 236:main.c        ****         UART_1_PutString("------\n\r");
 544              		.loc 1 236 0 discriminator 1
 545 0302 2148     		ldr	r0, .L10+116
 546 0304 FFF7FEFF 		bl	UART_1_PutString
 547              	.LVL73:
 237:main.c        ****         CyDelay(5000);
 548              		.loc 1 237 0 discriminator 1
 549 0308 41F28830 		movw	r0, #5000
 550 030c FFF7FEFF 		bl	CyDelay
 551              	.LVL74:
 552 0310 7DE6     		b	.L8
 553              	.L11:
 554 0312 00BF     		.align	2
 555              	.L10:
 556 0314 08000000 		.word	.LC3
 557 0318 0C000000 		.word	.LC4
 558 031c 0C010000 		.word	.LC5
 559 0320 14010000 		.word	.LC6
ARM GAS  C:\Users\bkettle\AppData\Local\Temp\ccs5dHXb.s 			page 15


 560 0324 1C000000 		.word	.LC7
 561 0328 2C000000 		.word	.LC8
 562 032c 00000000 		.word	.LANCHOR0
 563 0330 34010000 		.word	.LC9
 564 0334 30000000 		.word	.LC10
 565 0338 4C010000 		.word	.LC11
 566 033c 40000000 		.word	.LC12
 567 0340 84010000 		.word	.LC13
 568 0344 50000000 		.word	.LC14
 569 0348 60000000 		.word	.LC15
 570 034c 70000000 		.word	.LC16
 571 0350 D0010000 		.word	.LC17
 572 0354 80000000 		.word	.LC18
 573 0358 8C000000 		.word	.LC19
 574 035c A0000000 		.word	.LC20
 575 0360 A8000000 		.word	.LC21
 576 0364 B0000000 		.word	.LC22
 577 0368 C0000000 		.word	.LC23
 578 036c D0000000 		.word	.LC24
 579 0370 83DE1B43 		.word	1125899907
 580 0374 40420F00 		.word	1000000
 581 0378 D4000000 		.word	.LC25
 582 037c DC000000 		.word	.LC26
 583 0380 EC000000 		.word	.LC27
 584 0384 F0000000 		.word	.LC28
 585 0388 00010000 		.word	.LC29
 586              	.LBE3:
 587              		.cfi_endproc
 588              	.LFE65:
 589              		.size	main, .-main
 590              		.section	.rodata
 591              		.align	2
 592              		.set	.LANCHOR0,. + 0
 593              	.LC0:
 594 0000 0C       		.byte	12
 595 0001 0C       		.byte	12
 596 0002 0C       		.byte	12
 597 0003 0C       		.byte	12
 598 0004 0C       		.byte	12
 599 0005 0C       		.byte	12
 600 0006 0C       		.byte	12
 601 0007 0C       		.byte	12
 602 0008 0C       		.byte	12
 603 0009 0C       		.byte	12
 604 000a 0C       		.byte	12
 605 000b 0C       		.byte	12
 606 000c 0C       		.byte	12
 607 000d 0C       		.byte	12
 608 000e 0C       		.byte	12
 609 000f 0C       		.byte	12
 610 0010 0C       		.byte	12
 611 0011 0C       		.byte	12
 612 0012 0C       		.byte	12
 613 0013 0C       		.byte	12
 614              		.section	.rodata.str1.4,"aMS",%progbits,1
 615              		.align	2
 616              	.LC1:
ARM GAS  C:\Users\bkettle\AppData\Local\Temp\ccs5dHXb.s 			page 16


 617 0000 255800   		.ascii	"%X\000"
 618 0003 00       		.space	1
 619              	.LC2:
 620 0004 2000     		.ascii	" \000"
 621 0006 0000     		.space	2
 622              	.LC3:
 623 0008 00       		.ascii	"\000"
 624 0009 000000   		.space	3
 625              	.LC4:
 626 000c 0A0D5348 		.ascii	"\012\015SHA TEST 1: \000"
 626      41205445 
 626      53542031 
 626      3A2000
 627 001b 00       		.space	1
 628              	.LC7:
 629 001c 0A0D484D 		.ascii	"\012\015HMAC TEST 1: \000"
 629      41432054 
 629      45535420 
 629      313A2000 
 630              	.LC8:
 631 002c 0A0D00   		.ascii	"\012\015\000"
 632 002f 00       		.space	1
 633              	.LC10:
 634 0030 484D4143 		.ascii	"HMAC TEST 2: \000"
 634      20544553 
 634      5420323A 
 634      2000
 635 003e 0000     		.space	2
 636              	.LC12:
 637 0040 484D4143 		.ascii	"HMAC TEST 3: \000"
 637      20544553 
 637      5420333A 
 637      2000
 638 004e 0000     		.space	2
 639              	.LC14:
 640 0050 484D4143 		.ascii	"HMAC TEST 4: \000"
 640      20544553 
 640      5420343A 
 640      2000
 641 005e 0000     		.space	2
 642              	.LC15:
 643 0060 0A0D2048 		.ascii	"\012\015 HOTP TEST 1:\000"
 643      4F545020 
 643      54455354 
 643      20313A00 
 644              	.LC16:
 645 0070 0A0D2043 		.ascii	"\012\015 Count: 0x\000"
 645      6F756E74 
 645      3A203078 
 645      00
 646 007d 000000   		.space	3
 647              	.LC18:
 648 0080 204B6579 		.ascii	" Key: 0x\000"
 648      3A203078 
 648      00
 649 0089 000000   		.space	3
 650              	.LC19:
ARM GAS  C:\Users\bkettle\AppData\Local\Temp\ccs5dHXb.s 			page 17


 651 008c 0A0D484D 		.ascii	"\012\015HMAC Calculated: \000"
 651      41432043 
 651      616C6375 
 651      6C617465 
 651      643A2000 
 652              	.LC20:
 653 00a0 202D3E20 		.ascii	" -> %X \000"
 653      25582000 
 654              	.LC21:
 655 00a8 2558200A 		.ascii	"%X \012\015\000"
 655      0D00
 656 00ae 0000     		.space	2
 657              	.LC22:
 658 00b0 7472756E 		.ascii	"truncating: \000"
 658      63617469 
 658      6E673A20 
 658      00
 659 00bd 000000   		.space	3
 660              	.LC23:
 661 00c0 686F7470 		.ascii	"hotp value: \000"
 661      2076616C 
 661      75653A20 
 661      00
 662 00cd 000000   		.space	3
 663              	.LC24:
 664 00d0 25642000 		.ascii	"%d \000"
 665              	.LC25:
 666 00d4 2D3E2025 		.ascii	"-> %d\000"
 666      6400
 667 00da 0000     		.space	2
 668              	.LC26:
 669 00dc 0A0D544F 		.ascii	"\012\015TOTP Test: \000"
 669      54502054 
 669      6573743A 
 669      2000
 670 00ea 0000     		.space	2
 671              	.LC27:
 672 00ec 256400   		.ascii	"%d\000"
 673 00ef 00       		.space	1
 674              	.LC28:
 675 00f0 656E6469 		.ascii	"endian test: \000"
 675      616E2074 
 675      6573743A 
 675      2000
 676 00fe 0000     		.space	2
 677              	.LC29:
 678 0100 2D2D2D2D 		.ascii	"------\012\015\000"
 678      2D2D0A0D 
 678      00
 679 0109 000000   		.space	3
 680              	.LC5:
 681 010c 4A656665 		.ascii	"Jefe\000"
 681      00
 682 0111 000000   		.space	3
 683              	.LC6:
 684 0114 77686174 		.ascii	"what do ya want for nothing?\000"
 684      20646F20 
ARM GAS  C:\Users\bkettle\AppData\Local\Temp\ccs5dHXb.s 			page 18


 684      79612077 
 684      616E7420 
 684      666F7220 
 685 0131 000000   		.space	3
 686              	.LC9:
 687 0134 54657374 		.ascii	"Test With Truncation\000"
 687      20576974 
 687      68205472 
 687      756E6361 
 687      74696F6E 
 688 0149 000000   		.space	3
 689              	.LC11:
 690 014c 54657374 		.ascii	"Test Using Larger Than Block-Size Key - Hash Key Fi"
 690      20557369 
 690      6E67204C 
 690      61726765 
 690      72205468 
 691 017f 72737400 		.ascii	"rst\000"
 692 0183 00       		.space	1
 693              	.LC13:
 694 0184 54657374 		.ascii	"Test Using Larger Than Block-Size Key and Larger Th"
 694      20557369 
 694      6E67204C 
 694      61726765 
 694      72205468 
 695 01b7 616E204F 		.ascii	"an One Block-Size Data\000"
 695      6E652042 
 695      6C6F636B 
 695      2D53697A 
 695      65204461 
 696 01ce 0000     		.space	2
 697              	.LC17:
 698 01d0 31323334 		.ascii	"12345678901234567890\000"
 698      35363738 
 698      39303132 
 698      33343536 
 698      37383930 
 699              		.text
 700              	.Letext0:
 701              		.file 2 "c:\\program files (x86)\\cypress\\psoc creator\\4.3\\psoc creator\\import\\gnu\\arm\\5.4.
 702              		.file 3 "c:\\program files (x86)\\cypress\\psoc creator\\4.3\\psoc creator\\import\\gnu\\arm\\5.4.
 703              		.file 4 "c:\\program files (x86)\\cypress\\psoc creator\\4.3\\psoc creator\\import\\gnu\\arm\\5.4.
 704              		.file 5 "..\\lib\\psoc_totp/sha1.h"
 705              		.file 6 "c:\\program files (x86)\\cypress\\psoc creator\\4.3\\psoc creator\\import\\gnu\\arm\\5.4.
 706              		.file 7 "c:\\program files (x86)\\cypress\\psoc creator\\4.3\\psoc creator\\import\\gnu\\arm\\5.4.
 707              		.file 8 "Generated_Source\\PSoC5/UART_1.h"
 708              		.file 9 "c:\\program files (x86)\\cypress\\psoc creator\\4.3\\psoc creator\\import\\gnu\\arm\\5.4.
 709              		.file 10 "..\\lib\\psoc_totp/hmac.h"
 710              		.file 11 "..\\lib\\psoc_totp/otp.h"
 711              		.file 12 "Generated_Source\\PSoC5/CyLib.h"
 712              		.file 13 "Generated_Source\\PSoC5/core_cm3.h"