ARM GAS  C:\Users\bkettle\AppData\Local\Temp\cciuwqnJ.s 			page 1


   1              		.syntax unified
   2              		.cpu cortex-m3
   3              		.fpu softvfp
   4              		.eabi_attribute 20, 1
   5              		.eabi_attribute 21, 1
   6              		.eabi_attribute 23, 3
   7              		.eabi_attribute 24, 1
   8              		.eabi_attribute 25, 1
   9              		.eabi_attribute 26, 1
  10              		.eabi_attribute 30, 1
  11              		.eabi_attribute 34, 1
  12              		.eabi_attribute 18, 4
  13              		.thumb
  14              		.syntax unified
  15              		.file	"otp.c"
  16              		.text
  17              	.Ltext0:
  18              		.cfi_sections	.debug_frame
  19              		.section	.text.calc_hotp,"ax",%progbits
  20              		.align	2
  21              		.global	calc_hotp
  22              		.thumb
  23              		.thumb_func
  24              		.type	calc_hotp, %function
  25              	calc_hotp:
  26              	.LFB64:
  27              		.file 1 "..\\lib\\psoc_totp\\otp.c"
   1:..\lib\psoc_totp/otp.c **** // OTP implementation using HMAC
   2:..\lib\psoc_totp/otp.c **** // for a little endian system
   3:..\lib\psoc_totp/otp.c **** 
   4:..\lib\psoc_totp/otp.c **** #include "otp.h"
   5:..\lib\psoc_totp/otp.c **** #include "project.h"
   6:..\lib\psoc_totp/otp.c **** #include "hmac.h"
   7:..\lib\psoc_totp/otp.c **** #include <stdio.h>
   8:..\lib\psoc_totp/otp.c **** 
   9:..\lib\psoc_totp/otp.c **** // counter can be any integer, will be converted to 8 bytes
  10:..\lib\psoc_totp/otp.c **** int calc_hotp(int counter, char * key, int key_len) {
  28              		.loc 1 10 0
  29              		.cfi_startproc
  30              		@ args = 0, pretend = 0, frame = 40
  31              		@ frame_needed = 0, uses_anonymous_args = 0
  32              	.LVL0:
  33 0000 30B5     		push	{r4, r5, lr}
  34              		.cfi_def_cfa_offset 12
  35              		.cfi_offset 4, -12
  36              		.cfi_offset 5, -8
  37              		.cfi_offset 14, -4
  38 0002 8DB0     		sub	sp, sp, #52
  39              		.cfi_def_cfa_offset 64
  40 0004 0346     		mov	r3, r0
  41 0006 0846     		mov	r0, r1
  42              	.LVL1:
  43 0008 1146     		mov	r1, r2
  44              	.LVL2:
  11:..\lib\psoc_totp/otp.c ****     // I THINK THIS WORKS NOW
  12:..\lib\psoc_totp/otp.c ****     // HOTP
  13:..\lib\psoc_totp/otp.c ****     // right now only generates 6-digit ones but could do more
ARM GAS  C:\Users\bkettle\AppData\Local\Temp\cciuwqnJ.s 			page 2


  14:..\lib\psoc_totp/otp.c ****     //UART_1_PutString("\n\rHOTP FUNCTION: ");
  15:..\lib\psoc_totp/otp.c ****     uint64_t c_int = (uint64_t) counter; // convert counter to 8 Bytes
  45              		.loc 1 15 0
  46 000a DD17     		asrs	r5, r3, #31
  16:..\lib\psoc_totp/otp.c ****     c_int = __builtin_bswap64(c_int); // convert counter to big-endian
  47              		.loc 1 16 0
  48 000c 1BBA     		rev	r3, r3
  49              	.LVL3:
  50 000e 2ABA     		rev	r2, r5
  51              	.LVL4:
  52 0010 0A92     		str	r2, [sp, #40]
  53 0012 0B93     		str	r3, [sp, #44]
  54              	.LVL5:
  17:..\lib\psoc_totp/otp.c ****     unsigned char * c = (unsigned char *) &c_int; // get pointer to char array for thats
  18:..\lib\psoc_totp/otp.c ****     
  19:..\lib\psoc_totp/otp.c ****     
  20:..\lib\psoc_totp/otp.c ****  
  21:..\lib\psoc_totp/otp.c ****     //UART_1_PutString("\n\r Count: 0x");
  22:..\lib\psoc_totp/otp.c ****     //phex(c, 8);
  23:..\lib\psoc_totp/otp.c ****     //UART_1_PutString(" Key: 0x");
  24:..\lib\psoc_totp/otp.c ****     //phex(key, key_len);
  25:..\lib\psoc_totp/otp.c ****     unsigned char result[20];
  26:..\lib\psoc_totp/otp.c ****     uint rlen = 20;
  55              		.loc 1 26 0
  56 0014 1423     		movs	r3, #20
  57 0016 0493     		str	r3, [sp, #16]
  27:..\lib\psoc_totp/otp.c ****     hmac_sha1((uint8_t *) key, key_len, c, 8, result, &rlen);
  58              		.loc 1 27 0
  59 0018 04AB     		add	r3, sp, #16
  60 001a 0193     		str	r3, [sp, #4]
  61 001c 05AC     		add	r4, sp, #20
  62 001e 0094     		str	r4, [sp]
  63 0020 0823     		movs	r3, #8
  64 0022 0AAA     		add	r2, sp, #40
  65              	.LVL6:
  66 0024 FFF7FEFF 		bl	hmac_sha1
  67              	.LVL7:
  28:..\lib\psoc_totp/otp.c ****     //UART_1_PutString("\n\rHMAC Calculated: ");
  29:..\lib\psoc_totp/otp.c ****     //phex(result, 20);
  30:..\lib\psoc_totp/otp.c ****     
  31:..\lib\psoc_totp/otp.c ****     // CALCULATE OFFSET
  32:..\lib\psoc_totp/otp.c ****     //char tp[3];
  33:..\lib\psoc_totp/otp.c ****     //sprintf(tp, " -> %X ", result[19]);
  34:..\lib\psoc_totp/otp.c ****     //UART_1_PutString(tp);
  35:..\lib\psoc_totp/otp.c ****     // just take lower 4 bits of the last byte
  36:..\lib\psoc_totp/otp.c ****     uint8_t offset = (uint8_t) result[19] & 0xF;
  68              		.loc 1 36 0
  69 0028 9DF82710 		ldrb	r1, [sp, #39]	@ zero_extendqisi2
  70 002c 01F00F01 		and	r1, r1, #15
  71              	.LVL8:
  37:..\lib\psoc_totp/otp.c ****     //sprintf(tp, "%X \n\r", offset);
  38:..\lib\psoc_totp/otp.c ****     //UART_1_PutString(tp);
  39:..\lib\psoc_totp/otp.c ****     
  40:..\lib\psoc_totp/otp.c ****     // TRUNCATE
  41:..\lib\psoc_totp/otp.c ****     // take all but msb of result[offset]...result[offset+3]
  42:..\lib\psoc_totp/otp.c ****     char trunc[4];
  43:..\lib\psoc_totp/otp.c ****     //UART_1_PutString("truncating: ");
ARM GAS  C:\Users\bkettle\AppData\Local\Temp\cciuwqnJ.s 			page 3


  44:..\lib\psoc_totp/otp.c ****     strncpy(trunc, (char*) result+offset, 4);
  72              		.loc 1 44 0
  73 0030 0422     		movs	r2, #4
  74 0032 2144     		add	r1, r1, r4
  75              	.LVL9:
  76 0034 03A8     		add	r0, sp, #12
  77 0036 FFF7FEFF 		bl	strncpy
  78              	.LVL10:
  45:..\lib\psoc_totp/otp.c ****     //phex(trunc, 4);
  46:..\lib\psoc_totp/otp.c ****     // endianness determines whether this is trunc[0] or [3]
  47:..\lib\psoc_totp/otp.c ****     // this is little endian, so trunc[3] is msB I think
  48:..\lib\psoc_totp/otp.c ****     // delete most significant bit, could do this by anding with 0111111b too
  49:..\lib\psoc_totp/otp.c ****     trunc[0] = trunc[0] & 0x7F;
  79              		.loc 1 49 0
  80 003a 9DF80C30 		ldrb	r3, [sp, #12]	@ zero_extendqisi2
  81 003e 03F07F00 		and	r0, r3, #127
  50:..\lib\psoc_totp/otp.c ****     //phex(trunc, 4);
  51:..\lib\psoc_totp/otp.c ****     //UART_1_PutString("\n\r");
  52:..\lib\psoc_totp/otp.c ****     
  53:..\lib\psoc_totp/otp.c ****     // compute hotp value
  54:..\lib\psoc_totp/otp.c ****     //UART_1_PutString("hotp value: ");
  55:..\lib\psoc_totp/otp.c ****     // psoc little-endian, so we need to flip the order of bytes
  56:..\lib\psoc_totp/otp.c ****     // because algorithm treats it as big-endian
  57:..\lib\psoc_totp/otp.c ****     // nevermind that was messing it up!
  58:..\lib\psoc_totp/otp.c ****     // we just assign them as expected
  59:..\lib\psoc_totp/otp.c ****     uint32_t t_num = trunc[0] << 24 | trunc[1] << 16 | trunc[2] << 8 | trunc[3];
  82              		.loc 1 59 0
  83 0042 9DF80D30 		ldrb	r3, [sp, #13]	@ zero_extendqisi2
  84 0046 1B04     		lsls	r3, r3, #16
  85 0048 43EA0063 		orr	r3, r3, r0, lsl #24
  86 004c 9DF80E00 		ldrb	r0, [sp, #14]	@ zero_extendqisi2
  87 0050 43EA0023 		orr	r3, r3, r0, lsl #8
  88 0054 9DF80F00 		ldrb	r0, [sp, #15]	@ zero_extendqisi2
  89 0058 0343     		orrs	r3, r3, r0
  90              	.LVL11:
  60:..\lib\psoc_totp/otp.c ****     char to_print[20];
  61:..\lib\psoc_totp/otp.c ****     //sprintf(to_print, "%d ", t_num);
  62:..\lib\psoc_totp/otp.c ****     //UART_1_PutString(to_print);
  63:..\lib\psoc_totp/otp.c ****     // mod with 10^6 for a 6-digit number
  64:..\lib\psoc_totp/otp.c ****     uint32_t hotp_val = t_num % 1000000;
  91              		.loc 1 64 0
  92 005a 044A     		ldr	r2, .L3
  93 005c A2FB0312 		umull	r1, r2, r2, r3
  94 0060 920C     		lsrs	r2, r2, #18
  95              	.LVL12:
  65:..\lib\psoc_totp/otp.c ****     //sprintf(to_print, "-> %d", hotp_val);
  66:..\lib\psoc_totp/otp.c ****     //UART_1_PutString(to_print);
  67:..\lib\psoc_totp/otp.c ****     //UART_1_PutString("\n\r");
  68:..\lib\psoc_totp/otp.c ****     
  69:..\lib\psoc_totp/otp.c ****     return hotp_val;
  70:..\lib\psoc_totp/otp.c **** }
  96              		.loc 1 70 0
  97 0062 0348     		ldr	r0, .L3+4
  98 0064 00FB1230 		mls	r0, r0, r2, r3
  99              	.LVL13:
 100 0068 0DB0     		add	sp, sp, #52
 101              		.cfi_def_cfa_offset 12
ARM GAS  C:\Users\bkettle\AppData\Local\Temp\cciuwqnJ.s 			page 4


 102              		@ sp needed
 103 006a 30BD     		pop	{r4, r5, pc}
 104              	.LVL14:
 105              	.L4:
 106              		.align	2
 107              	.L3:
 108 006c 83DE1B43 		.word	1125899907
 109 0070 40420F00 		.word	1000000
 110              		.cfi_endproc
 111              	.LFE64:
 112              		.size	calc_hotp, .-calc_hotp
 113              		.section	.text.calc_totp,"ax",%progbits
 114              		.align	2
 115              		.global	calc_totp
 116              		.thumb
 117              		.thumb_func
 118              		.type	calc_totp, %function
 119              	calc_totp:
 120              	.LFB65:
  71:..\lib\psoc_totp/otp.c **** 
  72:..\lib\psoc_totp/otp.c **** int calc_totp(int unixtime, char* key, int key_len, int timestep, int T0) {
 121              		.loc 1 72 0
 122              		.cfi_startproc
 123              		@ args = 4, pretend = 0, frame = 0
 124              		@ frame_needed = 0, uses_anonymous_args = 0
 125              	.LVL15:
 126 0000 10B5     		push	{r4, lr}
 127              		.cfi_def_cfa_offset 8
 128              		.cfi_offset 4, -8
 129              		.cfi_offset 14, -4
  73:..\lib\psoc_totp/otp.c ****     // by default, timestep is 30 seconds and t0 is 0.
  74:..\lib\psoc_totp/otp.c ****     int T = (unixtime - T0) / timestep;
 130              		.loc 1 74 0
 131 0002 029C     		ldr	r4, [sp, #8]
 132 0004 001B     		subs	r0, r0, r4
 133              	.LVL16:
  75:..\lib\psoc_totp/otp.c ****     return calc_hotp(T, key, key_len);
 134              		.loc 1 75 0
 135 0006 90FBF3F0 		sdiv	r0, r0, r3
 136              	.LVL17:
 137 000a FFF7FEFF 		bl	calc_hotp
 138              	.LVL18:
  76:..\lib\psoc_totp/otp.c **** }...
 139              		.loc 1 76 0
 140 000e 10BD     		pop	{r4, pc}
 141              		.cfi_endproc
 142              	.LFE65:
 143              		.size	calc_totp, .-calc_totp
 144              		.text
 145              	.Letext0:
 146              		.file 2 "c:\\program files (x86)\\cypress\\psoc creator\\4.3\\psoc creator\\import\\gnu\\arm\\5.4.
 147              		.file 3 "c:\\program files (x86)\\cypress\\psoc creator\\4.3\\psoc creator\\import\\gnu\\arm\\5.4.
 148              		.file 4 "c:\\program files (x86)\\cypress\\psoc creator\\4.3\\psoc creator\\import\\gnu\\arm\\5.4.
 149              		.file 5 "..\\lib\\psoc_totp\\hmac.h"
 150              		.file 6 "c:\\program files (x86)\\cypress\\psoc creator\\4.3\\psoc creator\\import\\gnu\\arm\\5.4.
 151              		.file 7 "Generated_Source\\PSoC5/core_cm3.h"