ARM GAS  C:\Users\bkettle\AppData\Local\Temp\ccqz8R4u.s 			page 1


   1              		.syntax unified
   2              		.cpu cortex-m3
   3              		.fpu softvfp
   4              		.eabi_attribute 20, 1
   5              		.eabi_attribute 21, 1
   6              		.eabi_attribute 23, 3
   7              		.eabi_attribute 24, 1
   8              		.eabi_attribute 25, 1
   9              		.eabi_attribute 26, 1
  10              		.eabi_attribute 30, 1
  11              		.eabi_attribute 34, 1
  12              		.eabi_attribute 18, 4
  13              		.thumb
  14              		.syntax unified
  15              		.file	"sha384-512.c"
  16              		.text
  17              	.Ltext0:
  18              		.cfi_sections	.debug_frame
  19              		.section	.text.SHA384_512ProcessMessageBlock,"ax",%progbits
  20              		.align	2
  21              		.thumb
  22              		.thumb_func
  23              		.type	SHA384_512ProcessMessageBlock, %function
  24              	SHA384_512ProcessMessageBlock:
  25              	.LFB10:
  26              		.file 1 "..\\lib\\yubico-c-client\\sha384-512.c"
   1:..\lib\yubico-c-client/sha384-512.c **** /*************************** sha384-512.c ***************************/
   2:..\lib\yubico-c-client/sha384-512.c **** /********************* See RFC 4634 for details *********************/
   3:..\lib\yubico-c-client/sha384-512.c **** /*
   4:..\lib\yubico-c-client/sha384-512.c ****  * Description:
   5:..\lib\yubico-c-client/sha384-512.c ****  *   This file implements the Secure Hash Signature Standard
   6:..\lib\yubico-c-client/sha384-512.c ****  *   algorithms as defined in the National Institute of Standards
   7:..\lib\yubico-c-client/sha384-512.c ****  *   and Technology Federal Information Processing Standards
   8:..\lib\yubico-c-client/sha384-512.c ****  *   Publication (FIPS PUB) 180-1 published on April 17, 1995, 180-2
   9:..\lib\yubico-c-client/sha384-512.c ****  *   published on August 1, 2002, and the FIPS PUB 180-2 Change
  10:..\lib\yubico-c-client/sha384-512.c ****  *   Notice published on February 28, 2004.
  11:..\lib\yubico-c-client/sha384-512.c ****  *
  12:..\lib\yubico-c-client/sha384-512.c ****  *   A combined document showing all algorithms is available at
  13:..\lib\yubico-c-client/sha384-512.c ****  *       http://csrc.nist.gov/publications/fips/
  14:..\lib\yubico-c-client/sha384-512.c ****  *       fips180-2/fips180-2withchangenotice.pdf
  15:..\lib\yubico-c-client/sha384-512.c ****  *
  16:..\lib\yubico-c-client/sha384-512.c ****  *   The SHA-384 and SHA-512 algorithms produce 384-bit and 512-bit
  17:..\lib\yubico-c-client/sha384-512.c ****  *   message digests for a given data stream. It should take about
  18:..\lib\yubico-c-client/sha384-512.c ****  *   2**n steps to find a message with the same digest as a given
  19:..\lib\yubico-c-client/sha384-512.c ****  *   message and 2**(n/2) to find any two messages with the same
  20:..\lib\yubico-c-client/sha384-512.c ****  *   digest, when n is the digest size in bits. Therefore, this
  21:..\lib\yubico-c-client/sha384-512.c ****  *   algorithm can serve as a means of providing a
  22:..\lib\yubico-c-client/sha384-512.c ****  *   "fingerprint" for a message.
  23:..\lib\yubico-c-client/sha384-512.c ****  *
  24:..\lib\yubico-c-client/sha384-512.c ****  * Portability Issues:
  25:..\lib\yubico-c-client/sha384-512.c ****  *   SHA-384 and SHA-512 are defined in terms of 64-bit "words",
  26:..\lib\yubico-c-client/sha384-512.c ****  *   but if USE_32BIT_ONLY is #defined, this code is implemented in
  27:..\lib\yubico-c-client/sha384-512.c ****  *   terms of 32-bit "words". This code uses <stdint.h> (included
  28:..\lib\yubico-c-client/sha384-512.c ****  *   via "sha.h") to define the 64, 32 and 8 bit unsigned integer
  29:..\lib\yubico-c-client/sha384-512.c ****  *   types. If your C compiler does not support 64 bit unsigned
  30:..\lib\yubico-c-client/sha384-512.c ****  *   integers, and you do not #define USE_32BIT_ONLY, this code is
  31:..\lib\yubico-c-client/sha384-512.c ****  *   not appropriate.
ARM GAS  C:\Users\bkettle\AppData\Local\Temp\ccqz8R4u.s 			page 2


  32:..\lib\yubico-c-client/sha384-512.c ****  *
  33:..\lib\yubico-c-client/sha384-512.c ****  * Caveats:
  34:..\lib\yubico-c-client/sha384-512.c ****  *   SHA-384 and SHA-512 are designed to work with messages less
  35:..\lib\yubico-c-client/sha384-512.c ****  *   than 2^128 bits long. This implementation uses
  36:..\lib\yubico-c-client/sha384-512.c ****  *   SHA384/512Input() to hash the bits that are a multiple of the
  37:..\lib\yubico-c-client/sha384-512.c ****  *   size of an 8-bit character, and then uses SHA384/256FinalBits()
  38:..\lib\yubico-c-client/sha384-512.c ****  *   to hash the final few bits of the input.
  39:..\lib\yubico-c-client/sha384-512.c ****  *
  40:..\lib\yubico-c-client/sha384-512.c ****  */
  41:..\lib\yubico-c-client/sha384-512.c **** 
  42:..\lib\yubico-c-client/sha384-512.c **** #include "sha.h"
  43:..\lib\yubico-c-client/sha384-512.c **** #include "sha-private.h"
  44:..\lib\yubico-c-client/sha384-512.c **** 
  45:..\lib\yubico-c-client/sha384-512.c **** #ifdef USE_32BIT_ONLY
  46:..\lib\yubico-c-client/sha384-512.c **** /*
  47:..\lib\yubico-c-client/sha384-512.c ****  * Define 64-bit arithmetic in terms of 32-bit arithmetic.
  48:..\lib\yubico-c-client/sha384-512.c ****  * Each 64-bit number is represented in a 2-word array.
  49:..\lib\yubico-c-client/sha384-512.c ****  * All macros are defined such that the result is the last parameter.
  50:..\lib\yubico-c-client/sha384-512.c ****  */
  51:..\lib\yubico-c-client/sha384-512.c **** 
  52:..\lib\yubico-c-client/sha384-512.c **** /*
  53:..\lib\yubico-c-client/sha384-512.c ****  * Define shift, rotate left and rotate right functions
  54:..\lib\yubico-c-client/sha384-512.c ****  */
  55:..\lib\yubico-c-client/sha384-512.c **** #define SHA512_SHR(bits, word, ret) (                          \
  56:..\lib\yubico-c-client/sha384-512.c ****     /* (((uint64_t)((word))) >> (bits)) */                     \
  57:..\lib\yubico-c-client/sha384-512.c ****     (ret)[0] = (((bits) < 32) && ((bits) >= 0)) ?              \
  58:..\lib\yubico-c-client/sha384-512.c ****       ((word)[0] >> (bits)) : 0,                               \
  59:..\lib\yubico-c-client/sha384-512.c ****     (ret)[1] = ((bits) > 32) ? ((word)[0] >> ((bits) - 32)) :  \
  60:..\lib\yubico-c-client/sha384-512.c ****       ((bits) == 32) ? (word)[0] :                             \
  61:..\lib\yubico-c-client/sha384-512.c ****       ((bits) >= 0) ?                                          \
  62:..\lib\yubico-c-client/sha384-512.c ****         (((word)[0] << (32 - (bits))) |                        \
  63:..\lib\yubico-c-client/sha384-512.c ****         ((word)[1] >> (bits))) : 0 )
  64:..\lib\yubico-c-client/sha384-512.c **** 
  65:..\lib\yubico-c-client/sha384-512.c **** #define SHA512_SHL(bits, word, ret) (                          \
  66:..\lib\yubico-c-client/sha384-512.c ****     /* (((uint64_t)(word)) << (bits)) */                       \
  67:..\lib\yubico-c-client/sha384-512.c ****     (ret)[0] = ((bits) > 32) ? ((word)[1] << ((bits) - 32)) :  \
  68:..\lib\yubico-c-client/sha384-512.c ****          ((bits) == 32) ? (word)[1] :                          \
  69:..\lib\yubico-c-client/sha384-512.c ****          ((bits) >= 0) ?                                       \
  70:..\lib\yubico-c-client/sha384-512.c ****            (((word)[0] << (bits)) |                            \
  71:..\lib\yubico-c-client/sha384-512.c ****            ((word)[1] >> (32 - (bits)))) :                     \
  72:..\lib\yubico-c-client/sha384-512.c ****          0,                                                    \
  73:..\lib\yubico-c-client/sha384-512.c ****     (ret)[1] = (((bits) < 32) && ((bits) >= 0)) ?              \
  74:..\lib\yubico-c-client/sha384-512.c ****         ((word)[1] << (bits)) : 0 )
  75:..\lib\yubico-c-client/sha384-512.c **** 
  76:..\lib\yubico-c-client/sha384-512.c **** /*
  77:..\lib\yubico-c-client/sha384-512.c ****  * Define 64-bit OR
  78:..\lib\yubico-c-client/sha384-512.c ****  */
  79:..\lib\yubico-c-client/sha384-512.c **** #define SHA512_OR(word1, word2, ret) (                         \
  80:..\lib\yubico-c-client/sha384-512.c ****     (ret)[0] = (word1)[0] | (word2)[0],                        \
  81:..\lib\yubico-c-client/sha384-512.c ****     (ret)[1] = (word1)[1] | (word2)[1] )
  82:..\lib\yubico-c-client/sha384-512.c **** 
  83:..\lib\yubico-c-client/sha384-512.c **** /*
  84:..\lib\yubico-c-client/sha384-512.c ****  * Define 64-bit XOR
  85:..\lib\yubico-c-client/sha384-512.c ****  */
  86:..\lib\yubico-c-client/sha384-512.c **** #define SHA512_XOR(word1, word2, ret) (                        \
  87:..\lib\yubico-c-client/sha384-512.c ****     (ret)[0] = (word1)[0] ^ (word2)[0],                        \
  88:..\lib\yubico-c-client/sha384-512.c ****     (ret)[1] = (word1)[1] ^ (word2)[1] )
ARM GAS  C:\Users\bkettle\AppData\Local\Temp\ccqz8R4u.s 			page 3


  89:..\lib\yubico-c-client/sha384-512.c **** 
  90:..\lib\yubico-c-client/sha384-512.c **** /*
  91:..\lib\yubico-c-client/sha384-512.c ****  * Define 64-bit AND
  92:..\lib\yubico-c-client/sha384-512.c ****  */
  93:..\lib\yubico-c-client/sha384-512.c **** #define SHA512_AND(word1, word2, ret) (                        \
  94:..\lib\yubico-c-client/sha384-512.c ****     (ret)[0] = (word1)[0] & (word2)[0],                        \
  95:..\lib\yubico-c-client/sha384-512.c ****     (ret)[1] = (word1)[1] & (word2)[1] )
  96:..\lib\yubico-c-client/sha384-512.c **** 
  97:..\lib\yubico-c-client/sha384-512.c **** /*
  98:..\lib\yubico-c-client/sha384-512.c ****  * Define 64-bit TILDA
  99:..\lib\yubico-c-client/sha384-512.c ****  */
 100:..\lib\yubico-c-client/sha384-512.c **** #define SHA512_TILDA(word, ret)                                \
 101:..\lib\yubico-c-client/sha384-512.c ****   ( (ret)[0] = ~(word)[0], (ret)[1] = ~(word)[1] )
 102:..\lib\yubico-c-client/sha384-512.c **** 
 103:..\lib\yubico-c-client/sha384-512.c **** /*
 104:..\lib\yubico-c-client/sha384-512.c ****  * Define 64-bit ADD
 105:..\lib\yubico-c-client/sha384-512.c ****  */
 106:..\lib\yubico-c-client/sha384-512.c **** #define SHA512_ADD(word1, word2, ret) (                        \
 107:..\lib\yubico-c-client/sha384-512.c ****     (ret)[1] = (word1)[1], (ret)[1] += (word2)[1],             \
 108:..\lib\yubico-c-client/sha384-512.c ****     (ret)[0] = (word1)[0] + (word2)[0] + ((ret)[1] < (word1)[1]) )
 109:..\lib\yubico-c-client/sha384-512.c **** 
 110:..\lib\yubico-c-client/sha384-512.c **** /*
 111:..\lib\yubico-c-client/sha384-512.c ****  * Add the 4word value in word2 to word1.
 112:..\lib\yubico-c-client/sha384-512.c ****  */
 113:..\lib\yubico-c-client/sha384-512.c **** static uint32_t ADDTO4_temp, ADDTO4_temp2;
 114:..\lib\yubico-c-client/sha384-512.c **** #define SHA512_ADDTO4(word1, word2) (                          \
 115:..\lib\yubico-c-client/sha384-512.c ****     ADDTO4_temp = (word1)[3],                                  \
 116:..\lib\yubico-c-client/sha384-512.c ****     (word1)[3] += (word2)[3],                                  \
 117:..\lib\yubico-c-client/sha384-512.c ****     ADDTO4_temp2 = (word1)[2],                                 \
 118:..\lib\yubico-c-client/sha384-512.c ****     (word1)[2] += (word2)[2] + ((word1)[3] < ADDTO4_temp),     \
 119:..\lib\yubico-c-client/sha384-512.c ****     ADDTO4_temp = (word1)[1],                                  \
 120:..\lib\yubico-c-client/sha384-512.c ****     (word1)[1] += (word2)[1] + ((word1)[2] < ADDTO4_temp2),    \
 121:..\lib\yubico-c-client/sha384-512.c ****     (word1)[0] += (word2)[0] + ((word1)[1] < ADDTO4_temp) )
 122:..\lib\yubico-c-client/sha384-512.c **** 
 123:..\lib\yubico-c-client/sha384-512.c **** /*
 124:..\lib\yubico-c-client/sha384-512.c ****  * Add the 2word value in word2 to word1.
 125:..\lib\yubico-c-client/sha384-512.c ****  */
 126:..\lib\yubico-c-client/sha384-512.c **** static uint32_t ADDTO2_temp;
 127:..\lib\yubico-c-client/sha384-512.c **** #define SHA512_ADDTO2(word1, word2) (                          \
 128:..\lib\yubico-c-client/sha384-512.c ****     ADDTO2_temp = (word1)[1],                                  \
 129:..\lib\yubico-c-client/sha384-512.c ****     (word1)[1] += (word2)[1],                                  \
 130:..\lib\yubico-c-client/sha384-512.c ****     (word1)[0] += (word2)[0] + ((word1)[1] < ADDTO2_temp) )
 131:..\lib\yubico-c-client/sha384-512.c **** 
 132:..\lib\yubico-c-client/sha384-512.c **** /*
 133:..\lib\yubico-c-client/sha384-512.c ****  * SHA rotate   ((word >> bits) | (word << (64-bits)))
 134:..\lib\yubico-c-client/sha384-512.c ****  */
 135:..\lib\yubico-c-client/sha384-512.c **** static uint32_t ROTR_temp1[2], ROTR_temp2[2];
 136:..\lib\yubico-c-client/sha384-512.c **** #define SHA512_ROTR(bits, word, ret) (                         \
 137:..\lib\yubico-c-client/sha384-512.c ****     SHA512_SHR((bits), (word), ROTR_temp1),                    \
 138:..\lib\yubico-c-client/sha384-512.c ****     SHA512_SHL(64-(bits), (word), ROTR_temp2),                 \
 139:..\lib\yubico-c-client/sha384-512.c ****     SHA512_OR(ROTR_temp1, ROTR_temp2, (ret)) )
 140:..\lib\yubico-c-client/sha384-512.c **** 
 141:..\lib\yubico-c-client/sha384-512.c **** /*
 142:..\lib\yubico-c-client/sha384-512.c ****  * Define the SHA SIGMA and sigma macros
 143:..\lib\yubico-c-client/sha384-512.c ****  *  SHA512_ROTR(28,word) ^ SHA512_ROTR(34,word) ^ SHA512_ROTR(39,word)
 144:..\lib\yubico-c-client/sha384-512.c ****  */
 145:..\lib\yubico-c-client/sha384-512.c **** static uint32_t SIGMA0_temp1[2], SIGMA0_temp2[2],
ARM GAS  C:\Users\bkettle\AppData\Local\Temp\ccqz8R4u.s 			page 4


 146:..\lib\yubico-c-client/sha384-512.c ****   SIGMA0_temp3[2], SIGMA0_temp4[2];
 147:..\lib\yubico-c-client/sha384-512.c **** #define SHA512_SIGMA0(word, ret) (                             \
 148:..\lib\yubico-c-client/sha384-512.c ****     SHA512_ROTR(28, (word), SIGMA0_temp1),                     \
 149:..\lib\yubico-c-client/sha384-512.c ****     SHA512_ROTR(34, (word), SIGMA0_temp2),                     \
 150:..\lib\yubico-c-client/sha384-512.c ****     SHA512_ROTR(39, (word), SIGMA0_temp3),                     \
 151:..\lib\yubico-c-client/sha384-512.c ****     SHA512_XOR(SIGMA0_temp2, SIGMA0_temp3, SIGMA0_temp4),      \
 152:..\lib\yubico-c-client/sha384-512.c ****     SHA512_XOR(SIGMA0_temp1, SIGMA0_temp4, (ret)) )
 153:..\lib\yubico-c-client/sha384-512.c **** 
 154:..\lib\yubico-c-client/sha384-512.c **** /*
 155:..\lib\yubico-c-client/sha384-512.c ****  * SHA512_ROTR(14,word) ^ SHA512_ROTR(18,word) ^ SHA512_ROTR(41,word)
 156:..\lib\yubico-c-client/sha384-512.c ****  */
 157:..\lib\yubico-c-client/sha384-512.c **** static uint32_t SIGMA1_temp1[2], SIGMA1_temp2[2],
 158:..\lib\yubico-c-client/sha384-512.c ****   SIGMA1_temp3[2], SIGMA1_temp4[2];
 159:..\lib\yubico-c-client/sha384-512.c **** #define SHA512_SIGMA1(word, ret) (                             \
 160:..\lib\yubico-c-client/sha384-512.c ****     SHA512_ROTR(14, (word), SIGMA1_temp1),                     \
 161:..\lib\yubico-c-client/sha384-512.c ****     SHA512_ROTR(18, (word), SIGMA1_temp2),                     \
 162:..\lib\yubico-c-client/sha384-512.c ****     SHA512_ROTR(41, (word), SIGMA1_temp3),                     \
 163:..\lib\yubico-c-client/sha384-512.c ****     SHA512_XOR(SIGMA1_temp2, SIGMA1_temp3, SIGMA1_temp4),      \
 164:..\lib\yubico-c-client/sha384-512.c ****     SHA512_XOR(SIGMA1_temp1, SIGMA1_temp4, (ret)) )
 165:..\lib\yubico-c-client/sha384-512.c **** 
 166:..\lib\yubico-c-client/sha384-512.c **** /*
 167:..\lib\yubico-c-client/sha384-512.c ****  * (SHA512_ROTR( 1,word) ^ SHA512_ROTR( 8,word) ^ SHA512_SHR( 7,word))
 168:..\lib\yubico-c-client/sha384-512.c ****  */
 169:..\lib\yubico-c-client/sha384-512.c **** static uint32_t sigma0_temp1[2], sigma0_temp2[2],
 170:..\lib\yubico-c-client/sha384-512.c ****   sigma0_temp3[2], sigma0_temp4[2];
 171:..\lib\yubico-c-client/sha384-512.c **** #define SHA512_sigma0(word, ret) (                             \
 172:..\lib\yubico-c-client/sha384-512.c ****     SHA512_ROTR( 1, (word), sigma0_temp1),                     \
 173:..\lib\yubico-c-client/sha384-512.c ****     SHA512_ROTR( 8, (word), sigma0_temp2),                     \
 174:..\lib\yubico-c-client/sha384-512.c ****     SHA512_SHR( 7, (word), sigma0_temp3),                      \
 175:..\lib\yubico-c-client/sha384-512.c ****     SHA512_XOR(sigma0_temp2, sigma0_temp3, sigma0_temp4),      \
 176:..\lib\yubico-c-client/sha384-512.c ****     SHA512_XOR(sigma0_temp1, sigma0_temp4, (ret)) )
 177:..\lib\yubico-c-client/sha384-512.c **** 
 178:..\lib\yubico-c-client/sha384-512.c **** /*
 179:..\lib\yubico-c-client/sha384-512.c ****  * (SHA512_ROTR(19,word) ^ SHA512_ROTR(61,word) ^ SHA512_SHR( 6,word))
 180:..\lib\yubico-c-client/sha384-512.c ****  */
 181:..\lib\yubico-c-client/sha384-512.c **** static uint32_t sigma1_temp1[2], sigma1_temp2[2],
 182:..\lib\yubico-c-client/sha384-512.c ****   sigma1_temp3[2], sigma1_temp4[2];
 183:..\lib\yubico-c-client/sha384-512.c **** #define SHA512_sigma1(word, ret) (                             \
 184:..\lib\yubico-c-client/sha384-512.c ****     SHA512_ROTR(19, (word), sigma1_temp1),                     \
 185:..\lib\yubico-c-client/sha384-512.c ****     SHA512_ROTR(61, (word), sigma1_temp2),                     \
 186:..\lib\yubico-c-client/sha384-512.c ****     SHA512_SHR( 6, (word), sigma1_temp3),                      \
 187:..\lib\yubico-c-client/sha384-512.c ****     SHA512_XOR(sigma1_temp2, sigma1_temp3, sigma1_temp4),      \
 188:..\lib\yubico-c-client/sha384-512.c ****     SHA512_XOR(sigma1_temp1, sigma1_temp4, (ret)) )
 189:..\lib\yubico-c-client/sha384-512.c **** 
 190:..\lib\yubico-c-client/sha384-512.c **** #undef SHA_Ch
 191:..\lib\yubico-c-client/sha384-512.c **** #undef SHA_Maj
 192:..\lib\yubico-c-client/sha384-512.c **** 
 193:..\lib\yubico-c-client/sha384-512.c **** #ifndef USE_MODIFIED_MACROS
 194:..\lib\yubico-c-client/sha384-512.c **** /*
 195:..\lib\yubico-c-client/sha384-512.c ****  * These definitions are the ones used in FIPS-180-2, section 4.1.3
 196:..\lib\yubico-c-client/sha384-512.c ****  *  Ch(x,y,z)   ((x & y) ^ (~x & z))
 197:..\lib\yubico-c-client/sha384-512.c ****  */
 198:..\lib\yubico-c-client/sha384-512.c **** static uint32_t Ch_temp1[2], Ch_temp2[2], Ch_temp3[2];
 199:..\lib\yubico-c-client/sha384-512.c **** #define SHA_Ch(x, y, z, ret) (                                 \
 200:..\lib\yubico-c-client/sha384-512.c ****     SHA512_AND(x, y, Ch_temp1),                                \
 201:..\lib\yubico-c-client/sha384-512.c ****     SHA512_TILDA(x, Ch_temp2),                                 \
 202:..\lib\yubico-c-client/sha384-512.c ****     SHA512_AND(Ch_temp2, z, Ch_temp3),                         \
ARM GAS  C:\Users\bkettle\AppData\Local\Temp\ccqz8R4u.s 			page 5


 203:..\lib\yubico-c-client/sha384-512.c ****     SHA512_XOR(Ch_temp1, Ch_temp3, (ret)) )
 204:..\lib\yubico-c-client/sha384-512.c **** /*
 205:..\lib\yubico-c-client/sha384-512.c ****  *  Maj(x,y,z)  (((x)&(y)) ^ ((x)&(z)) ^ ((y)&(z)))
 206:..\lib\yubico-c-client/sha384-512.c ****  */
 207:..\lib\yubico-c-client/sha384-512.c **** static uint32_t Maj_temp1[2], Maj_temp2[2], Maj_temp3[2], Maj_temp4[2];
 208:..\lib\yubico-c-client/sha384-512.c **** #define SHA_Maj(x, y, z, ret) (                                \
 209:..\lib\yubico-c-client/sha384-512.c ****     SHA512_AND(x, y, Maj_temp1),                               \
 210:..\lib\yubico-c-client/sha384-512.c ****     SHA512_AND(x, z, Maj_temp2),                               \
 211:..\lib\yubico-c-client/sha384-512.c ****     SHA512_AND(y, z, Maj_temp3),                               \
 212:..\lib\yubico-c-client/sha384-512.c ****     SHA512_XOR(Maj_temp2, Maj_temp3, Maj_temp4),               \
 213:..\lib\yubico-c-client/sha384-512.c ****     SHA512_XOR(Maj_temp1, Maj_temp4, (ret)) )
 214:..\lib\yubico-c-client/sha384-512.c **** 
 215:..\lib\yubico-c-client/sha384-512.c **** #else /* !USE_32BIT_ONLY */
 216:..\lib\yubico-c-client/sha384-512.c **** /*
 217:..\lib\yubico-c-client/sha384-512.c ****  * These definitions are potentially faster equivalents for the ones
 218:..\lib\yubico-c-client/sha384-512.c ****  * used in FIPS-180-2, section 4.1.3.
 219:..\lib\yubico-c-client/sha384-512.c ****  *   ((x & y) ^ (~x & z)) becomes
 220:..\lib\yubico-c-client/sha384-512.c ****  *   ((x & (y ^ z)) ^ z)
 221:..\lib\yubico-c-client/sha384-512.c ****  */
 222:..\lib\yubico-c-client/sha384-512.c **** #define SHA_Ch(x, y, z, ret) (                                 \
 223:..\lib\yubico-c-client/sha384-512.c ****    (ret)[0] = (((x)[0] & ((y)[0] ^ (z)[0])) ^ (z)[0]),         \
 224:..\lib\yubico-c-client/sha384-512.c ****    (ret)[1] = (((x)[1] & ((y)[1] ^ (z)[1])) ^ (z)[1]) )
 225:..\lib\yubico-c-client/sha384-512.c **** 
 226:..\lib\yubico-c-client/sha384-512.c **** /*
 227:..\lib\yubico-c-client/sha384-512.c ****  *   ((x & y) ^ (x & z) ^ (y & z)) becomes
 228:..\lib\yubico-c-client/sha384-512.c ****  *   ((x & (y | z)) | (y & z))
 229:..\lib\yubico-c-client/sha384-512.c ****  */
 230:..\lib\yubico-c-client/sha384-512.c **** #define SHA_Maj(x, y, z, ret) (                                 \
 231:..\lib\yubico-c-client/sha384-512.c ****    ret[0] = (((x)[0] & ((y)[0] | (z)[0])) | ((y)[0] & (z)[0])), \
 232:..\lib\yubico-c-client/sha384-512.c ****    ret[1] = (((x)[1] & ((y)[1] | (z)[1])) | ((y)[1] & (z)[1])) )
 233:..\lib\yubico-c-client/sha384-512.c **** #endif /* USE_MODIFIED_MACROS */
 234:..\lib\yubico-c-client/sha384-512.c **** 
 235:..\lib\yubico-c-client/sha384-512.c **** /*
 236:..\lib\yubico-c-client/sha384-512.c ****  * add "length" to the length
 237:..\lib\yubico-c-client/sha384-512.c ****  */
 238:..\lib\yubico-c-client/sha384-512.c **** static uint32_t addTemp[4] = { 0, 0, 0, 0 };
 239:..\lib\yubico-c-client/sha384-512.c **** 
 240:..\lib\yubico-c-client/sha384-512.c **** #define SHA384_512AddLength(context, length) (                        \
 241:..\lib\yubico-c-client/sha384-512.c ****     addTemp[3] = (length), SHA512_ADDTO4((context)->Length, addTemp), \
 242:..\lib\yubico-c-client/sha384-512.c ****     (context)->Corrupted = (((context)->Length[3] == 0) &&            \
 243:..\lib\yubico-c-client/sha384-512.c ****        ((context)->Length[2] == 0) && ((context)->Length[1] == 0) &&  \
 244:..\lib\yubico-c-client/sha384-512.c ****        ((context)->Length[0] < 8)) ? 1 : 0 )
 245:..\lib\yubico-c-client/sha384-512.c **** 
 246:..\lib\yubico-c-client/sha384-512.c **** /* Local Function Prototypes */
 247:..\lib\yubico-c-client/sha384-512.c **** static void SHA384_512Finalize (SHA512Context * context, uint8_t Pad_Byte);
 248:..\lib\yubico-c-client/sha384-512.c **** static void SHA384_512PadMessage (SHA512Context * context, uint8_t Pad_Byte);
 249:..\lib\yubico-c-client/sha384-512.c **** static void SHA384_512ProcessMessageBlock (SHA512Context * context);
 250:..\lib\yubico-c-client/sha384-512.c **** static int SHA384_512Reset (SHA512Context * context, uint32_t H0[]);
 251:..\lib\yubico-c-client/sha384-512.c **** static int SHA384_512ResultN (SHA512Context * context,
 252:..\lib\yubico-c-client/sha384-512.c **** 			      uint8_t Message_Digest[], int HashSize);
 253:..\lib\yubico-c-client/sha384-512.c **** 
 254:..\lib\yubico-c-client/sha384-512.c **** /* Initial Hash Values: FIPS-180-2 sections 5.3.3 and 5.3.4 */
 255:..\lib\yubico-c-client/sha384-512.c **** static uint32_t SHA384_H0[SHA512HashSize / 4] = {
 256:..\lib\yubico-c-client/sha384-512.c ****   0xCBBB9D5D, 0xC1059ED8, 0x629A292A, 0x367CD507, 0x9159015A,
 257:..\lib\yubico-c-client/sha384-512.c ****   0x3070DD17, 0x152FECD8, 0xF70E5939, 0x67332667, 0xFFC00B31,
 258:..\lib\yubico-c-client/sha384-512.c ****   0x8EB44A87, 0x68581511, 0xDB0C2E0D, 0x64F98FA7, 0x47B5481D,
 259:..\lib\yubico-c-client/sha384-512.c ****   0xBEFA4FA4
ARM GAS  C:\Users\bkettle\AppData\Local\Temp\ccqz8R4u.s 			page 6


 260:..\lib\yubico-c-client/sha384-512.c **** };
 261:..\lib\yubico-c-client/sha384-512.c **** 
 262:..\lib\yubico-c-client/sha384-512.c **** static uint32_t SHA512_H0[SHA512HashSize / 4] = {
 263:..\lib\yubico-c-client/sha384-512.c ****   0x6A09E667, 0xF3BCC908, 0xBB67AE85, 0x84CAA73B, 0x3C6EF372,
 264:..\lib\yubico-c-client/sha384-512.c ****   0xFE94F82B, 0xA54FF53A, 0x5F1D36F1, 0x510E527F, 0xADE682D1,
 265:..\lib\yubico-c-client/sha384-512.c ****   0x9B05688C, 0x2B3E6C1F, 0x1F83D9AB, 0xFB41BD6B, 0x5BE0CD19,
 266:..\lib\yubico-c-client/sha384-512.c ****   0x137E2179
 267:..\lib\yubico-c-client/sha384-512.c **** };
 268:..\lib\yubico-c-client/sha384-512.c **** 
 269:..\lib\yubico-c-client/sha384-512.c **** #else /* !USE_32BIT_ONLY */
 270:..\lib\yubico-c-client/sha384-512.c **** 
 271:..\lib\yubico-c-client/sha384-512.c **** /* Define the SHA shift, rotate left and rotate right macro */
 272:..\lib\yubico-c-client/sha384-512.c **** #define SHA512_SHR(bits,word)  (((uint64_t)(word)) >> (bits))
 273:..\lib\yubico-c-client/sha384-512.c **** #define SHA512_ROTR(bits,word) ((((uint64_t)(word)) >> (bits)) | \
 274:..\lib\yubico-c-client/sha384-512.c ****                                 (((uint64_t)(word)) << (64-(bits))))
 275:..\lib\yubico-c-client/sha384-512.c **** 
 276:..\lib\yubico-c-client/sha384-512.c **** /* Define the SHA SIGMA and sigma macros */
 277:..\lib\yubico-c-client/sha384-512.c **** #define SHA512_SIGMA0(word)   \
 278:..\lib\yubico-c-client/sha384-512.c ****  (SHA512_ROTR(28,word) ^ SHA512_ROTR(34,word) ^ SHA512_ROTR(39,word))
 279:..\lib\yubico-c-client/sha384-512.c **** #define SHA512_SIGMA1(word)   \
 280:..\lib\yubico-c-client/sha384-512.c ****  (SHA512_ROTR(14,word) ^ SHA512_ROTR(18,word) ^ SHA512_ROTR(41,word))
 281:..\lib\yubico-c-client/sha384-512.c **** #define SHA512_sigma0(word)   \
 282:..\lib\yubico-c-client/sha384-512.c ****  (SHA512_ROTR( 1,word) ^ SHA512_ROTR( 8,word) ^ SHA512_SHR( 7,word))
 283:..\lib\yubico-c-client/sha384-512.c **** #define SHA512_sigma1(word)   \
 284:..\lib\yubico-c-client/sha384-512.c ****  (SHA512_ROTR(19,word) ^ SHA512_ROTR(61,word) ^ SHA512_SHR( 6,word))
 285:..\lib\yubico-c-client/sha384-512.c **** 
 286:..\lib\yubico-c-client/sha384-512.c **** /*
 287:..\lib\yubico-c-client/sha384-512.c ****  * add "length" to the length
 288:..\lib\yubico-c-client/sha384-512.c ****  */
 289:..\lib\yubico-c-client/sha384-512.c **** static uint64_t addTemp;
 290:..\lib\yubico-c-client/sha384-512.c **** #define SHA384_512AddLength(context, length)                   \
 291:..\lib\yubico-c-client/sha384-512.c ****    (addTemp = context->Length_Low, context->Corrupted =        \
 292:..\lib\yubico-c-client/sha384-512.c ****     ((context->Length_Low += length) < addTemp) &&             \
 293:..\lib\yubico-c-client/sha384-512.c ****     (++context->Length_High == 0) ? 1 : 0)
 294:..\lib\yubico-c-client/sha384-512.c **** 
 295:..\lib\yubico-c-client/sha384-512.c **** /* Local Function Prototypes */
 296:..\lib\yubico-c-client/sha384-512.c **** static void SHA384_512Finalize (SHA512Context * context, uint8_t Pad_Byte);
 297:..\lib\yubico-c-client/sha384-512.c **** static void SHA384_512PadMessage (SHA512Context * context, uint8_t Pad_Byte);
 298:..\lib\yubico-c-client/sha384-512.c **** static void SHA384_512ProcessMessageBlock (SHA512Context * context);
 299:..\lib\yubico-c-client/sha384-512.c **** static int SHA384_512Reset (SHA512Context * context, uint64_t H0[]);
 300:..\lib\yubico-c-client/sha384-512.c **** static int SHA384_512ResultN (SHA512Context * context,
 301:..\lib\yubico-c-client/sha384-512.c **** 			      uint8_t Message_Digest[], int HashSize);
 302:..\lib\yubico-c-client/sha384-512.c **** 
 303:..\lib\yubico-c-client/sha384-512.c **** /* Initial Hash Values: FIPS-180-2 sections 5.3.3 and 5.3.4 */
 304:..\lib\yubico-c-client/sha384-512.c **** static uint64_t SHA384_H0[] = {
 305:..\lib\yubico-c-client/sha384-512.c ****   0xCBBB9D5DC1059ED8ll, 0x629A292A367CD507ll, 0x9159015A3070DD17ll,
 306:..\lib\yubico-c-client/sha384-512.c ****   0x152FECD8F70E5939ll, 0x67332667FFC00B31ll, 0x8EB44A8768581511ll,
 307:..\lib\yubico-c-client/sha384-512.c ****   0xDB0C2E0D64F98FA7ll, 0x47B5481DBEFA4FA4ll
 308:..\lib\yubico-c-client/sha384-512.c **** };
 309:..\lib\yubico-c-client/sha384-512.c **** 
 310:..\lib\yubico-c-client/sha384-512.c **** static uint64_t SHA512_H0[] = {
 311:..\lib\yubico-c-client/sha384-512.c ****   0x6A09E667F3BCC908ll, 0xBB67AE8584CAA73Bll, 0x3C6EF372FE94F82Bll,
 312:..\lib\yubico-c-client/sha384-512.c ****   0xA54FF53A5F1D36F1ll, 0x510E527FADE682D1ll, 0x9B05688C2B3E6C1Fll,
 313:..\lib\yubico-c-client/sha384-512.c ****   0x1F83D9ABFB41BD6Bll, 0x5BE0CD19137E2179ll
 314:..\lib\yubico-c-client/sha384-512.c **** };
 315:..\lib\yubico-c-client/sha384-512.c **** 
 316:..\lib\yubico-c-client/sha384-512.c **** #endif /* USE_32BIT_ONLY */
ARM GAS  C:\Users\bkettle\AppData\Local\Temp\ccqz8R4u.s 			page 7


 317:..\lib\yubico-c-client/sha384-512.c **** 
 318:..\lib\yubico-c-client/sha384-512.c **** /*
 319:..\lib\yubico-c-client/sha384-512.c ****  * SHA384Reset
 320:..\lib\yubico-c-client/sha384-512.c ****  *
 321:..\lib\yubico-c-client/sha384-512.c ****  * Description:
 322:..\lib\yubico-c-client/sha384-512.c ****  *   This function will initialize the SHA384Context in preparation
 323:..\lib\yubico-c-client/sha384-512.c ****  *   for computing a new SHA384 message digest.
 324:..\lib\yubico-c-client/sha384-512.c ****  *
 325:..\lib\yubico-c-client/sha384-512.c ****  * Parameters:
 326:..\lib\yubico-c-client/sha384-512.c ****  *   context: [in/out]
 327:..\lib\yubico-c-client/sha384-512.c ****  *     The context to reset.
 328:..\lib\yubico-c-client/sha384-512.c ****  *
 329:..\lib\yubico-c-client/sha384-512.c ****  * Returns:
 330:..\lib\yubico-c-client/sha384-512.c ****  *   sha Error Code.
 331:..\lib\yubico-c-client/sha384-512.c ****  *
 332:..\lib\yubico-c-client/sha384-512.c ****  */
 333:..\lib\yubico-c-client/sha384-512.c **** int
 334:..\lib\yubico-c-client/sha384-512.c **** SHA384Reset (SHA384Context * context)
 335:..\lib\yubico-c-client/sha384-512.c **** {
 336:..\lib\yubico-c-client/sha384-512.c ****   return SHA384_512Reset (context, SHA384_H0);
 337:..\lib\yubico-c-client/sha384-512.c **** }
 338:..\lib\yubico-c-client/sha384-512.c **** 
 339:..\lib\yubico-c-client/sha384-512.c **** /*
 340:..\lib\yubico-c-client/sha384-512.c ****  * SHA384Input
 341:..\lib\yubico-c-client/sha384-512.c ****  *
 342:..\lib\yubico-c-client/sha384-512.c ****  * Description:
 343:..\lib\yubico-c-client/sha384-512.c ****  *   This function accepts an array of octets as the next portion
 344:..\lib\yubico-c-client/sha384-512.c ****  *   of the message.
 345:..\lib\yubico-c-client/sha384-512.c ****  *
 346:..\lib\yubico-c-client/sha384-512.c ****  * Parameters:
 347:..\lib\yubico-c-client/sha384-512.c ****  *   context: [in/out]
 348:..\lib\yubico-c-client/sha384-512.c ****  *     The SHA context to update
 349:..\lib\yubico-c-client/sha384-512.c ****  *   message_array: [in]
 350:..\lib\yubico-c-client/sha384-512.c ****  *     An array of characters representing the next portion of
 351:..\lib\yubico-c-client/sha384-512.c ****  *     the message.
 352:..\lib\yubico-c-client/sha384-512.c ****  *   length: [in]
 353:..\lib\yubico-c-client/sha384-512.c ****  *     The length of the message in message_array
 354:..\lib\yubico-c-client/sha384-512.c ****  *
 355:..\lib\yubico-c-client/sha384-512.c ****  * Returns:
 356:..\lib\yubico-c-client/sha384-512.c ****  *   sha Error Code.
 357:..\lib\yubico-c-client/sha384-512.c ****  *
 358:..\lib\yubico-c-client/sha384-512.c ****  */
 359:..\lib\yubico-c-client/sha384-512.c **** int
 360:..\lib\yubico-c-client/sha384-512.c **** SHA384Input (SHA384Context * context,
 361:..\lib\yubico-c-client/sha384-512.c **** 	     const uint8_t * message_array, unsigned int length)
 362:..\lib\yubico-c-client/sha384-512.c **** {
 363:..\lib\yubico-c-client/sha384-512.c ****   return SHA512Input (context, message_array, length);
 364:..\lib\yubico-c-client/sha384-512.c **** }
 365:..\lib\yubico-c-client/sha384-512.c **** 
 366:..\lib\yubico-c-client/sha384-512.c **** /*
 367:..\lib\yubico-c-client/sha384-512.c ****  * SHA384FinalBits
 368:..\lib\yubico-c-client/sha384-512.c ****  *
 369:..\lib\yubico-c-client/sha384-512.c ****  * Description:
 370:..\lib\yubico-c-client/sha384-512.c ****  *   This function will add in any final bits of the message.
 371:..\lib\yubico-c-client/sha384-512.c ****  *
 372:..\lib\yubico-c-client/sha384-512.c ****  * Parameters:
 373:..\lib\yubico-c-client/sha384-512.c ****  *   context: [in/out]
ARM GAS  C:\Users\bkettle\AppData\Local\Temp\ccqz8R4u.s 			page 8


 374:..\lib\yubico-c-client/sha384-512.c ****  *     The SHA context to update
 375:..\lib\yubico-c-client/sha384-512.c ****  *   message_bits: [in]
 376:..\lib\yubico-c-client/sha384-512.c ****  *     The final bits of the message, in the upper portion of the
 377:..\lib\yubico-c-client/sha384-512.c ****  *     byte. (Use 0b###00000 instead of 0b00000### to input the
 378:..\lib\yubico-c-client/sha384-512.c ****  *     three bits ###.)
 379:..\lib\yubico-c-client/sha384-512.c ****  *   length: [in]
 380:..\lib\yubico-c-client/sha384-512.c ****  *     The number of bits in message_bits, between 1 and 7.
 381:..\lib\yubico-c-client/sha384-512.c ****  *
 382:..\lib\yubico-c-client/sha384-512.c ****  * Returns:
 383:..\lib\yubico-c-client/sha384-512.c ****  *   sha Error Code.
 384:..\lib\yubico-c-client/sha384-512.c ****  *
 385:..\lib\yubico-c-client/sha384-512.c ****  */
 386:..\lib\yubico-c-client/sha384-512.c **** int
 387:..\lib\yubico-c-client/sha384-512.c **** SHA384FinalBits (SHA384Context * context,
 388:..\lib\yubico-c-client/sha384-512.c **** 		 const uint8_t message_bits, unsigned int length)
 389:..\lib\yubico-c-client/sha384-512.c **** {
 390:..\lib\yubico-c-client/sha384-512.c ****   return SHA512FinalBits (context, message_bits, length);
 391:..\lib\yubico-c-client/sha384-512.c **** }
 392:..\lib\yubico-c-client/sha384-512.c **** 
 393:..\lib\yubico-c-client/sha384-512.c **** /*
 394:..\lib\yubico-c-client/sha384-512.c ****  * SHA384Result
 395:..\lib\yubico-c-client/sha384-512.c ****  *
 396:..\lib\yubico-c-client/sha384-512.c ****  * Description:
 397:..\lib\yubico-c-client/sha384-512.c ****  *   This function will return the 384-bit message
 398:..\lib\yubico-c-client/sha384-512.c ****  *   digest into the Message_Digest array provided by the caller.
 399:..\lib\yubico-c-client/sha384-512.c ****  *   NOTE: The first octet of hash is stored in the 0th element,
 400:..\lib\yubico-c-client/sha384-512.c ****  *      the last octet of hash in the 48th element.
 401:..\lib\yubico-c-client/sha384-512.c ****  *
 402:..\lib\yubico-c-client/sha384-512.c ****  * Parameters:
 403:..\lib\yubico-c-client/sha384-512.c ****  *   context: [in/out]
 404:..\lib\yubico-c-client/sha384-512.c ****  *     The context to use to calculate the SHA hash.
 405:..\lib\yubico-c-client/sha384-512.c ****  *   Message_Digest: [out]
 406:..\lib\yubico-c-client/sha384-512.c ****  *     Where the digest is returned.
 407:..\lib\yubico-c-client/sha384-512.c ****  *
 408:..\lib\yubico-c-client/sha384-512.c ****  * Returns:
 409:..\lib\yubico-c-client/sha384-512.c ****  *   sha Error Code.
 410:..\lib\yubico-c-client/sha384-512.c ****  *
 411:..\lib\yubico-c-client/sha384-512.c ****  */
 412:..\lib\yubico-c-client/sha384-512.c **** int
 413:..\lib\yubico-c-client/sha384-512.c **** SHA384Result (SHA384Context * context, uint8_t Message_Digest[SHA384HashSize])
 414:..\lib\yubico-c-client/sha384-512.c **** {
 415:..\lib\yubico-c-client/sha384-512.c ****   return SHA384_512ResultN (context, Message_Digest, SHA384HashSize);
 416:..\lib\yubico-c-client/sha384-512.c **** }
 417:..\lib\yubico-c-client/sha384-512.c **** 
 418:..\lib\yubico-c-client/sha384-512.c **** /*
 419:..\lib\yubico-c-client/sha384-512.c ****  * SHA512Reset
 420:..\lib\yubico-c-client/sha384-512.c ****  *
 421:..\lib\yubico-c-client/sha384-512.c ****  * Description:
 422:..\lib\yubico-c-client/sha384-512.c ****  *   This function will initialize the SHA512Context in preparation
 423:..\lib\yubico-c-client/sha384-512.c ****  *   for computing a new SHA512 message digest.
 424:..\lib\yubico-c-client/sha384-512.c ****  *
 425:..\lib\yubico-c-client/sha384-512.c ****  * Parameters:
 426:..\lib\yubico-c-client/sha384-512.c ****  *   context: [in/out]
 427:..\lib\yubico-c-client/sha384-512.c ****  *     The context to reset.
 428:..\lib\yubico-c-client/sha384-512.c ****  *
 429:..\lib\yubico-c-client/sha384-512.c ****  * Returns:
 430:..\lib\yubico-c-client/sha384-512.c ****  *   sha Error Code.
ARM GAS  C:\Users\bkettle\AppData\Local\Temp\ccqz8R4u.s 			page 9


 431:..\lib\yubico-c-client/sha384-512.c ****  *
 432:..\lib\yubico-c-client/sha384-512.c ****  */
 433:..\lib\yubico-c-client/sha384-512.c **** int
 434:..\lib\yubico-c-client/sha384-512.c **** SHA512Reset (SHA512Context * context)
 435:..\lib\yubico-c-client/sha384-512.c **** {
 436:..\lib\yubico-c-client/sha384-512.c ****   return SHA384_512Reset (context, SHA512_H0);
 437:..\lib\yubico-c-client/sha384-512.c **** }
 438:..\lib\yubico-c-client/sha384-512.c **** 
 439:..\lib\yubico-c-client/sha384-512.c **** /*
 440:..\lib\yubico-c-client/sha384-512.c ****  * SHA512Input
 441:..\lib\yubico-c-client/sha384-512.c ****  *
 442:..\lib\yubico-c-client/sha384-512.c ****  * Description:
 443:..\lib\yubico-c-client/sha384-512.c ****  *   This function accepts an array of octets as the next portion
 444:..\lib\yubico-c-client/sha384-512.c ****  *   of the message.
 445:..\lib\yubico-c-client/sha384-512.c ****  *
 446:..\lib\yubico-c-client/sha384-512.c ****  * Parameters:
 447:..\lib\yubico-c-client/sha384-512.c ****  *   context: [in/out]
 448:..\lib\yubico-c-client/sha384-512.c ****  *     The SHA context to update
 449:..\lib\yubico-c-client/sha384-512.c ****  *   message_array: [in]
 450:..\lib\yubico-c-client/sha384-512.c ****  *     An array of characters representing the next portion of
 451:..\lib\yubico-c-client/sha384-512.c ****  *     the message.
 452:..\lib\yubico-c-client/sha384-512.c ****  *   length: [in]
 453:..\lib\yubico-c-client/sha384-512.c ****  *     The length of the message in message_array
 454:..\lib\yubico-c-client/sha384-512.c ****  *
 455:..\lib\yubico-c-client/sha384-512.c ****  * Returns:
 456:..\lib\yubico-c-client/sha384-512.c ****  *   sha Error Code.
 457:..\lib\yubico-c-client/sha384-512.c ****  *
 458:..\lib\yubico-c-client/sha384-512.c ****  */
 459:..\lib\yubico-c-client/sha384-512.c **** int
 460:..\lib\yubico-c-client/sha384-512.c **** SHA512Input (SHA512Context * context,
 461:..\lib\yubico-c-client/sha384-512.c **** 	     const uint8_t * message_array, unsigned int length)
 462:..\lib\yubico-c-client/sha384-512.c **** {
 463:..\lib\yubico-c-client/sha384-512.c ****   if (!length)
 464:..\lib\yubico-c-client/sha384-512.c ****     return shaSuccess;
 465:..\lib\yubico-c-client/sha384-512.c **** 
 466:..\lib\yubico-c-client/sha384-512.c ****   if (!context || !message_array)
 467:..\lib\yubico-c-client/sha384-512.c ****     return shaNull;
 468:..\lib\yubico-c-client/sha384-512.c **** 
 469:..\lib\yubico-c-client/sha384-512.c ****   if (context->Computed)
 470:..\lib\yubico-c-client/sha384-512.c ****     {
 471:..\lib\yubico-c-client/sha384-512.c ****       context->Corrupted = shaStateError;
 472:..\lib\yubico-c-client/sha384-512.c ****       return shaStateError;
 473:..\lib\yubico-c-client/sha384-512.c ****     }
 474:..\lib\yubico-c-client/sha384-512.c **** 
 475:..\lib\yubico-c-client/sha384-512.c ****   if (context->Corrupted)
 476:..\lib\yubico-c-client/sha384-512.c ****     return context->Corrupted;
 477:..\lib\yubico-c-client/sha384-512.c **** 
 478:..\lib\yubico-c-client/sha384-512.c ****   while (length-- && !context->Corrupted)
 479:..\lib\yubico-c-client/sha384-512.c ****     {
 480:..\lib\yubico-c-client/sha384-512.c ****       context->Message_Block[context->Message_Block_Index++] =
 481:..\lib\yubico-c-client/sha384-512.c **** 	(*message_array & 0xFF);
 482:..\lib\yubico-c-client/sha384-512.c **** 
 483:..\lib\yubico-c-client/sha384-512.c ****       if (!SHA384_512AddLength (context, 8) &&
 484:..\lib\yubico-c-client/sha384-512.c **** 	  (context->Message_Block_Index == SHA512_Message_Block_Size))
 485:..\lib\yubico-c-client/sha384-512.c **** 	SHA384_512ProcessMessageBlock (context);
 486:..\lib\yubico-c-client/sha384-512.c **** 
 487:..\lib\yubico-c-client/sha384-512.c ****       message_array++;
ARM GAS  C:\Users\bkettle\AppData\Local\Temp\ccqz8R4u.s 			page 10


 488:..\lib\yubico-c-client/sha384-512.c ****     }
 489:..\lib\yubico-c-client/sha384-512.c **** 
 490:..\lib\yubico-c-client/sha384-512.c ****   return shaSuccess;
 491:..\lib\yubico-c-client/sha384-512.c **** }
 492:..\lib\yubico-c-client/sha384-512.c **** 
 493:..\lib\yubico-c-client/sha384-512.c **** /*
 494:..\lib\yubico-c-client/sha384-512.c ****  * SHA512FinalBits
 495:..\lib\yubico-c-client/sha384-512.c ****  *
 496:..\lib\yubico-c-client/sha384-512.c ****  * Description:
 497:..\lib\yubico-c-client/sha384-512.c ****  *   This function will add in any final bits of the message.
 498:..\lib\yubico-c-client/sha384-512.c ****  *
 499:..\lib\yubico-c-client/sha384-512.c ****  * Parameters:
 500:..\lib\yubico-c-client/sha384-512.c ****  *   context: [in/out]
 501:..\lib\yubico-c-client/sha384-512.c ****  *     The SHA context to update
 502:..\lib\yubico-c-client/sha384-512.c ****  *   message_bits: [in]
 503:..\lib\yubico-c-client/sha384-512.c ****  *     The final bits of the message, in the upper portion of the
 504:..\lib\yubico-c-client/sha384-512.c ****  *     byte. (Use 0b###00000 instead of 0b00000### to input the
 505:..\lib\yubico-c-client/sha384-512.c ****  *     three bits ###.)
 506:..\lib\yubico-c-client/sha384-512.c ****  *   length: [in]
 507:..\lib\yubico-c-client/sha384-512.c ****  *     The number of bits in message_bits, between 1 and 7.
 508:..\lib\yubico-c-client/sha384-512.c ****  *
 509:..\lib\yubico-c-client/sha384-512.c ****  * Returns:
 510:..\lib\yubico-c-client/sha384-512.c ****  *   sha Error Code.
 511:..\lib\yubico-c-client/sha384-512.c ****  *
 512:..\lib\yubico-c-client/sha384-512.c ****  */
 513:..\lib\yubico-c-client/sha384-512.c **** int
 514:..\lib\yubico-c-client/sha384-512.c **** SHA512FinalBits (SHA512Context * context,
 515:..\lib\yubico-c-client/sha384-512.c **** 		 const uint8_t message_bits, unsigned int length)
 516:..\lib\yubico-c-client/sha384-512.c **** {
 517:..\lib\yubico-c-client/sha384-512.c ****   uint8_t masks[8] = {
 518:..\lib\yubico-c-client/sha384-512.c ****     /* 0 0b00000000 */ 0x00, /* 1 0b10000000 */ 0x80,
 519:..\lib\yubico-c-client/sha384-512.c ****     /* 2 0b11000000 */ 0xC0, /* 3 0b11100000 */ 0xE0,
 520:..\lib\yubico-c-client/sha384-512.c ****     /* 4 0b11110000 */ 0xF0, /* 5 0b11111000 */ 0xF8,
 521:..\lib\yubico-c-client/sha384-512.c ****     /* 6 0b11111100 */ 0xFC, /* 7 0b11111110 */ 0xFE
 522:..\lib\yubico-c-client/sha384-512.c ****   };
 523:..\lib\yubico-c-client/sha384-512.c ****   uint8_t markbit[8] = {
 524:..\lib\yubico-c-client/sha384-512.c ****     /* 0 0b10000000 */ 0x80, /* 1 0b01000000 */ 0x40,
 525:..\lib\yubico-c-client/sha384-512.c ****     /* 2 0b00100000 */ 0x20, /* 3 0b00010000 */ 0x10,
 526:..\lib\yubico-c-client/sha384-512.c ****     /* 4 0b00001000 */ 0x08, /* 5 0b00000100 */ 0x04,
 527:..\lib\yubico-c-client/sha384-512.c ****     /* 6 0b00000010 */ 0x02, /* 7 0b00000001 */ 0x01
 528:..\lib\yubico-c-client/sha384-512.c ****   };
 529:..\lib\yubico-c-client/sha384-512.c **** 
 530:..\lib\yubico-c-client/sha384-512.c ****   if (!length)
 531:..\lib\yubico-c-client/sha384-512.c ****     return shaSuccess;
 532:..\lib\yubico-c-client/sha384-512.c **** 
 533:..\lib\yubico-c-client/sha384-512.c ****   if (!context)
 534:..\lib\yubico-c-client/sha384-512.c ****     return shaNull;
 535:..\lib\yubico-c-client/sha384-512.c **** 
 536:..\lib\yubico-c-client/sha384-512.c ****   if ((context->Computed) || (length >= 8) || (length == 0))
 537:..\lib\yubico-c-client/sha384-512.c ****     {
 538:..\lib\yubico-c-client/sha384-512.c ****       context->Corrupted = shaStateError;
 539:..\lib\yubico-c-client/sha384-512.c ****       return shaStateError;
 540:..\lib\yubico-c-client/sha384-512.c ****     }
 541:..\lib\yubico-c-client/sha384-512.c **** 
 542:..\lib\yubico-c-client/sha384-512.c ****   if (context->Corrupted)
 543:..\lib\yubico-c-client/sha384-512.c ****     return context->Corrupted;
 544:..\lib\yubico-c-client/sha384-512.c **** 
ARM GAS  C:\Users\bkettle\AppData\Local\Temp\ccqz8R4u.s 			page 11


 545:..\lib\yubico-c-client/sha384-512.c ****   SHA384_512AddLength (context, length);
 546:..\lib\yubico-c-client/sha384-512.c ****   SHA384_512Finalize (context, (uint8_t)
 547:..\lib\yubico-c-client/sha384-512.c **** 		      ((message_bits & masks[length]) | markbit[length]));
 548:..\lib\yubico-c-client/sha384-512.c **** 
 549:..\lib\yubico-c-client/sha384-512.c ****   return shaSuccess;
 550:..\lib\yubico-c-client/sha384-512.c **** }
 551:..\lib\yubico-c-client/sha384-512.c **** 
 552:..\lib\yubico-c-client/sha384-512.c **** /*
 553:..\lib\yubico-c-client/sha384-512.c ****  * SHA384_512Finalize
 554:..\lib\yubico-c-client/sha384-512.c ****  *
 555:..\lib\yubico-c-client/sha384-512.c ****  * Description:
 556:..\lib\yubico-c-client/sha384-512.c ****  *   This helper function finishes off the digest calculations.
 557:..\lib\yubico-c-client/sha384-512.c ****  *
 558:..\lib\yubico-c-client/sha384-512.c ****  * Parameters:
 559:..\lib\yubico-c-client/sha384-512.c ****  *   context: [in/out]
 560:..\lib\yubico-c-client/sha384-512.c ****  *     The SHA context to update
 561:..\lib\yubico-c-client/sha384-512.c ****  *   Pad_Byte: [in]
 562:..\lib\yubico-c-client/sha384-512.c ****  *     The last byte to add to the digest before the 0-padding
 563:..\lib\yubico-c-client/sha384-512.c ****  *     and length. This will contain the last bits of the message
 564:..\lib\yubico-c-client/sha384-512.c ****  *     followed by another single bit. If the message was an
 565:..\lib\yubico-c-client/sha384-512.c ****  *     exact multiple of 8-bits long, Pad_Byte will be 0x80.
 566:..\lib\yubico-c-client/sha384-512.c ****  *
 567:..\lib\yubico-c-client/sha384-512.c ****  * Returns:
 568:..\lib\yubico-c-client/sha384-512.c ****  *   sha Error Code.
 569:..\lib\yubico-c-client/sha384-512.c ****  *
 570:..\lib\yubico-c-client/sha384-512.c ****  */
 571:..\lib\yubico-c-client/sha384-512.c **** static void
 572:..\lib\yubico-c-client/sha384-512.c **** SHA384_512Finalize (SHA512Context * context, uint8_t Pad_Byte)
 573:..\lib\yubico-c-client/sha384-512.c **** {
 574:..\lib\yubico-c-client/sha384-512.c ****   int_least16_t i;
 575:..\lib\yubico-c-client/sha384-512.c ****   SHA384_512PadMessage (context, Pad_Byte);
 576:..\lib\yubico-c-client/sha384-512.c ****   /* message may be sensitive, clear it out */
 577:..\lib\yubico-c-client/sha384-512.c ****   for (i = 0; i < SHA512_Message_Block_Size; ++i)
 578:..\lib\yubico-c-client/sha384-512.c ****     context->Message_Block[i] = 0;
 579:..\lib\yubico-c-client/sha384-512.c **** #ifdef USE_32BIT_ONLY		/* and clear length */
 580:..\lib\yubico-c-client/sha384-512.c ****   context->Length[0] = context->Length[1] = 0;
 581:..\lib\yubico-c-client/sha384-512.c ****   context->Length[2] = context->Length[3] = 0;
 582:..\lib\yubico-c-client/sha384-512.c **** #else /* !USE_32BIT_ONLY */
 583:..\lib\yubico-c-client/sha384-512.c ****   context->Length_Low = 0;
 584:..\lib\yubico-c-client/sha384-512.c ****   context->Length_High = 0;
 585:..\lib\yubico-c-client/sha384-512.c **** #endif /* USE_32BIT_ONLY */
 586:..\lib\yubico-c-client/sha384-512.c ****   context->Computed = 1;
 587:..\lib\yubico-c-client/sha384-512.c **** }
 588:..\lib\yubico-c-client/sha384-512.c **** 
 589:..\lib\yubico-c-client/sha384-512.c **** /*
 590:..\lib\yubico-c-client/sha384-512.c ****  * SHA512Result
 591:..\lib\yubico-c-client/sha384-512.c ****  *
 592:..\lib\yubico-c-client/sha384-512.c ****  * Description:
 593:..\lib\yubico-c-client/sha384-512.c ****  *   This function will return the 512-bit message
 594:..\lib\yubico-c-client/sha384-512.c ****  *   digest into the Message_Digest array provided by the caller.
 595:..\lib\yubico-c-client/sha384-512.c ****  *   NOTE: The first octet of hash is stored in the 0th element,
 596:..\lib\yubico-c-client/sha384-512.c ****  *      the last octet of hash in the 64th element.
 597:..\lib\yubico-c-client/sha384-512.c ****  *
 598:..\lib\yubico-c-client/sha384-512.c ****  * Parameters:
 599:..\lib\yubico-c-client/sha384-512.c ****  *   context: [in/out]
 600:..\lib\yubico-c-client/sha384-512.c ****  *     The context to use to calculate the SHA hash.
 601:..\lib\yubico-c-client/sha384-512.c ****  *   Message_Digest: [out]
ARM GAS  C:\Users\bkettle\AppData\Local\Temp\ccqz8R4u.s 			page 12


 602:..\lib\yubico-c-client/sha384-512.c ****  *     Where the digest is returned.
 603:..\lib\yubico-c-client/sha384-512.c ****  *
 604:..\lib\yubico-c-client/sha384-512.c ****  * Returns:
 605:..\lib\yubico-c-client/sha384-512.c ****  *   sha Error Code.
 606:..\lib\yubico-c-client/sha384-512.c ****  *
 607:..\lib\yubico-c-client/sha384-512.c ****  */
 608:..\lib\yubico-c-client/sha384-512.c **** int
 609:..\lib\yubico-c-client/sha384-512.c **** SHA512Result (SHA512Context * context, uint8_t Message_Digest[SHA512HashSize])
 610:..\lib\yubico-c-client/sha384-512.c **** {
 611:..\lib\yubico-c-client/sha384-512.c ****   return SHA384_512ResultN (context, Message_Digest, SHA512HashSize);
 612:..\lib\yubico-c-client/sha384-512.c **** }
 613:..\lib\yubico-c-client/sha384-512.c **** 
 614:..\lib\yubico-c-client/sha384-512.c **** /*
 615:..\lib\yubico-c-client/sha384-512.c ****  * SHA384_512PadMessage
 616:..\lib\yubico-c-client/sha384-512.c ****  *
 617:..\lib\yubico-c-client/sha384-512.c ****  * Description:
 618:..\lib\yubico-c-client/sha384-512.c ****  *   According to the standard, the message must be padded to an
 619:..\lib\yubico-c-client/sha384-512.c ****  *   even 1024 bits. The first padding bit must be a '1'. The
 620:..\lib\yubico-c-client/sha384-512.c ****  *   last 128 bits represent the length of the original message.
 621:..\lib\yubico-c-client/sha384-512.c ****  *   All bits in between should be 0. This helper function will
 622:..\lib\yubico-c-client/sha384-512.c ****  *   pad the message according to those rules by filling the
 623:..\lib\yubico-c-client/sha384-512.c ****  *   Message_Block array accordingly. When it returns, it can be
 624:..\lib\yubico-c-client/sha384-512.c ****  *   assumed that the message digest has been computed.
 625:..\lib\yubico-c-client/sha384-512.c ****  *
 626:..\lib\yubico-c-client/sha384-512.c ****  * Parameters:
 627:..\lib\yubico-c-client/sha384-512.c ****  *   context: [in/out]
 628:..\lib\yubico-c-client/sha384-512.c ****  *     The context to pad
 629:..\lib\yubico-c-client/sha384-512.c ****  *   Pad_Byte: [in]
 630:..\lib\yubico-c-client/sha384-512.c ****  *     The last byte to add to the digest before the 0-padding
 631:..\lib\yubico-c-client/sha384-512.c ****  *     and length. This will contain the last bits of the message
 632:..\lib\yubico-c-client/sha384-512.c ****  *     followed by another single bit. If the message was an
 633:..\lib\yubico-c-client/sha384-512.c ****  *     exact multiple of 8-bits long, Pad_Byte will be 0x80.
 634:..\lib\yubico-c-client/sha384-512.c ****  *
 635:..\lib\yubico-c-client/sha384-512.c ****  * Returns:
 636:..\lib\yubico-c-client/sha384-512.c ****  *   Nothing.
 637:..\lib\yubico-c-client/sha384-512.c ****  *
 638:..\lib\yubico-c-client/sha384-512.c ****  */
 639:..\lib\yubico-c-client/sha384-512.c **** static void
 640:..\lib\yubico-c-client/sha384-512.c **** SHA384_512PadMessage (SHA512Context * context, uint8_t Pad_Byte)
 641:..\lib\yubico-c-client/sha384-512.c **** {
 642:..\lib\yubico-c-client/sha384-512.c ****   /*
 643:..\lib\yubico-c-client/sha384-512.c ****    * Check to see if the current message block is too small to hold
 644:..\lib\yubico-c-client/sha384-512.c ****    * the initial padding bits and length. If so, we will pad the
 645:..\lib\yubico-c-client/sha384-512.c ****    * block, process it, and then continue padding into a second
 646:..\lib\yubico-c-client/sha384-512.c ****    * block.
 647:..\lib\yubico-c-client/sha384-512.c ****    */
 648:..\lib\yubico-c-client/sha384-512.c ****   if (context->Message_Block_Index >= (SHA512_Message_Block_Size - 16))
 649:..\lib\yubico-c-client/sha384-512.c ****     {
 650:..\lib\yubico-c-client/sha384-512.c ****       context->Message_Block[context->Message_Block_Index++] = Pad_Byte;
 651:..\lib\yubico-c-client/sha384-512.c ****       while (context->Message_Block_Index < SHA512_Message_Block_Size)
 652:..\lib\yubico-c-client/sha384-512.c **** 	context->Message_Block[context->Message_Block_Index++] = 0;
 653:..\lib\yubico-c-client/sha384-512.c **** 
 654:..\lib\yubico-c-client/sha384-512.c ****       SHA384_512ProcessMessageBlock (context);
 655:..\lib\yubico-c-client/sha384-512.c ****     }
 656:..\lib\yubico-c-client/sha384-512.c ****   else
 657:..\lib\yubico-c-client/sha384-512.c ****     context->Message_Block[context->Message_Block_Index++] = Pad_Byte;
 658:..\lib\yubico-c-client/sha384-512.c **** 
ARM GAS  C:\Users\bkettle\AppData\Local\Temp\ccqz8R4u.s 			page 13


 659:..\lib\yubico-c-client/sha384-512.c ****   while (context->Message_Block_Index < (SHA512_Message_Block_Size - 16))
 660:..\lib\yubico-c-client/sha384-512.c ****     context->Message_Block[context->Message_Block_Index++] = 0;
 661:..\lib\yubico-c-client/sha384-512.c **** 
 662:..\lib\yubico-c-client/sha384-512.c ****   /*
 663:..\lib\yubico-c-client/sha384-512.c ****    * Store the message length as the last 16 octets
 664:..\lib\yubico-c-client/sha384-512.c ****    */
 665:..\lib\yubico-c-client/sha384-512.c **** #ifdef USE_32BIT_ONLY
 666:..\lib\yubico-c-client/sha384-512.c ****   context->Message_Block[112] = (uint8_t) (context->Length[0] >> 24);
 667:..\lib\yubico-c-client/sha384-512.c ****   context->Message_Block[113] = (uint8_t) (context->Length[0] >> 16);
 668:..\lib\yubico-c-client/sha384-512.c ****   context->Message_Block[114] = (uint8_t) (context->Length[0] >> 8);
 669:..\lib\yubico-c-client/sha384-512.c ****   context->Message_Block[115] = (uint8_t) (context->Length[0]);
 670:..\lib\yubico-c-client/sha384-512.c ****   context->Message_Block[116] = (uint8_t) (context->Length[1] >> 24);
 671:..\lib\yubico-c-client/sha384-512.c ****   context->Message_Block[117] = (uint8_t) (context->Length[1] >> 16);
 672:..\lib\yubico-c-client/sha384-512.c ****   context->Message_Block[118] = (uint8_t) (context->Length[1] >> 8);
 673:..\lib\yubico-c-client/sha384-512.c ****   context->Message_Block[119] = (uint8_t) (context->Length[1]);
 674:..\lib\yubico-c-client/sha384-512.c **** 
 675:..\lib\yubico-c-client/sha384-512.c ****   context->Message_Block[120] = (uint8_t) (context->Length[2] >> 24);
 676:..\lib\yubico-c-client/sha384-512.c ****   context->Message_Block[121] = (uint8_t) (context->Length[2] >> 16);
 677:..\lib\yubico-c-client/sha384-512.c ****   context->Message_Block[122] = (uint8_t) (context->Length[2] >> 8);
 678:..\lib\yubico-c-client/sha384-512.c ****   context->Message_Block[123] = (uint8_t) (context->Length[2]);
 679:..\lib\yubico-c-client/sha384-512.c ****   context->Message_Block[124] = (uint8_t) (context->Length[3] >> 24);
 680:..\lib\yubico-c-client/sha384-512.c ****   context->Message_Block[125] = (uint8_t) (context->Length[3] >> 16);
 681:..\lib\yubico-c-client/sha384-512.c ****   context->Message_Block[126] = (uint8_t) (context->Length[3] >> 8);
 682:..\lib\yubico-c-client/sha384-512.c ****   context->Message_Block[127] = (uint8_t) (context->Length[3]);
 683:..\lib\yubico-c-client/sha384-512.c **** #else /* !USE_32BIT_ONLY */
 684:..\lib\yubico-c-client/sha384-512.c ****   context->Message_Block[112] = (uint8_t) (context->Length_High >> 56);
 685:..\lib\yubico-c-client/sha384-512.c ****   context->Message_Block[113] = (uint8_t) (context->Length_High >> 48);
 686:..\lib\yubico-c-client/sha384-512.c ****   context->Message_Block[114] = (uint8_t) (context->Length_High >> 40);
 687:..\lib\yubico-c-client/sha384-512.c ****   context->Message_Block[115] = (uint8_t) (context->Length_High >> 32);
 688:..\lib\yubico-c-client/sha384-512.c ****   context->Message_Block[116] = (uint8_t) (context->Length_High >> 24);
 689:..\lib\yubico-c-client/sha384-512.c ****   context->Message_Block[117] = (uint8_t) (context->Length_High >> 16);
 690:..\lib\yubico-c-client/sha384-512.c ****   context->Message_Block[118] = (uint8_t) (context->Length_High >> 8);
 691:..\lib\yubico-c-client/sha384-512.c ****   context->Message_Block[119] = (uint8_t) (context->Length_High);
 692:..\lib\yubico-c-client/sha384-512.c **** 
 693:..\lib\yubico-c-client/sha384-512.c ****   context->Message_Block[120] = (uint8_t) (context->Length_Low >> 56);
 694:..\lib\yubico-c-client/sha384-512.c ****   context->Message_Block[121] = (uint8_t) (context->Length_Low >> 48);
 695:..\lib\yubico-c-client/sha384-512.c ****   context->Message_Block[122] = (uint8_t) (context->Length_Low >> 40);
 696:..\lib\yubico-c-client/sha384-512.c ****   context->Message_Block[123] = (uint8_t) (context->Length_Low >> 32);
 697:..\lib\yubico-c-client/sha384-512.c ****   context->Message_Block[124] = (uint8_t) (context->Length_Low >> 24);
 698:..\lib\yubico-c-client/sha384-512.c ****   context->Message_Block[125] = (uint8_t) (context->Length_Low >> 16);
 699:..\lib\yubico-c-client/sha384-512.c ****   context->Message_Block[126] = (uint8_t) (context->Length_Low >> 8);
 700:..\lib\yubico-c-client/sha384-512.c ****   context->Message_Block[127] = (uint8_t) (context->Length_Low);
 701:..\lib\yubico-c-client/sha384-512.c **** #endif /* USE_32BIT_ONLY */
 702:..\lib\yubico-c-client/sha384-512.c **** 
 703:..\lib\yubico-c-client/sha384-512.c ****   SHA384_512ProcessMessageBlock (context);
 704:..\lib\yubico-c-client/sha384-512.c **** }
 705:..\lib\yubico-c-client/sha384-512.c **** 
 706:..\lib\yubico-c-client/sha384-512.c **** /*
 707:..\lib\yubico-c-client/sha384-512.c ****  * SHA384_512ProcessMessageBlock
 708:..\lib\yubico-c-client/sha384-512.c ****  *
 709:..\lib\yubico-c-client/sha384-512.c ****  * Description:
 710:..\lib\yubico-c-client/sha384-512.c ****  *   This helper function will process the next 1024 bits of the
 711:..\lib\yubico-c-client/sha384-512.c ****  *   message stored in the Message_Block array.
 712:..\lib\yubico-c-client/sha384-512.c ****  *
 713:..\lib\yubico-c-client/sha384-512.c ****  * Parameters:
 714:..\lib\yubico-c-client/sha384-512.c ****  *   context: [in/out]
 715:..\lib\yubico-c-client/sha384-512.c ****  *     The SHA context to update
ARM GAS  C:\Users\bkettle\AppData\Local\Temp\ccqz8R4u.s 			page 14


 716:..\lib\yubico-c-client/sha384-512.c ****  *
 717:..\lib\yubico-c-client/sha384-512.c ****  * Returns:
 718:..\lib\yubico-c-client/sha384-512.c ****  *   Nothing.
 719:..\lib\yubico-c-client/sha384-512.c ****  *
 720:..\lib\yubico-c-client/sha384-512.c ****  * Comments:
 721:..\lib\yubico-c-client/sha384-512.c ****  *   Many of the variable names in this code, especially the
 722:..\lib\yubico-c-client/sha384-512.c ****  *   single character names, were used because those were the
 723:..\lib\yubico-c-client/sha384-512.c ****  *   names used in the publication.
 724:..\lib\yubico-c-client/sha384-512.c ****  *
 725:..\lib\yubico-c-client/sha384-512.c ****  *
 726:..\lib\yubico-c-client/sha384-512.c ****  */
 727:..\lib\yubico-c-client/sha384-512.c **** static void
 728:..\lib\yubico-c-client/sha384-512.c **** SHA384_512ProcessMessageBlock (SHA512Context * context)
 729:..\lib\yubico-c-client/sha384-512.c **** {
  27              		.loc 1 729 0
  28              		.cfi_startproc
  29              		@ args = 0, pretend = 0, frame = 800
  30              		@ frame_needed = 0, uses_anonymous_args = 0
  31              	.LVL0:
  32 0000 2DE9F04F 		push	{r4, r5, r6, r7, r8, r9, r10, fp, lr}
  33              		.cfi_def_cfa_offset 36
  34              		.cfi_offset 4, -36
  35              		.cfi_offset 5, -32
  36              		.cfi_offset 6, -28
  37              		.cfi_offset 7, -24
  38              		.cfi_offset 8, -20
  39              		.cfi_offset 9, -16
  40              		.cfi_offset 10, -12
  41              		.cfi_offset 11, -8
  42              		.cfi_offset 14, -4
  43 0004 ADF5497D 		sub	sp, sp, #804
  44              		.cfi_def_cfa_offset 840
  45 0008 8446     		mov	ip, r0
  46              	.LVL1:
 730:..\lib\yubico-c-client/sha384-512.c ****   /* Constants defined in FIPS-180-2, section 4.2.3 */
 731:..\lib\yubico-c-client/sha384-512.c **** #ifdef USE_32BIT_ONLY
 732:..\lib\yubico-c-client/sha384-512.c ****   static const uint32_t K[80 * 2] = {
 733:..\lib\yubico-c-client/sha384-512.c ****     0x428A2F98, 0xD728AE22, 0x71374491, 0x23EF65CD, 0xB5C0FBCF,
 734:..\lib\yubico-c-client/sha384-512.c ****     0xEC4D3B2F, 0xE9B5DBA5, 0x8189DBBC, 0x3956C25B, 0xF348B538,
 735:..\lib\yubico-c-client/sha384-512.c ****     0x59F111F1, 0xB605D019, 0x923F82A4, 0xAF194F9B, 0xAB1C5ED5,
 736:..\lib\yubico-c-client/sha384-512.c ****     0xDA6D8118, 0xD807AA98, 0xA3030242, 0x12835B01, 0x45706FBE,
 737:..\lib\yubico-c-client/sha384-512.c ****     0x243185BE, 0x4EE4B28C, 0x550C7DC3, 0xD5FFB4E2, 0x72BE5D74,
 738:..\lib\yubico-c-client/sha384-512.c ****     0xF27B896F, 0x80DEB1FE, 0x3B1696B1, 0x9BDC06A7, 0x25C71235,
 739:..\lib\yubico-c-client/sha384-512.c ****     0xC19BF174, 0xCF692694, 0xE49B69C1, 0x9EF14AD2, 0xEFBE4786,
 740:..\lib\yubico-c-client/sha384-512.c ****     0x384F25E3, 0x0FC19DC6, 0x8B8CD5B5, 0x240CA1CC, 0x77AC9C65,
 741:..\lib\yubico-c-client/sha384-512.c ****     0x2DE92C6F, 0x592B0275, 0x4A7484AA, 0x6EA6E483, 0x5CB0A9DC,
 742:..\lib\yubico-c-client/sha384-512.c ****     0xBD41FBD4, 0x76F988DA, 0x831153B5, 0x983E5152, 0xEE66DFAB,
 743:..\lib\yubico-c-client/sha384-512.c ****     0xA831C66D, 0x2DB43210, 0xB00327C8, 0x98FB213F, 0xBF597FC7,
 744:..\lib\yubico-c-client/sha384-512.c ****     0xBEEF0EE4, 0xC6E00BF3, 0x3DA88FC2, 0xD5A79147, 0x930AA725,
 745:..\lib\yubico-c-client/sha384-512.c ****     0x06CA6351, 0xE003826F, 0x14292967, 0x0A0E6E70, 0x27B70A85,
 746:..\lib\yubico-c-client/sha384-512.c ****     0x46D22FFC, 0x2E1B2138, 0x5C26C926, 0x4D2C6DFC, 0x5AC42AED,
 747:..\lib\yubico-c-client/sha384-512.c ****     0x53380D13, 0x9D95B3DF, 0x650A7354, 0x8BAF63DE, 0x766A0ABB,
 748:..\lib\yubico-c-client/sha384-512.c ****     0x3C77B2A8, 0x81C2C92E, 0x47EDAEE6, 0x92722C85, 0x1482353B,
 749:..\lib\yubico-c-client/sha384-512.c ****     0xA2BFE8A1, 0x4CF10364, 0xA81A664B, 0xBC423001, 0xC24B8B70,
 750:..\lib\yubico-c-client/sha384-512.c ****     0xD0F89791, 0xC76C51A3, 0x0654BE30, 0xD192E819, 0xD6EF5218,
 751:..\lib\yubico-c-client/sha384-512.c ****     0xD6990624, 0x5565A910, 0xF40E3585, 0x5771202A, 0x106AA070,
 752:..\lib\yubico-c-client/sha384-512.c ****     0x32BBD1B8, 0x19A4C116, 0xB8D2D0C8, 0x1E376C08, 0x5141AB53,
ARM GAS  C:\Users\bkettle\AppData\Local\Temp\ccqz8R4u.s 			page 15


 753:..\lib\yubico-c-client/sha384-512.c ****     0x2748774C, 0xDF8EEB99, 0x34B0BCB5, 0xE19B48A8, 0x391C0CB3,
 754:..\lib\yubico-c-client/sha384-512.c ****     0xC5C95A63, 0x4ED8AA4A, 0xE3418ACB, 0x5B9CCA4F, 0x7763E373,
 755:..\lib\yubico-c-client/sha384-512.c ****     0x682E6FF3, 0xD6B2B8A3, 0x748F82EE, 0x5DEFB2FC, 0x78A5636F,
 756:..\lib\yubico-c-client/sha384-512.c ****     0x43172F60, 0x84C87814, 0xA1F0AB72, 0x8CC70208, 0x1A6439EC,
 757:..\lib\yubico-c-client/sha384-512.c ****     0x90BEFFFA, 0x23631E28, 0xA4506CEB, 0xDE82BDE9, 0xBEF9A3F7,
 758:..\lib\yubico-c-client/sha384-512.c ****     0xB2C67915, 0xC67178F2, 0xE372532B, 0xCA273ECE, 0xEA26619C,
 759:..\lib\yubico-c-client/sha384-512.c ****     0xD186B8C7, 0x21C0C207, 0xEADA7DD6, 0xCDE0EB1E, 0xF57D4F7F,
 760:..\lib\yubico-c-client/sha384-512.c ****     0xEE6ED178, 0x06F067AA, 0x72176FBA, 0x0A637DC5, 0xA2C898A6,
 761:..\lib\yubico-c-client/sha384-512.c ****     0x113F9804, 0xBEF90DAE, 0x1B710B35, 0x131C471B, 0x28DB77F5,
 762:..\lib\yubico-c-client/sha384-512.c ****     0x23047D84, 0x32CAAB7B, 0x40C72493, 0x3C9EBE0A, 0x15C9BEBC,
 763:..\lib\yubico-c-client/sha384-512.c ****     0x431D67C4, 0x9C100D4C, 0x4CC5D4BE, 0xCB3E42B6, 0x597F299C,
 764:..\lib\yubico-c-client/sha384-512.c ****     0xFC657E2A, 0x5FCB6FAB, 0x3AD6FAEC, 0x6C44198C, 0x4A475817
 765:..\lib\yubico-c-client/sha384-512.c ****   };
 766:..\lib\yubico-c-client/sha384-512.c ****   int t, t2, t8;		/* Loop counter */
 767:..\lib\yubico-c-client/sha384-512.c ****   uint32_t temp1[2], temp2[2],	/* Temporary word values */
 768:..\lib\yubico-c-client/sha384-512.c ****     temp3[2], temp4[2], temp5[2];
 769:..\lib\yubico-c-client/sha384-512.c ****   uint32_t W[2 * 80];		/* Word sequence */
 770:..\lib\yubico-c-client/sha384-512.c ****   uint32_t A[2], B[2], C[2], D[2],	/* Word buffers */
 771:..\lib\yubico-c-client/sha384-512.c ****     E[2], F[2], G[2], H[2];
 772:..\lib\yubico-c-client/sha384-512.c **** 
 773:..\lib\yubico-c-client/sha384-512.c ****   /* Initialize the first 16 words in the array W */
 774:..\lib\yubico-c-client/sha384-512.c ****   for (t = t2 = t8 = 0; t < 16; t++, t8 += 8)
 775:..\lib\yubico-c-client/sha384-512.c ****     {
 776:..\lib\yubico-c-client/sha384-512.c ****       W[t2++] = ((((uint32_t) context->Message_Block[t8])) << 24) |
 777:..\lib\yubico-c-client/sha384-512.c **** 	((((uint32_t) context->Message_Block[t8 + 1])) << 16) |
 778:..\lib\yubico-c-client/sha384-512.c **** 	((((uint32_t) context->Message_Block[t8 + 2])) << 8) |
 779:..\lib\yubico-c-client/sha384-512.c **** 	((((uint32_t) context->Message_Block[t8 + 3])));
 780:..\lib\yubico-c-client/sha384-512.c ****       W[t2++] = ((((uint32_t) context->Message_Block[t8 + 4])) << 24) |
 781:..\lib\yubico-c-client/sha384-512.c **** 	((((uint32_t) context->Message_Block[t8 + 5])) << 16) |
 782:..\lib\yubico-c-client/sha384-512.c **** 	((((uint32_t) context->Message_Block[t8 + 6])) << 8) |
 783:..\lib\yubico-c-client/sha384-512.c **** 	((((uint32_t) context->Message_Block[t8 + 7])));
 784:..\lib\yubico-c-client/sha384-512.c ****     }
 785:..\lib\yubico-c-client/sha384-512.c **** 
 786:..\lib\yubico-c-client/sha384-512.c ****   for (t = 16; t < 80; t++, t2 += 2)
 787:..\lib\yubico-c-client/sha384-512.c ****     {
 788:..\lib\yubico-c-client/sha384-512.c ****       /* W[t] = SHA512_sigma1(W[t-2]) + W[t-7] +
 789:..\lib\yubico-c-client/sha384-512.c ****          SHA512_sigma0(W[t-15]) + W[t-16]; */
 790:..\lib\yubico-c-client/sha384-512.c ****       uint32_t *Wt2 = &W[t2 - 2 * 2];
 791:..\lib\yubico-c-client/sha384-512.c ****       uint32_t *Wt7 = &W[t2 - 7 * 2];
 792:..\lib\yubico-c-client/sha384-512.c ****       uint32_t *Wt15 = &W[t2 - 15 * 2];
 793:..\lib\yubico-c-client/sha384-512.c ****       uint32_t *Wt16 = &W[t2 - 16 * 2];
 794:..\lib\yubico-c-client/sha384-512.c ****       SHA512_sigma1 (Wt2, temp1);
 795:..\lib\yubico-c-client/sha384-512.c ****       SHA512_ADD (temp1, Wt7, temp2);
 796:..\lib\yubico-c-client/sha384-512.c ****       SHA512_sigma0 (Wt15, temp1);
 797:..\lib\yubico-c-client/sha384-512.c ****       SHA512_ADD (temp1, Wt16, temp3);
 798:..\lib\yubico-c-client/sha384-512.c ****       SHA512_ADD (temp2, temp3, &W[t2]);
 799:..\lib\yubico-c-client/sha384-512.c ****     }
 800:..\lib\yubico-c-client/sha384-512.c **** 
 801:..\lib\yubico-c-client/sha384-512.c ****   A[0] = context->Intermediate_Hash[0];
 802:..\lib\yubico-c-client/sha384-512.c ****   A[1] = context->Intermediate_Hash[1];
 803:..\lib\yubico-c-client/sha384-512.c ****   B[0] = context->Intermediate_Hash[2];
 804:..\lib\yubico-c-client/sha384-512.c ****   B[1] = context->Intermediate_Hash[3];
 805:..\lib\yubico-c-client/sha384-512.c ****   C[0] = context->Intermediate_Hash[4];
 806:..\lib\yubico-c-client/sha384-512.c ****   C[1] = context->Intermediate_Hash[5];
 807:..\lib\yubico-c-client/sha384-512.c ****   D[0] = context->Intermediate_Hash[6];
 808:..\lib\yubico-c-client/sha384-512.c ****   D[1] = context->Intermediate_Hash[7];
 809:..\lib\yubico-c-client/sha384-512.c ****   E[0] = context->Intermediate_Hash[8];
ARM GAS  C:\Users\bkettle\AppData\Local\Temp\ccqz8R4u.s 			page 16


 810:..\lib\yubico-c-client/sha384-512.c ****   E[1] = context->Intermediate_Hash[9];
 811:..\lib\yubico-c-client/sha384-512.c ****   F[0] = context->Intermediate_Hash[10];
 812:..\lib\yubico-c-client/sha384-512.c ****   F[1] = context->Intermediate_Hash[11];
 813:..\lib\yubico-c-client/sha384-512.c ****   G[0] = context->Intermediate_Hash[12];
 814:..\lib\yubico-c-client/sha384-512.c ****   G[1] = context->Intermediate_Hash[13];
 815:..\lib\yubico-c-client/sha384-512.c ****   H[0] = context->Intermediate_Hash[14];
 816:..\lib\yubico-c-client/sha384-512.c ****   H[1] = context->Intermediate_Hash[15];
 817:..\lib\yubico-c-client/sha384-512.c **** 
 818:..\lib\yubico-c-client/sha384-512.c ****   for (t = t2 = 0; t < 80; t++, t2 += 2)
 819:..\lib\yubico-c-client/sha384-512.c ****     {
 820:..\lib\yubico-c-client/sha384-512.c ****       /*
 821:..\lib\yubico-c-client/sha384-512.c ****        * temp1 = H + SHA512_SIGMA1(E) + SHA_Ch(E,F,G) + K[t] + W[t];
 822:..\lib\yubico-c-client/sha384-512.c ****        */
 823:..\lib\yubico-c-client/sha384-512.c ****       SHA512_SIGMA1 (E, temp1);
 824:..\lib\yubico-c-client/sha384-512.c ****       SHA512_ADD (H, temp1, temp2);
 825:..\lib\yubico-c-client/sha384-512.c ****       SHA_Ch (E, F, G, temp3);
 826:..\lib\yubico-c-client/sha384-512.c ****       SHA512_ADD (temp2, temp3, temp4);
 827:..\lib\yubico-c-client/sha384-512.c ****       SHA512_ADD (&K[t2], &W[t2], temp5);
 828:..\lib\yubico-c-client/sha384-512.c ****       SHA512_ADD (temp4, temp5, temp1);
 829:..\lib\yubico-c-client/sha384-512.c ****       /*
 830:..\lib\yubico-c-client/sha384-512.c ****        * temp2 = SHA512_SIGMA0(A) + SHA_Maj(A,B,C);
 831:..\lib\yubico-c-client/sha384-512.c ****        */
 832:..\lib\yubico-c-client/sha384-512.c ****       SHA512_SIGMA0 (A, temp3);
 833:..\lib\yubico-c-client/sha384-512.c ****       SHA_Maj (A, B, C, temp4);
 834:..\lib\yubico-c-client/sha384-512.c ****       SHA512_ADD (temp3, temp4, temp2);
 835:..\lib\yubico-c-client/sha384-512.c ****       H[0] = G[0];
 836:..\lib\yubico-c-client/sha384-512.c ****       H[1] = G[1];
 837:..\lib\yubico-c-client/sha384-512.c ****       G[0] = F[0];
 838:..\lib\yubico-c-client/sha384-512.c ****       G[1] = F[1];
 839:..\lib\yubico-c-client/sha384-512.c ****       F[0] = E[0];
 840:..\lib\yubico-c-client/sha384-512.c ****       F[1] = E[1];
 841:..\lib\yubico-c-client/sha384-512.c ****       SHA512_ADD (D, temp1, E);
 842:..\lib\yubico-c-client/sha384-512.c ****       D[0] = C[0];
 843:..\lib\yubico-c-client/sha384-512.c ****       D[1] = C[1];
 844:..\lib\yubico-c-client/sha384-512.c ****       C[0] = B[0];
 845:..\lib\yubico-c-client/sha384-512.c ****       C[1] = B[1];
 846:..\lib\yubico-c-client/sha384-512.c ****       B[0] = A[0];
 847:..\lib\yubico-c-client/sha384-512.c ****       B[1] = A[1];
 848:..\lib\yubico-c-client/sha384-512.c ****       SHA512_ADD (temp1, temp2, A);
 849:..\lib\yubico-c-client/sha384-512.c ****     }
 850:..\lib\yubico-c-client/sha384-512.c **** 
 851:..\lib\yubico-c-client/sha384-512.c ****   SHA512_ADDTO2 (&context->Intermediate_Hash[0], A);
 852:..\lib\yubico-c-client/sha384-512.c ****   SHA512_ADDTO2 (&context->Intermediate_Hash[2], B);
 853:..\lib\yubico-c-client/sha384-512.c ****   SHA512_ADDTO2 (&context->Intermediate_Hash[4], C);
 854:..\lib\yubico-c-client/sha384-512.c ****   SHA512_ADDTO2 (&context->Intermediate_Hash[6], D);
 855:..\lib\yubico-c-client/sha384-512.c ****   SHA512_ADDTO2 (&context->Intermediate_Hash[8], E);
 856:..\lib\yubico-c-client/sha384-512.c ****   SHA512_ADDTO2 (&context->Intermediate_Hash[10], F);
 857:..\lib\yubico-c-client/sha384-512.c ****   SHA512_ADDTO2 (&context->Intermediate_Hash[12], G);
 858:..\lib\yubico-c-client/sha384-512.c ****   SHA512_ADDTO2 (&context->Intermediate_Hash[14], H);
 859:..\lib\yubico-c-client/sha384-512.c **** 
 860:..\lib\yubico-c-client/sha384-512.c **** #else /* !USE_32BIT_ONLY */
 861:..\lib\yubico-c-client/sha384-512.c ****   static const uint64_t K[80] = {
 862:..\lib\yubico-c-client/sha384-512.c ****     0x428A2F98D728AE22ll, 0x7137449123EF65CDll, 0xB5C0FBCFEC4D3B2Fll,
 863:..\lib\yubico-c-client/sha384-512.c ****     0xE9B5DBA58189DBBCll, 0x3956C25BF348B538ll, 0x59F111F1B605D019ll,
 864:..\lib\yubico-c-client/sha384-512.c ****     0x923F82A4AF194F9Bll, 0xAB1C5ED5DA6D8118ll, 0xD807AA98A3030242ll,
 865:..\lib\yubico-c-client/sha384-512.c ****     0x12835B0145706FBEll, 0x243185BE4EE4B28Cll, 0x550C7DC3D5FFB4E2ll,
 866:..\lib\yubico-c-client/sha384-512.c ****     0x72BE5D74F27B896Fll, 0x80DEB1FE3B1696B1ll, 0x9BDC06A725C71235ll,
ARM GAS  C:\Users\bkettle\AppData\Local\Temp\ccqz8R4u.s 			page 17


 867:..\lib\yubico-c-client/sha384-512.c ****     0xC19BF174CF692694ll, 0xE49B69C19EF14AD2ll, 0xEFBE4786384F25E3ll,
 868:..\lib\yubico-c-client/sha384-512.c ****     0x0FC19DC68B8CD5B5ll, 0x240CA1CC77AC9C65ll, 0x2DE92C6F592B0275ll,
 869:..\lib\yubico-c-client/sha384-512.c ****     0x4A7484AA6EA6E483ll, 0x5CB0A9DCBD41FBD4ll, 0x76F988DA831153B5ll,
 870:..\lib\yubico-c-client/sha384-512.c ****     0x983E5152EE66DFABll, 0xA831C66D2DB43210ll, 0xB00327C898FB213Fll,
 871:..\lib\yubico-c-client/sha384-512.c ****     0xBF597FC7BEEF0EE4ll, 0xC6E00BF33DA88FC2ll, 0xD5A79147930AA725ll,
 872:..\lib\yubico-c-client/sha384-512.c ****     0x06CA6351E003826Fll, 0x142929670A0E6E70ll, 0x27B70A8546D22FFCll,
 873:..\lib\yubico-c-client/sha384-512.c ****     0x2E1B21385C26C926ll, 0x4D2C6DFC5AC42AEDll, 0x53380D139D95B3DFll,
 874:..\lib\yubico-c-client/sha384-512.c ****     0x650A73548BAF63DEll, 0x766A0ABB3C77B2A8ll, 0x81C2C92E47EDAEE6ll,
 875:..\lib\yubico-c-client/sha384-512.c ****     0x92722C851482353Bll, 0xA2BFE8A14CF10364ll, 0xA81A664BBC423001ll,
 876:..\lib\yubico-c-client/sha384-512.c ****     0xC24B8B70D0F89791ll, 0xC76C51A30654BE30ll, 0xD192E819D6EF5218ll,
 877:..\lib\yubico-c-client/sha384-512.c ****     0xD69906245565A910ll, 0xF40E35855771202All, 0x106AA07032BBD1B8ll,
 878:..\lib\yubico-c-client/sha384-512.c ****     0x19A4C116B8D2D0C8ll, 0x1E376C085141AB53ll, 0x2748774CDF8EEB99ll,
 879:..\lib\yubico-c-client/sha384-512.c ****     0x34B0BCB5E19B48A8ll, 0x391C0CB3C5C95A63ll, 0x4ED8AA4AE3418ACBll,
 880:..\lib\yubico-c-client/sha384-512.c ****     0x5B9CCA4F7763E373ll, 0x682E6FF3D6B2B8A3ll, 0x748F82EE5DEFB2FCll,
 881:..\lib\yubico-c-client/sha384-512.c ****     0x78A5636F43172F60ll, 0x84C87814A1F0AB72ll, 0x8CC702081A6439ECll,
 882:..\lib\yubico-c-client/sha384-512.c ****     0x90BEFFFA23631E28ll, 0xA4506CEBDE82BDE9ll, 0xBEF9A3F7B2C67915ll,
 883:..\lib\yubico-c-client/sha384-512.c ****     0xC67178F2E372532Bll, 0xCA273ECEEA26619Cll, 0xD186B8C721C0C207ll,
 884:..\lib\yubico-c-client/sha384-512.c ****     0xEADA7DD6CDE0EB1Ell, 0xF57D4F7FEE6ED178ll, 0x06F067AA72176FBAll,
 885:..\lib\yubico-c-client/sha384-512.c ****     0x0A637DC5A2C898A6ll, 0x113F9804BEF90DAEll, 0x1B710B35131C471Bll,
 886:..\lib\yubico-c-client/sha384-512.c ****     0x28DB77F523047D84ll, 0x32CAAB7B40C72493ll, 0x3C9EBE0A15C9BEBCll,
 887:..\lib\yubico-c-client/sha384-512.c ****     0x431D67C49C100D4Cll, 0x4CC5D4BECB3E42B6ll, 0x597F299CFC657E2All,
 888:..\lib\yubico-c-client/sha384-512.c ****     0x5FCB6FAB3AD6FAECll, 0x6C44198C4A475817ll
 889:..\lib\yubico-c-client/sha384-512.c ****   };
 890:..\lib\yubico-c-client/sha384-512.c ****   int t, t8;			/* Loop counter */
 891:..\lib\yubico-c-client/sha384-512.c ****   uint64_t temp1, temp2;	/* Temporary word value */
 892:..\lib\yubico-c-client/sha384-512.c ****   uint64_t W[80];		/* Word sequence */
 893:..\lib\yubico-c-client/sha384-512.c ****   uint64_t A, B, C, D, E, F, G, H;	/* Word buffers */
 894:..\lib\yubico-c-client/sha384-512.c **** 
 895:..\lib\yubico-c-client/sha384-512.c ****   /*
 896:..\lib\yubico-c-client/sha384-512.c ****    * Initialize the first 16 words in the array W
 897:..\lib\yubico-c-client/sha384-512.c ****    */
 898:..\lib\yubico-c-client/sha384-512.c ****   for (t = t8 = 0; t < 16; t++, t8 += 8)
  47              		.loc 1 898 0
  48 000a 0024     		movs	r4, #0
  49 000c A646     		mov	lr, r4
  50 000e CDE91E67 		strd	r6, [sp, #120]
  51 0012 2746     		mov	r7, r4
  52 0014 66E0     		b	.L2
  53              	.LVL2:
  54              	.L3:
 899:..\lib\yubico-c-client/sha384-512.c ****     W[t] = ((uint64_t) (context->Message_Block[t8]) << 56) |
  55              		.loc 1 899 0 discriminator 3
  56 0016 0CEB0E03 		add	r3, ip, lr
  57 001a 93F85220 		ldrb	r2, [r3, #82]	@ zero_extendqisi2
  58 001e 1506     		lsls	r5, r2, #24
  59 0020 0024     		movs	r4, #0
 900:..\lib\yubico-c-client/sha384-512.c ****       ((uint64_t) (context->Message_Block[t8 + 1]) << 48) |
  60              		.loc 1 900 0 discriminator 3
  61 0022 0EF10103 		add	r3, lr, #1
  62 0026 6344     		add	r3, r3, ip
  63 0028 93F85220 		ldrb	r2, [r3, #82]	@ zero_extendqisi2
  64 002c 1304     		lsls	r3, r2, #16
  65 002e 0793     		str	r3, [sp, #28]
  66 0030 0694     		str	r4, [sp, #24]
 899:..\lib\yubico-c-client/sha384-512.c ****     W[t] = ((uint64_t) (context->Message_Block[t8]) << 56) |
  67              		.loc 1 899 0 discriminator 3
  68 0032 DDE90623 		ldrd	r2, [sp, #24]
ARM GAS  C:\Users\bkettle\AppData\Local\Temp\ccqz8R4u.s 			page 18


  69 0036 2243     		orrs	r2, r2, r4
  70 0038 2B43     		orrs	r3, r3, r5
 901:..\lib\yubico-c-client/sha384-512.c ****       ((uint64_t) (context->Message_Block[t8 + 2]) << 40) |
  71              		.loc 1 901 0 discriminator 3
  72 003a 0EF10201 		add	r1, lr, #2
  73 003e 6144     		add	r1, r1, ip
  74 0040 91F85200 		ldrb	r0, [r1, #82]	@ zero_extendqisi2
  75 0044 0102     		lsls	r1, r0, #8
  76 0046 0F91     		str	r1, [sp, #60]
  77 0048 0E94     		str	r4, [sp, #56]
 900:..\lib\yubico-c-client/sha384-512.c ****       ((uint64_t) (context->Message_Block[t8 + 1]) << 48) |
  78              		.loc 1 900 0 discriminator 3
  79 004a DDE90E01 		ldrd	r0, [sp, #56]
  80 004e 1043     		orrs	r0, r0, r2
  81 0050 1943     		orrs	r1, r1, r3
  82 0052 0246     		mov	r2, r0
  83 0054 0B46     		mov	r3, r1
 902:..\lib\yubico-c-client/sha384-512.c ****       ((uint64_t) (context->Message_Block[t8 + 3]) << 32) |
  84              		.loc 1 902 0 discriminator 3
  85 0056 0EF10301 		add	r1, lr, #3
  86 005a 6144     		add	r1, r1, ip
  87 005c 91F85210 		ldrb	r1, [r1, #82]	@ zero_extendqisi2
  88 0060 1791     		str	r1, [sp, #92]
  89 0062 1694     		str	r4, [sp, #88]
 901:..\lib\yubico-c-client/sha384-512.c ****       ((uint64_t) (context->Message_Block[t8 + 2]) << 40) |
  90              		.loc 1 901 0 discriminator 3
  91 0064 DDE91601 		ldrd	r0, [sp, #88]
  92 0068 1043     		orrs	r0, r0, r2
  93 006a 1943     		orrs	r1, r1, r3
  94 006c 0246     		mov	r2, r0
  95 006e 0B46     		mov	r3, r1
 903:..\lib\yubico-c-client/sha384-512.c ****       ((uint64_t) (context->Message_Block[t8 + 4]) << 24) |
  96              		.loc 1 903 0 discriminator 3
  97 0070 0EF10401 		add	r1, lr, #4
  98 0074 6144     		add	r1, r1, ip
  99 0076 91F85200 		ldrb	r0, [r1, #82]	@ zero_extendqisi2
 100 007a 1994     		str	r4, [sp, #100]
 101 007c 0106     		lsls	r1, r0, #24
 102 007e 1891     		str	r1, [sp, #96]
 902:..\lib\yubico-c-client/sha384-512.c ****       ((uint64_t) (context->Message_Block[t8 + 3]) << 32) |
 103              		.loc 1 902 0 discriminator 3
 104 0080 DDE91801 		ldrd	r0, [sp, #96]
 105 0084 1043     		orrs	r0, r0, r2
 106 0086 1943     		orrs	r1, r1, r3
 107 0088 0246     		mov	r2, r0
 108 008a 0B46     		mov	r3, r1
 904:..\lib\yubico-c-client/sha384-512.c ****       ((uint64_t) (context->Message_Block[t8 + 5]) << 16) |
 109              		.loc 1 904 0 discriminator 3
 110 008c 0EF10501 		add	r1, lr, #5
 111 0090 6144     		add	r1, r1, ip
 112 0092 91F85200 		ldrb	r0, [r1, #82]	@ zero_extendqisi2
 113 0096 1B94     		str	r4, [sp, #108]
 114 0098 0104     		lsls	r1, r0, #16
 115 009a 1A91     		str	r1, [sp, #104]
 903:..\lib\yubico-c-client/sha384-512.c ****       ((uint64_t) (context->Message_Block[t8 + 4]) << 24) |
 116              		.loc 1 903 0 discriminator 3
 117 009c DDE91A01 		ldrd	r0, [sp, #104]
ARM GAS  C:\Users\bkettle\AppData\Local\Temp\ccqz8R4u.s 			page 19


 118 00a0 1043     		orrs	r0, r0, r2
 119 00a2 1943     		orrs	r1, r1, r3
 120 00a4 0246     		mov	r2, r0
 121 00a6 0B46     		mov	r3, r1
 905:..\lib\yubico-c-client/sha384-512.c ****       ((uint64_t) (context->Message_Block[t8 + 6]) << 8) |
 122              		.loc 1 905 0 discriminator 3
 123 00a8 0EF10601 		add	r1, lr, #6
 124 00ac 6144     		add	r1, r1, ip
 125 00ae 91F85200 		ldrb	r0, [r1, #82]	@ zero_extendqisi2
 126 00b2 1D94     		str	r4, [sp, #116]
 127 00b4 0102     		lsls	r1, r0, #8
 128 00b6 1C91     		str	r1, [sp, #112]
 904:..\lib\yubico-c-client/sha384-512.c ****       ((uint64_t) (context->Message_Block[t8 + 5]) << 16) |
 129              		.loc 1 904 0 discriminator 3
 130 00b8 DDE91C01 		ldrd	r0, [sp, #112]
 131 00bc 1043     		orrs	r0, r0, r2
 132 00be 1943     		orrs	r1, r1, r3
 133 00c0 0246     		mov	r2, r0
 134 00c2 0B46     		mov	r3, r1
 906:..\lib\yubico-c-client/sha384-512.c ****       ((uint64_t) (context->Message_Block[t8 + 7]));
 135              		.loc 1 906 0 discriminator 3
 136 00c4 0EF10701 		add	r1, lr, #7
 137 00c8 6144     		add	r1, r1, ip
 138 00ca 91F85200 		ldrb	r0, [r1, #82]	@ zero_extendqisi2
 139 00ce 0021     		movs	r1, #0
 905:..\lib\yubico-c-client/sha384-512.c ****       ((uint64_t) (context->Message_Block[t8 + 6]) << 8) |
 140              		.loc 1 905 0 discriminator 3
 141 00d0 0243     		orrs	r2, r2, r0
 142 00d2 0B43     		orrs	r3, r3, r1
 899:..\lib\yubico-c-client/sha384-512.c ****       ((uint64_t) (context->Message_Block[t8 + 1]) << 48) |
 143              		.loc 1 899 0 discriminator 3
 144 00d4 28A9     		add	r1, sp, #160
 145 00d6 01EBC701 		add	r1, r1, r7, lsl #3
 146 00da C1E90023 		strd	r2, [r1]
 898:..\lib\yubico-c-client/sha384-512.c ****     W[t] = ((uint64_t) (context->Message_Block[t8]) << 56) |
 147              		.loc 1 898 0 discriminator 3
 148 00de 0137     		adds	r7, r7, #1
 149              	.LVL3:
 150 00e0 0EF1080E 		add	lr, lr, #8
 151              	.LVL4:
 152              	.L2:
 898:..\lib\yubico-c-client/sha384-512.c ****     W[t] = ((uint64_t) (context->Message_Block[t8]) << 56) |
 153              		.loc 1 898 0 is_stmt 0 discriminator 1
 154 00e4 0F2F     		cmp	r7, #15
 155 00e6 96DD     		ble	.L3
 156 00e8 4FF0100E 		mov	lr, #16
 157              	.LVL5:
 158 00ec CDF818C0 		str	ip, [sp, #24]
 159 00f0 6DE0     		b	.L4
 160              	.LVL6:
 161              	.L5:
 907:..\lib\yubico-c-client/sha384-512.c **** 
 908:..\lib\yubico-c-client/sha384-512.c ****   for (t = 16; t < 80; t++)
 909:..\lib\yubico-c-client/sha384-512.c ****     W[t] = SHA512_sigma1 (W[t - 2]) + W[t - 7] +
 162              		.loc 1 909 0 is_stmt 1 discriminator 3
 163 00f2 AEF10203 		sub	r3, lr, #2
 164 00f6 28AA     		add	r2, sp, #160
ARM GAS  C:\Users\bkettle\AppData\Local\Temp\ccqz8R4u.s 			page 20


 165 00f8 02EBC302 		add	r2, r2, r3, lsl #3
 166 00fc 28A9     		add	r1, sp, #160
 167 00fe 51F83300 		ldr	r0, [r1, r3, lsl #3]
 168 0102 5168     		ldr	r1, [r2, #4]
 169 0104 C30C     		lsrs	r3, r0, #19
 170 0106 43EA4133 		orr	r3, r3, r1, lsl #13
 171 010a 0093     		str	r3, [sp]
 172 010c CB0C     		lsrs	r3, r1, #19
 173 010e 43EA4033 		orr	r3, r3, r0, lsl #13
 174 0112 0193     		str	r3, [sp, #4]
 175 0114 CB00     		lsls	r3, r1, #3
 176 0116 43EA5073 		orr	r3, r3, r0, lsr #29
 177 011a 0393     		str	r3, [sp, #12]
 178 011c C300     		lsls	r3, r0, #3
 179 011e 43EA5173 		orr	r3, r3, r1, lsr #29
 180 0122 0293     		str	r3, [sp, #8]
 181 0124 DDE90023 		ldrd	r2, [sp]
 182 0128 DDE90245 		ldrd	r4, [sp, #8]
 183 012c 6240     		eors	r2, r2, r4
 184 012e 6B40     		eors	r3, r3, r5
 185 0130 4FEA9018 		lsr	r8, r0, #6
 186 0134 48EA8168 		orr	r8, r8, r1, lsl #26
 187 0138 4FEA9119 		lsr	r9, r1, #6
 188 013c 82EA0802 		eor	r2, r2, r8
 189 0140 83EA0903 		eor	r3, r3, r9
 190 0144 AEF10701 		sub	r1, lr, #7
 191 0148 28A8     		add	r0, sp, #160
 192 014a 00EBC101 		add	r1, r0, r1, lsl #3
 193 014e D1E90001 		ldrd	r0, [r1]
 194 0152 8418     		adds	r4, r0, r2
 195 0154 41EB0305 		adc	r5, r1, r3
 910:..\lib\yubico-c-client/sha384-512.c ****       SHA512_sigma0 (W[t - 15]) + W[t - 16];
 196              		.loc 1 910 0 discriminator 3
 197 0158 AEF10F02 		sub	r2, lr, #15
 198 015c 28AB     		add	r3, sp, #160
 199 015e 03EBC203 		add	r3, r3, r2, lsl #3
 200 0162 28A9     		add	r1, sp, #160
 201 0164 51F83220 		ldr	r2, [r1, r2, lsl #3]
 202 0168 D3F804C0 		ldr	ip, [r3, #4]
 203 016c 5308     		lsrs	r3, r2, #1
 204 016e 43EACC73 		orr	r3, r3, ip, lsl #31
 205 0172 0493     		str	r3, [sp, #16]
 206 0174 4FEA5C03 		lsr	r3, ip, #1
 207 0178 43EAC273 		orr	r3, r3, r2, lsl #31
 208 017c 0593     		str	r3, [sp, #20]
 209 017e 130A     		lsrs	r3, r2, #8
 210 0180 43EA0C6A 		orr	r10, r3, ip, lsl #24
 211 0184 4FEA1C23 		lsr	r3, ip, #8
 212 0188 43EA026B 		orr	fp, r3, r2, lsl #24
 213 018c DDE90401 		ldrd	r0, [sp, #16]
 214 0190 80EA0A00 		eor	r0, r0, r10
 215 0194 81EA0B01 		eor	r1, r1, fp
 216 0198 D609     		lsrs	r6, r2, #7
 217 019a 46EA4C66 		orr	r6, r6, ip, lsl #25
 218 019e 4FEADC17 		lsr	r7, ip, #7
 219 01a2 0246     		mov	r2, r0
 220 01a4 0B46     		mov	r3, r1
ARM GAS  C:\Users\bkettle\AppData\Local\Temp\ccqz8R4u.s 			page 21


 221 01a6 7240     		eors	r2, r2, r6
 222 01a8 7B40     		eors	r3, r3, r7
 909:..\lib\yubico-c-client/sha384-512.c ****       SHA512_sigma0 (W[t - 15]) + W[t - 16];
 223              		.loc 1 909 0 discriminator 3
 224 01aa 1219     		adds	r2, r2, r4
 225 01ac 6B41     		adcs	r3, r3, r5
 226              		.loc 1 910 0 discriminator 3
 227 01ae AEF11001 		sub	r1, lr, #16
 228 01b2 28A8     		add	r0, sp, #160
 229 01b4 00EBC101 		add	r1, r0, r1, lsl #3
 230 01b8 D1E90001 		ldrd	r0, [r1]
 231 01bc 1218     		adds	r2, r2, r0
 232 01be 4B41     		adcs	r3, r3, r1
 909:..\lib\yubico-c-client/sha384-512.c ****       SHA512_sigma0 (W[t - 15]) + W[t - 16];
 233              		.loc 1 909 0 discriminator 3
 234 01c0 28A9     		add	r1, sp, #160
 235 01c2 01EBCE01 		add	r1, r1, lr, lsl #3
 236 01c6 C1E90023 		strd	r2, [r1]
 908:..\lib\yubico-c-client/sha384-512.c ****     W[t] = SHA512_sigma1 (W[t - 2]) + W[t - 7] +
 237              		.loc 1 908 0 discriminator 3
 238 01ca 0EF1010E 		add	lr, lr, #1
 239              	.LVL7:
 240              	.L4:
 908:..\lib\yubico-c-client/sha384-512.c ****     W[t] = SHA512_sigma1 (W[t - 2]) + W[t - 7] +
 241              		.loc 1 908 0 is_stmt 0 discriminator 1
 242 01ce BEF14F0F 		cmp	lr, #79
 243 01d2 8EDD     		ble	.L5
 244 01d4 DDF818C0 		ldr	ip, [sp, #24]
 911:..\lib\yubico-c-client/sha384-512.c **** 
 912:..\lib\yubico-c-client/sha384-512.c ****   A = context->Intermediate_Hash[0];
 245              		.loc 1 912 0 is_stmt 1
 246 01d8 DCE90034 		ldrd	r3, [ip]
 247 01dc CDE91834 		strd	r3, [sp, #96]
 248              	.LVL8:
 913:..\lib\yubico-c-client/sha384-512.c ****   B = context->Intermediate_Hash[1];
 249              		.loc 1 913 0
 250 01e0 DCE90212 		ldrd	r1, [ip, #8]
 251 01e4 CDE91A12 		strd	r1, [sp, #104]
 252              	.LVL9:
 914:..\lib\yubico-c-client/sha384-512.c ****   C = context->Intermediate_Hash[2];
 253              		.loc 1 914 0
 254 01e8 DCE90456 		ldrd	r5, [ip, #16]
 255 01ec A846     		mov	r8, r5
 256 01ee B146     		mov	r9, r6
 257 01f0 CDE91C89 		strd	r8, [sp, #112]
 258              	.LVL10:
 915:..\lib\yubico-c-client/sha384-512.c ****   D = context->Intermediate_Hash[3];
 259              		.loc 1 915 0
 260 01f4 DCE90656 		ldrd	r5, [ip, #24]
 261 01f8 3746     		mov	r7, r6
 262 01fa 2E46     		mov	r6, r5
 263 01fc CDE91E67 		strd	r6, [sp, #120]
 264              	.LVL11:
 916:..\lib\yubico-c-client/sha384-512.c ****   E = context->Intermediate_Hash[4];
 265              		.loc 1 916 0
 266 0200 DCE908AB 		ldrd	r10, [ip, #32]
 267 0204 CDE920AB 		strd	r10, [sp, #128]
ARM GAS  C:\Users\bkettle\AppData\Local\Temp\ccqz8R4u.s 			page 22


 268              	.LVL12:
 917:..\lib\yubico-c-client/sha384-512.c ****   F = context->Intermediate_Hash[5];
 269              		.loc 1 917 0
 270 0208 DCE90A23 		ldrd	r2, [ip, #40]
 271 020c CDE92223 		strd	r2, [sp, #136]
 272              	.LVL13:
 918:..\lib\yubico-c-client/sha384-512.c ****   G = context->Intermediate_Hash[6];
 273              		.loc 1 918 0
 274 0210 DCE90C01 		ldrd	r0, [ip, #48]
 275 0214 CDE92401 		strd	r0, [sp, #144]
 276              	.LVL14:
 919:..\lib\yubico-c-client/sha384-512.c ****   H = context->Intermediate_Hash[7];
 277              		.loc 1 919 0
 278 0218 DCE90E45 		ldrd	r4, [ip, #56]
 279 021c CDE92645 		strd	r4, [sp, #152]
 280              	.LVL15:
 281 0220 CDE90E45 		strd	r4, [sp, #56]
 918:..\lib\yubico-c-client/sha384-512.c ****   G = context->Intermediate_Hash[6];
 282              		.loc 1 918 0
 283 0224 CDE90601 		strd	r0, [sp, #24]
 284              	.LVL16:
 917:..\lib\yubico-c-client/sha384-512.c ****   F = context->Intermediate_Hash[5];
 285              		.loc 1 917 0
 286 0228 CDE90423 		strd	r2, [sp, #16]
 915:..\lib\yubico-c-client/sha384-512.c ****   E = context->Intermediate_Hash[4];
 287              		.loc 1 915 0
 288 022c 3546     		mov	r5, r6
 289 022e 3E46     		mov	r6, r7
 290              	.LVL17:
 291 0230 CDE91656 		strd	r5, [sp, #88]
 914:..\lib\yubico-c-client/sha384-512.c ****   D = context->Intermediate_Hash[3];
 292              		.loc 1 914 0
 293 0234 CDE90289 		strd	r8, [sp, #8]
 913:..\lib\yubico-c-client/sha384-512.c ****   C = context->Intermediate_Hash[2];
 294              		.loc 1 913 0
 295 0238 DDE91A12 		ldrd	r1, [sp, #104]
 296 023c CDE90012 		strd	r1, [sp]
 912:..\lib\yubico-c-client/sha384-512.c ****   B = context->Intermediate_Hash[1];
 297              		.loc 1 912 0
 298 0240 DDE91889 		ldrd	r8, [sp, #96]
 299              	.LVL18:
 920:..\lib\yubico-c-client/sha384-512.c **** 
 921:..\lib\yubico-c-client/sha384-512.c ****   for (t = 0; t < 80; t++)
 300              		.loc 1 921 0
 301 0244 4FF0000E 		mov	lr, #0
 302 0248 DDE90E67 		ldrd	r6, [sp, #56]
 303 024c B0E0     		b	.L6
 304              	.LVL19:
 305              	.L7:
 922:..\lib\yubico-c-client/sha384-512.c ****     {
 923:..\lib\yubico-c-client/sha384-512.c ****       temp1 = H + SHA512_SIGMA1 (E) + SHA_Ch (E, F, G) + K[t] + W[t];
 306              		.loc 1 923 0 discriminator 3
 307 024e 4FEA9A33 		lsr	r3, r10, #14
 308 0252 43EA8B43 		orr	r3, r3, fp, lsl #18
 309 0256 0893     		str	r3, [sp, #32]
 310 0258 4FEA9B33 		lsr	r3, fp, #14
 311 025c 43EA8A43 		orr	r3, r3, r10, lsl #18
ARM GAS  C:\Users\bkettle\AppData\Local\Temp\ccqz8R4u.s 			page 23


 312 0260 0993     		str	r3, [sp, #36]
 313 0262 4FEA9A43 		lsr	r3, r10, #18
 314 0266 43EA8B33 		orr	r3, r3, fp, lsl #14
 315 026a 0A93     		str	r3, [sp, #40]
 316 026c 4FEA9B43 		lsr	r3, fp, #18
 317 0270 43EA8A33 		orr	r3, r3, r10, lsl #14
 318 0274 0B93     		str	r3, [sp, #44]
 319 0276 DDE90823 		ldrd	r2, [sp, #32]
 320 027a DDE90A01 		ldrd	r0, [sp, #40]
 321 027e 4240     		eors	r2, r2, r0
 322 0280 4B40     		eors	r3, r3, r1
 323 0282 4FEACB51 		lsl	r1, fp, #23
 324 0286 41EA5A21 		orr	r1, r1, r10, lsr #9
 325 028a 0D91     		str	r1, [sp, #52]
 326 028c 4FEACA51 		lsl	r1, r10, #23
 327 0290 41EA5B21 		orr	r1, r1, fp, lsr #9
 328 0294 0C91     		str	r1, [sp, #48]
 329 0296 DDE90C01 		ldrd	r0, [sp, #48]
 330 029a 5040     		eors	r0, r0, r2
 331 029c 5940     		eors	r1, r1, r3
 332 029e 3618     		adds	r6, r6, r0
 333              	.LVL20:
 334 02a0 4F41     		adcs	r7, r7, r1
 335 02a2 DDE90423 		ldrd	r2, [sp, #16]
 336 02a6 02EA0A02 		and	r2, r2, r10
 337 02aa 03EA0B03 		and	r3, r3, fp
 338 02ae DDE90601 		ldrd	r0, [sp, #24]
 339 02b2 20EA0A00 		bic	r0, r0, r10
 340 02b6 21EA0B01 		bic	r1, r1, fp
 341 02ba 4240     		eors	r2, r2, r0
 342 02bc 4B40     		eors	r3, r3, r1
 343 02be B618     		adds	r6, r6, r2
 344 02c0 5F41     		adcs	r7, r7, r3
 345 02c2 4FEACE03 		lsl	r3, lr, #3
 346 02c6 624A     		ldr	r2, .L9
 347 02c8 1A44     		add	r2, r2, r3
 348 02ca D2E90001 		ldrd	r0, [r2]
 349 02ce 3618     		adds	r6, r6, r0
 350 02d0 4F41     		adcs	r7, r7, r1
 351 02d2 28AA     		add	r2, sp, #160
 352 02d4 1344     		add	r3, r3, r2
 353 02d6 D3E90023 		ldrd	r2, [r3]
 354 02da B418     		adds	r4, r6, r2
 355 02dc 47EB0305 		adc	r5, r7, r3
 356 02e0 CDE90E45 		strd	r4, [sp, #56]
 357              	.LVL21:
 924:..\lib\yubico-c-client/sha384-512.c ****       temp2 = SHA512_SIGMA0 (A) + SHA_Maj (A, B, C);
 358              		.loc 1 924 0 discriminator 3
 359 02e4 4FEA1873 		lsr	r3, r8, #28
 360 02e8 43EA0913 		orr	r3, r3, r9, lsl #4
 361 02ec 1093     		str	r3, [sp, #64]
 362 02ee 4FEA1973 		lsr	r3, r9, #28
 363 02f2 43EA0813 		orr	r3, r3, r8, lsl #4
 364 02f6 1193     		str	r3, [sp, #68]
 365 02f8 4FEA8973 		lsl	r3, r9, #30
 366 02fc 43EA9803 		orr	r3, r3, r8, lsr #2
 367 0300 1393     		str	r3, [sp, #76]
ARM GAS  C:\Users\bkettle\AppData\Local\Temp\ccqz8R4u.s 			page 24


 368 0302 4FEA8873 		lsl	r3, r8, #30
 369 0306 43EA9903 		orr	r3, r3, r9, lsr #2
 370 030a 1293     		str	r3, [sp, #72]
 371 030c DDE91034 		ldrd	r3, [sp, #64]
 372 0310 DDE91256 		ldrd	r5, [sp, #72]
 373 0314 6B40     		eors	r3, r3, r5
 374 0316 7440     		eors	r4, r4, r6
 375              	.LVL22:
 376 0318 2546     		mov	r5, r4
 377 031a 1C46     		mov	r4, r3
 378 031c 4FEA4963 		lsl	r3, r9, #25
 379 0320 43EAD813 		orr	r3, r3, r8, lsr #7
 380 0324 1593     		str	r3, [sp, #84]
 381 0326 4FEA4863 		lsl	r3, r8, #25
 382 032a 43EAD913 		orr	r3, r3, r9, lsr #7
 383 032e 1493     		str	r3, [sp, #80]
 384 0330 DDE91423 		ldrd	r2, [sp, #80]
 385 0334 6240     		eors	r2, r2, r4
 386 0336 6B40     		eors	r3, r3, r5
 387 0338 1446     		mov	r4, r2
 388 033a 1D46     		mov	r5, r3
 389 033c DDE90067 		ldrd	r6, [sp]
 390 0340 06EA0802 		and	r2, r6, r8
 391 0344 07EA0903 		and	r3, r7, r9
 392 0348 DDE90201 		ldrd	r0, [sp, #8]
 393 034c 00EA0800 		and	r0, r0, r8
 394 0350 01EA0901 		and	r1, r1, r9
 395 0354 4240     		eors	r2, r2, r0
 396 0356 4B40     		eors	r3, r3, r1
 397 0358 3046     		mov	r0, r6
 398 035a 3946     		mov	r1, r7
 399 035c DDE90267 		ldrd	r6, [sp, #8]
 400 0360 3040     		ands	r0, r0, r6
 401 0362 3940     		ands	r1, r1, r7
 402 0364 4240     		eors	r2, r2, r0
 403 0366 4B40     		eors	r3, r3, r1
 404 0368 A418     		adds	r4, r4, r2
 405 036a 5D41     		adcs	r5, r5, r3
 406              	.LVL23:
 921:..\lib\yubico-c-client/sha384-512.c ****     {
 407              		.loc 1 921 0 discriminator 3
 408 036c 0EF1010E 		add	lr, lr, #1
 409              	.LVL24:
 925:..\lib\yubico-c-client/sha384-512.c ****       H = G;
 410              		.loc 1 925 0 discriminator 3
 411 0370 DDE90667 		ldrd	r6, [sp, #24]
 412              	.LVL25:
 926:..\lib\yubico-c-client/sha384-512.c ****       G = F;
 413              		.loc 1 926 0 discriminator 3
 414 0374 DDE90412 		ldrd	r1, [sp, #16]
 415 0378 CDE90612 		strd	r1, [sp, #24]
 416              	.LVL26:
 927:..\lib\yubico-c-client/sha384-512.c ****       F = E;
 417              		.loc 1 927 0 discriminator 3
 418 037c CDE904AB 		strd	r10, [sp, #16]
 419              	.LVL27:
 928:..\lib\yubico-c-client/sha384-512.c ****       E = D + temp1;
ARM GAS  C:\Users\bkettle\AppData\Local\Temp\ccqz8R4u.s 			page 25


 420              		.loc 1 928 0 discriminator 3
 421 0380 DDE916AB 		ldrd	r10, [sp, #88]
 422              	.LVL28:
 423 0384 DDE90E12 		ldrd	r1, [sp, #56]
 424              	.LVL29:
 425 0388 1AEB010A 		adds	r10, r10, r1
 426 038c 4BEB020B 		adc	fp, fp, r2
 929:..\lib\yubico-c-client/sha384-512.c ****       D = C;
 427              		.loc 1 929 0 discriminator 3
 428 0390 DDE90223 		ldrd	r2, [sp, #8]
 429 0394 CDE91623 		strd	r2, [sp, #88]
 430              	.LVL30:
 930:..\lib\yubico-c-client/sha384-512.c ****       C = B;
 431              		.loc 1 930 0 discriminator 3
 432 0398 DDE90001 		ldrd	r0, [sp]
 433 039c CDE90201 		strd	r0, [sp, #8]
 434              	.LVL31:
 931:..\lib\yubico-c-client/sha384-512.c ****       B = A;
 435              		.loc 1 931 0 discriminator 3
 436 03a0 CDE90089 		strd	r8, [sp]
 437              	.LVL32:
 932:..\lib\yubico-c-client/sha384-512.c ****       A = temp1 + temp2;
 438              		.loc 1 932 0 discriminator 3
 439 03a4 DDE90E89 		ldrd	r8, [sp, #56]
 440              	.LVL33:
 441 03a8 18EB0408 		adds	r8, r8, r4
 442 03ac 49EB0509 		adc	r9, r9, r5
 443              	.LVL34:
 444              	.L6:
 921:..\lib\yubico-c-client/sha384-512.c ****     {
 445              		.loc 1 921 0 discriminator 1
 446 03b0 BEF14F0F 		cmp	lr, #79
 447 03b4 7FF74BAF 		ble	.L7
 933:..\lib\yubico-c-client/sha384-512.c ****     }
 934:..\lib\yubico-c-client/sha384-512.c **** 
 935:..\lib\yubico-c-client/sha384-512.c ****   context->Intermediate_Hash[0] += A;
 448              		.loc 1 935 0
 449 03b8 DDE91834 		ldrd	r3, [sp, #96]
 450 03bc 13EB0803 		adds	r3, r3, r8
 451 03c0 44EB0904 		adc	r4, r4, r9
 452 03c4 9846     		mov	r8, r3
 453              	.LVL35:
 454 03c6 A146     		mov	r9, r4
 455 03c8 CCE90089 		strd	r8, [ip]
 936:..\lib\yubico-c-client/sha384-512.c ****   context->Intermediate_Hash[1] += B;
 456              		.loc 1 936 0
 457 03cc DDE90023 		ldrd	r2, [sp]
 458 03d0 DDE91A01 		ldrd	r0, [sp, #104]
 459 03d4 1218     		adds	r2, r2, r0
 460 03d6 4B41     		adcs	r3, r3, r1
 461 03d8 CCE90223 		strd	r2, [ip, #8]
 937:..\lib\yubico-c-client/sha384-512.c ****   context->Intermediate_Hash[2] += C;
 462              		.loc 1 937 0
 463 03dc DDE90223 		ldrd	r2, [sp, #8]
 464 03e0 DDE91C01 		ldrd	r0, [sp, #112]
 465 03e4 1218     		adds	r2, r2, r0
 466 03e6 4B41     		adcs	r3, r3, r1
ARM GAS  C:\Users\bkettle\AppData\Local\Temp\ccqz8R4u.s 			page 26


 467 03e8 CCE90423 		strd	r2, [ip, #16]
 938:..\lib\yubico-c-client/sha384-512.c ****   context->Intermediate_Hash[3] += D;
 468              		.loc 1 938 0
 469 03ec DDE91623 		ldrd	r2, [sp, #88]
 470 03f0 DDE91E01 		ldrd	r0, [sp, #120]
 471 03f4 1218     		adds	r2, r2, r0
 472 03f6 4B41     		adcs	r3, r3, r1
 473 03f8 CCE90623 		strd	r2, [ip, #24]
 939:..\lib\yubico-c-client/sha384-512.c ****   context->Intermediate_Hash[4] += E;
 474              		.loc 1 939 0
 475 03fc DDE92034 		ldrd	r3, [sp, #128]
 476 0400 13EB0A03 		adds	r3, r3, r10
 477 0404 44EB0B04 		adc	r4, r4, fp
 478 0408 9A46     		mov	r10, r3
 479              	.LVL36:
 480 040a A346     		mov	fp, r4
 481 040c CCE908AB 		strd	r10, [ip, #32]
 940:..\lib\yubico-c-client/sha384-512.c ****   context->Intermediate_Hash[5] += F;
 482              		.loc 1 940 0
 483 0410 DDE90423 		ldrd	r2, [sp, #16]
 484 0414 DDE92201 		ldrd	r0, [sp, #136]
 485 0418 1218     		adds	r2, r2, r0
 486 041a 4B41     		adcs	r3, r3, r1
 487 041c CCE90A23 		strd	r2, [ip, #40]
 941:..\lib\yubico-c-client/sha384-512.c ****   context->Intermediate_Hash[6] += G;
 488              		.loc 1 941 0
 489 0420 DDE90623 		ldrd	r2, [sp, #24]
 490 0424 DDE92401 		ldrd	r0, [sp, #144]
 491 0428 1218     		adds	r2, r2, r0
 492 042a 4B41     		adcs	r3, r3, r1
 493 042c CCE90C23 		strd	r2, [ip, #48]
 942:..\lib\yubico-c-client/sha384-512.c ****   context->Intermediate_Hash[7] += H;
 494              		.loc 1 942 0
 495 0430 DDE92601 		ldrd	r0, [sp, #152]
 496 0434 3318     		adds	r3, r6, r0
 497 0436 47EB0104 		adc	r4, r7, r1
 498 043a 1846     		mov	r0, r3
 499 043c 2146     		mov	r1, r4
 500 043e CCE90E01 		strd	r0, [ip, #56]
 943:..\lib\yubico-c-client/sha384-512.c **** #endif /* USE_32BIT_ONLY */
 944:..\lib\yubico-c-client/sha384-512.c **** 
 945:..\lib\yubico-c-client/sha384-512.c ****   context->Message_Block_Index = 0;
 501              		.loc 1 945 0
 502 0442 0023     		movs	r3, #0
 503 0444 ACF85030 		strh	r3, [ip, #80]	@ movhi
 946:..\lib\yubico-c-client/sha384-512.c **** }
 504              		.loc 1 946 0
 505 0448 0DF5497D 		add	sp, sp, #804
 506              		.cfi_def_cfa_offset 36
 507              	.LVL37:
 508              		@ sp needed
 509 044c BDE8F08F 		pop	{r4, r5, r6, r7, r8, r9, r10, fp, pc}
 510              	.LVL38:
 511              	.L10:
 512              		.align	2
 513              	.L9:
 514 0450 00000000 		.word	.LANCHOR0
ARM GAS  C:\Users\bkettle\AppData\Local\Temp\ccqz8R4u.s 			page 27


 515              		.cfi_endproc
 516              	.LFE10:
 517              		.size	SHA384_512ProcessMessageBlock, .-SHA384_512ProcessMessageBlock
 518              		.section	.text.SHA384_512PadMessage,"ax",%progbits
 519              		.align	2
 520              		.thumb
 521              		.thumb_func
 522              		.type	SHA384_512PadMessage, %function
 523              	SHA384_512PadMessage:
 524              	.LFB9:
 641:..\lib\yubico-c-client/sha384-512.c ****   /*
 525              		.loc 1 641 0
 526              		.cfi_startproc
 527              		@ args = 0, pretend = 0, frame = 0
 528              		@ frame_needed = 0, uses_anonymous_args = 0
 529              	.LVL39:
 530 0000 10B5     		push	{r4, lr}
 531              		.cfi_def_cfa_offset 8
 532              		.cfi_offset 4, -8
 533              		.cfi_offset 14, -4
 534 0002 0446     		mov	r4, r0
 648:..\lib\yubico-c-client/sha384-512.c ****     {
 535              		.loc 1 648 0
 536 0004 B0F95030 		ldrsh	r3, [r0, #80]
 537 0008 6F2B     		cmp	r3, #111
 538 000a 15DD     		ble	.L12
 650:..\lib\yubico-c-client/sha384-512.c ****       while (context->Message_Block_Index < SHA512_Message_Block_Size)
 539              		.loc 1 650 0
 540 000c 5A1C     		adds	r2, r3, #1
 541 000e A0F85020 		strh	r2, [r0, #80]	@ movhi
 542 0012 0344     		add	r3, r3, r0
 543 0014 83F85210 		strb	r1, [r3, #82]
 651:..\lib\yubico-c-client/sha384-512.c **** 	context->Message_Block[context->Message_Block_Index++] = 0;
 544              		.loc 1 651 0
 545 0018 06E0     		b	.L13
 546              	.L14:
 652:..\lib\yubico-c-client/sha384-512.c **** 
 547              		.loc 1 652 0
 548 001a 5A1C     		adds	r2, r3, #1
 549 001c A4F85020 		strh	r2, [r4, #80]	@ movhi
 550 0020 2344     		add	r3, r3, r4
 551 0022 0022     		movs	r2, #0
 552 0024 83F85220 		strb	r2, [r3, #82]
 553              	.L13:
 651:..\lib\yubico-c-client/sha384-512.c **** 	context->Message_Block[context->Message_Block_Index++] = 0;
 554              		.loc 1 651 0
 555 0028 B4F95030 		ldrsh	r3, [r4, #80]
 556 002c 7F2B     		cmp	r3, #127
 557 002e F4DD     		ble	.L14
 654:..\lib\yubico-c-client/sha384-512.c ****     }
 558              		.loc 1 654 0
 559 0030 2046     		mov	r0, r4
 560              	.LVL40:
 561 0032 FFF7FEFF 		bl	SHA384_512ProcessMessageBlock
 562              	.LVL41:
 563 0036 0DE0     		b	.L15
 564              	.LVL42:
ARM GAS  C:\Users\bkettle\AppData\Local\Temp\ccqz8R4u.s 			page 28


 565              	.L12:
 657:..\lib\yubico-c-client/sha384-512.c **** 
 566              		.loc 1 657 0
 567 0038 5A1C     		adds	r2, r3, #1
 568 003a A0F85020 		strh	r2, [r0, #80]	@ movhi
 569 003e 0344     		add	r3, r3, r0
 570 0040 83F85210 		strb	r1, [r3, #82]
 571 0044 06E0     		b	.L15
 572              	.LVL43:
 573              	.L17:
 660:..\lib\yubico-c-client/sha384-512.c **** 
 574              		.loc 1 660 0
 575 0046 5A1C     		adds	r2, r3, #1
 576 0048 A4F85020 		strh	r2, [r4, #80]	@ movhi
 577 004c 2344     		add	r3, r3, r4
 578 004e 0022     		movs	r2, #0
 579 0050 83F85220 		strb	r2, [r3, #82]
 580              	.L15:
 659:..\lib\yubico-c-client/sha384-512.c ****     context->Message_Block[context->Message_Block_Index++] = 0;
 581              		.loc 1 659 0
 582 0054 B4F95030 		ldrsh	r3, [r4, #80]
 583 0058 6F2B     		cmp	r3, #111
 584 005a F4DD     		ble	.L17
 684:..\lib\yubico-c-client/sha384-512.c ****   context->Message_Block[113] = (uint8_t) (context->Length_High >> 48);
 585              		.loc 1 684 0
 586 005c A36C     		ldr	r3, [r4, #72]
 587 005e E26C     		ldr	r2, [r4, #76]
 588 0060 110E     		lsrs	r1, r2, #24
 589 0062 84F8C210 		strb	r1, [r4, #194]
 685:..\lib\yubico-c-client/sha384-512.c ****   context->Message_Block[114] = (uint8_t) (context->Length_High >> 40);
 590              		.loc 1 685 0
 591 0066 C2F30741 		ubfx	r1, r2, #16, #8
 592 006a 84F8C310 		strb	r1, [r4, #195]
 686:..\lib\yubico-c-client/sha384-512.c ****   context->Message_Block[115] = (uint8_t) (context->Length_High >> 32);
 593              		.loc 1 686 0
 594 006e C2F30721 		ubfx	r1, r2, #8, #8
 595 0072 84F8C410 		strb	r1, [r4, #196]
 687:..\lib\yubico-c-client/sha384-512.c ****   context->Message_Block[116] = (uint8_t) (context->Length_High >> 24);
 596              		.loc 1 687 0
 597 0076 84F8C520 		strb	r2, [r4, #197]
 688:..\lib\yubico-c-client/sha384-512.c ****   context->Message_Block[117] = (uint8_t) (context->Length_High >> 16);
 598              		.loc 1 688 0
 599 007a 1A0E     		lsrs	r2, r3, #24
 600 007c 84F8C620 		strb	r2, [r4, #198]
 689:..\lib\yubico-c-client/sha384-512.c ****   context->Message_Block[118] = (uint8_t) (context->Length_High >> 8);
 601              		.loc 1 689 0
 602 0080 C3F30742 		ubfx	r2, r3, #16, #8
 603 0084 84F8C720 		strb	r2, [r4, #199]
 690:..\lib\yubico-c-client/sha384-512.c ****   context->Message_Block[119] = (uint8_t) (context->Length_High);
 604              		.loc 1 690 0
 605 0088 C3F30722 		ubfx	r2, r3, #8, #8
 606 008c 84F8C820 		strb	r2, [r4, #200]
 691:..\lib\yubico-c-client/sha384-512.c **** 
 607              		.loc 1 691 0
 608 0090 84F8C930 		strb	r3, [r4, #201]
 693:..\lib\yubico-c-client/sha384-512.c ****   context->Message_Block[121] = (uint8_t) (context->Length_Low >> 48);
 609              		.loc 1 693 0
ARM GAS  C:\Users\bkettle\AppData\Local\Temp\ccqz8R4u.s 			page 29


 610 0094 236C     		ldr	r3, [r4, #64]
 611 0096 626C     		ldr	r2, [r4, #68]
 612 0098 110E     		lsrs	r1, r2, #24
 613 009a 84F8CA10 		strb	r1, [r4, #202]
 694:..\lib\yubico-c-client/sha384-512.c ****   context->Message_Block[122] = (uint8_t) (context->Length_Low >> 40);
 614              		.loc 1 694 0
 615 009e C2F30741 		ubfx	r1, r2, #16, #8
 616 00a2 84F8CB10 		strb	r1, [r4, #203]
 695:..\lib\yubico-c-client/sha384-512.c ****   context->Message_Block[123] = (uint8_t) (context->Length_Low >> 32);
 617              		.loc 1 695 0
 618 00a6 C2F30721 		ubfx	r1, r2, #8, #8
 619 00aa 84F8CC10 		strb	r1, [r4, #204]
 696:..\lib\yubico-c-client/sha384-512.c ****   context->Message_Block[124] = (uint8_t) (context->Length_Low >> 24);
 620              		.loc 1 696 0
 621 00ae 84F8CD20 		strb	r2, [r4, #205]
 697:..\lib\yubico-c-client/sha384-512.c ****   context->Message_Block[125] = (uint8_t) (context->Length_Low >> 16);
 622              		.loc 1 697 0
 623 00b2 1A0E     		lsrs	r2, r3, #24
 624 00b4 84F8CE20 		strb	r2, [r4, #206]
 698:..\lib\yubico-c-client/sha384-512.c ****   context->Message_Block[126] = (uint8_t) (context->Length_Low >> 8);
 625              		.loc 1 698 0
 626 00b8 C3F30742 		ubfx	r2, r3, #16, #8
 627 00bc 84F8CF20 		strb	r2, [r4, #207]
 699:..\lib\yubico-c-client/sha384-512.c ****   context->Message_Block[127] = (uint8_t) (context->Length_Low);
 628              		.loc 1 699 0
 629 00c0 C3F30722 		ubfx	r2, r3, #8, #8
 630 00c4 84F8D020 		strb	r2, [r4, #208]
 700:..\lib\yubico-c-client/sha384-512.c **** #endif /* USE_32BIT_ONLY */
 631              		.loc 1 700 0
 632 00c8 84F8D130 		strb	r3, [r4, #209]
 703:..\lib\yubico-c-client/sha384-512.c **** }
 633              		.loc 1 703 0
 634 00cc 2046     		mov	r0, r4
 635 00ce FFF7FEFF 		bl	SHA384_512ProcessMessageBlock
 636              	.LVL44:
 637 00d2 10BD     		pop	{r4, pc}
 638              		.cfi_endproc
 639              	.LFE9:
 640              		.size	SHA384_512PadMessage, .-SHA384_512PadMessage
 641              		.section	.text.SHA384_512Finalize,"ax",%progbits
 642              		.align	2
 643              		.thumb
 644              		.thumb_func
 645              		.type	SHA384_512Finalize, %function
 646              	SHA384_512Finalize:
 647              	.LFB7:
 573:..\lib\yubico-c-client/sha384-512.c ****   int_least16_t i;
 648              		.loc 1 573 0
 649              		.cfi_startproc
 650              		@ args = 0, pretend = 0, frame = 0
 651              		@ frame_needed = 0, uses_anonymous_args = 0
 652              	.LVL45:
 653 0000 10B5     		push	{r4, lr}
 654              		.cfi_def_cfa_offset 8
 655              		.cfi_offset 4, -8
 656              		.cfi_offset 14, -4
 657 0002 0446     		mov	r4, r0
ARM GAS  C:\Users\bkettle\AppData\Local\Temp\ccqz8R4u.s 			page 30


 575:..\lib\yubico-c-client/sha384-512.c ****   /* message may be sensitive, clear it out */
 658              		.loc 1 575 0
 659 0004 FFF7FEFF 		bl	SHA384_512PadMessage
 660              	.LVL46:
 577:..\lib\yubico-c-client/sha384-512.c ****     context->Message_Block[i] = 0;
 661              		.loc 1 577 0
 662 0008 0023     		movs	r3, #0
 663 000a 05E0     		b	.L20
 664              	.LVL47:
 665              	.L21:
 578:..\lib\yubico-c-client/sha384-512.c **** #ifdef USE_32BIT_ONLY		/* and clear length */
 666              		.loc 1 578 0 discriminator 3
 667 000c E218     		adds	r2, r4, r3
 668 000e 0021     		movs	r1, #0
 669 0010 82F85210 		strb	r1, [r2, #82]
 577:..\lib\yubico-c-client/sha384-512.c ****     context->Message_Block[i] = 0;
 670              		.loc 1 577 0 discriminator 3
 671 0014 0133     		adds	r3, r3, #1
 672              	.LVL48:
 673 0016 1BB2     		sxth	r3, r3
 674              	.LVL49:
 675              	.L20:
 577:..\lib\yubico-c-client/sha384-512.c ****     context->Message_Block[i] = 0;
 676              		.loc 1 577 0 is_stmt 0 discriminator 1
 677 0018 7F2B     		cmp	r3, #127
 678 001a F7DD     		ble	.L21
 583:..\lib\yubico-c-client/sha384-512.c ****   context->Length_High = 0;
 679              		.loc 1 583 0 is_stmt 1
 680 001c 0022     		movs	r2, #0
 681 001e 0023     		movs	r3, #0
 682              	.LVL50:
 683 0020 C4E91023 		strd	r2, [r4, #64]
 584:..\lib\yubico-c-client/sha384-512.c **** #endif /* USE_32BIT_ONLY */
 684              		.loc 1 584 0
 685 0024 C4E91223 		strd	r2, [r4, #72]
 586:..\lib\yubico-c-client/sha384-512.c **** }
 686              		.loc 1 586 0
 687 0028 0123     		movs	r3, #1
 688 002a C4F8D430 		str	r3, [r4, #212]
 689 002e 10BD     		pop	{r4, pc}
 690              		.cfi_endproc
 691              	.LFE7:
 692              		.size	SHA384_512Finalize, .-SHA384_512Finalize
 693              		.section	.text.SHA384_512Reset,"ax",%progbits
 694              		.align	2
 695              		.thumb
 696              		.thumb_func
 697              		.type	SHA384_512Reset, %function
 698              	SHA384_512Reset:
 699              	.LFB11:
 947:..\lib\yubico-c-client/sha384-512.c **** 
 948:..\lib\yubico-c-client/sha384-512.c **** /*
 949:..\lib\yubico-c-client/sha384-512.c ****  * SHA384_512Reset
 950:..\lib\yubico-c-client/sha384-512.c ****  *
 951:..\lib\yubico-c-client/sha384-512.c ****  * Description:
 952:..\lib\yubico-c-client/sha384-512.c ****  *   This helper function will initialize the SHA512Context in
 953:..\lib\yubico-c-client/sha384-512.c ****  *   preparation for computing a new SHA384 or SHA512 message
ARM GAS  C:\Users\bkettle\AppData\Local\Temp\ccqz8R4u.s 			page 31


 954:..\lib\yubico-c-client/sha384-512.c ****  *   digest.
 955:..\lib\yubico-c-client/sha384-512.c ****  *
 956:..\lib\yubico-c-client/sha384-512.c ****  * Parameters:
 957:..\lib\yubico-c-client/sha384-512.c ****  *   context: [in/out]
 958:..\lib\yubico-c-client/sha384-512.c ****  *     The context to reset.
 959:..\lib\yubico-c-client/sha384-512.c ****  *   H0
 960:..\lib\yubico-c-client/sha384-512.c ****  *     The initial hash value to use.
 961:..\lib\yubico-c-client/sha384-512.c ****  *
 962:..\lib\yubico-c-client/sha384-512.c ****  * Returns:
 963:..\lib\yubico-c-client/sha384-512.c ****  *   sha Error Code.
 964:..\lib\yubico-c-client/sha384-512.c ****  *
 965:..\lib\yubico-c-client/sha384-512.c ****  */
 966:..\lib\yubico-c-client/sha384-512.c **** #ifdef USE_32BIT_ONLY
 967:..\lib\yubico-c-client/sha384-512.c **** static int
 968:..\lib\yubico-c-client/sha384-512.c **** SHA384_512Reset (SHA512Context * context, uint32_t H0[])
 969:..\lib\yubico-c-client/sha384-512.c **** #else /* !USE_32BIT_ONLY */
 970:..\lib\yubico-c-client/sha384-512.c **** static int
 971:..\lib\yubico-c-client/sha384-512.c **** SHA384_512Reset (SHA512Context * context, uint64_t H0[])
 972:..\lib\yubico-c-client/sha384-512.c **** #endif				/* USE_32BIT_ONLY */
 973:..\lib\yubico-c-client/sha384-512.c **** {
 700              		.loc 1 973 0
 701              		.cfi_startproc
 702              		@ args = 0, pretend = 0, frame = 0
 703              		@ frame_needed = 0, uses_anonymous_args = 0
 704              		@ link register save eliminated.
 705              	.LVL51:
 974:..\lib\yubico-c-client/sha384-512.c ****   int i;
 975:..\lib\yubico-c-client/sha384-512.c ****   if (!context)
 706              		.loc 1 975 0
 707 0000 D8B1     		cbz	r0, .L27
 973:..\lib\yubico-c-client/sha384-512.c ****   int i;
 708              		.loc 1 973 0
 709 0002 30B4     		push	{r4, r5}
 710              		.cfi_def_cfa_offset 8
 711              		.cfi_offset 4, -8
 712              		.cfi_offset 5, -4
 713 0004 0D46     		mov	r5, r1
 714 0006 0446     		mov	r4, r0
 976:..\lib\yubico-c-client/sha384-512.c ****     return shaNull;
 977:..\lib\yubico-c-client/sha384-512.c **** 
 978:..\lib\yubico-c-client/sha384-512.c ****   context->Message_Block_Index = 0;
 715              		.loc 1 978 0
 716 0008 0022     		movs	r2, #0
 717 000a A0F85020 		strh	r2, [r0, #80]	@ movhi
 979:..\lib\yubico-c-client/sha384-512.c **** 
 980:..\lib\yubico-c-client/sha384-512.c **** #ifdef USE_32BIT_ONLY
 981:..\lib\yubico-c-client/sha384-512.c ****   context->Length[0] = context->Length[1] = 0;
 982:..\lib\yubico-c-client/sha384-512.c ****   context->Length[2] = context->Length[3] = 0;
 983:..\lib\yubico-c-client/sha384-512.c **** 
 984:..\lib\yubico-c-client/sha384-512.c ****   for (i = 0; i < SHA512HashSize / 4; i++)
 985:..\lib\yubico-c-client/sha384-512.c ****     context->Intermediate_Hash[i] = H0[i];
 986:..\lib\yubico-c-client/sha384-512.c **** #else /* !USE_32BIT_ONLY */
 987:..\lib\yubico-c-client/sha384-512.c ****   context->Length_High = context->Length_Low = 0;
 718              		.loc 1 987 0
 719 000e 0020     		movs	r0, #0
 720              	.LVL52:
 721 0010 0021     		movs	r1, #0
ARM GAS  C:\Users\bkettle\AppData\Local\Temp\ccqz8R4u.s 			page 32


 722              	.LVL53:
 723 0012 C4E91001 		strd	r0, [r4, #64]
 724 0016 C4E91201 		strd	r0, [r4, #72]
 725              	.LVL54:
 988:..\lib\yubico-c-client/sha384-512.c **** 
 989:..\lib\yubico-c-client/sha384-512.c ****   for (i = 0; i < SHA512HashSize / 8; i++)
 726              		.loc 1 989 0
 727 001a 06E0     		b	.L25
 728              	.LVL55:
 729              	.L26:
 990:..\lib\yubico-c-client/sha384-512.c ****     context->Intermediate_Hash[i] = H0[i];
 730              		.loc 1 990 0 discriminator 3
 731 001c D300     		lsls	r3, r2, #3
 732 001e E818     		adds	r0, r5, r3
 733 0020 03C8     		ldmia	r0, {r0-r1}
 734 0022 2344     		add	r3, r3, r4
 735 0024 C3E90001 		strd	r0, [r3]
 989:..\lib\yubico-c-client/sha384-512.c ****     context->Intermediate_Hash[i] = H0[i];
 736              		.loc 1 989 0 discriminator 3
 737 0028 0132     		adds	r2, r2, #1
 738              	.LVL56:
 739              	.L25:
 989:..\lib\yubico-c-client/sha384-512.c ****     context->Intermediate_Hash[i] = H0[i];
 740              		.loc 1 989 0 is_stmt 0 discriminator 1
 741 002a 072A     		cmp	r2, #7
 742 002c F6DD     		ble	.L26
 991:..\lib\yubico-c-client/sha384-512.c **** #endif /* USE_32BIT_ONLY */
 992:..\lib\yubico-c-client/sha384-512.c **** 
 993:..\lib\yubico-c-client/sha384-512.c ****   context->Computed = 0;
 743              		.loc 1 993 0 is_stmt 1
 744 002e 0020     		movs	r0, #0
 745 0030 C4F8D400 		str	r0, [r4, #212]
 994:..\lib\yubico-c-client/sha384-512.c ****   context->Corrupted = 0;
 746              		.loc 1 994 0
 747 0034 C4F8D800 		str	r0, [r4, #216]
 995:..\lib\yubico-c-client/sha384-512.c **** 
 996:..\lib\yubico-c-client/sha384-512.c ****   return shaSuccess;
 748              		.loc 1 996 0
 749 0038 01E0     		b	.L24
 750              	.LVL57:
 751              	.L27:
 752              		.cfi_def_cfa_offset 0
 753              		.cfi_restore 4
 754              		.cfi_restore 5
 976:..\lib\yubico-c-client/sha384-512.c **** 
 755              		.loc 1 976 0
 756 003a 0120     		movs	r0, #1
 757              	.LVL58:
 758 003c 7047     		bx	lr
 759              	.LVL59:
 760              	.L24:
 761              		.cfi_def_cfa_offset 8
 762              		.cfi_offset 4, -8
 763              		.cfi_offset 5, -4
 997:..\lib\yubico-c-client/sha384-512.c **** }
 764              		.loc 1 997 0
 765 003e 30BC     		pop	{r4, r5}
ARM GAS  C:\Users\bkettle\AppData\Local\Temp\ccqz8R4u.s 			page 33


 766              		.cfi_restore 5
 767              		.cfi_restore 4
 768              		.cfi_def_cfa_offset 0
 769              	.LVL60:
 770 0040 7047     		bx	lr
 771              		.cfi_endproc
 772              	.LFE11:
 773              		.size	SHA384_512Reset, .-SHA384_512Reset
 774 0042 00BF     		.section	.text.SHA384_512ResultN,"ax",%progbits
 775              		.align	2
 776              		.thumb
 777              		.thumb_func
 778              		.type	SHA384_512ResultN, %function
 779              	SHA384_512ResultN:
 780              	.LFB12:
 998:..\lib\yubico-c-client/sha384-512.c **** 
 999:..\lib\yubico-c-client/sha384-512.c **** /*
1000:..\lib\yubico-c-client/sha384-512.c ****  * SHA384_512ResultN
1001:..\lib\yubico-c-client/sha384-512.c ****  *
1002:..\lib\yubico-c-client/sha384-512.c ****  * Description:
1003:..\lib\yubico-c-client/sha384-512.c ****  *   This helper function will return the 384-bit or 512-bit message
1004:..\lib\yubico-c-client/sha384-512.c ****  *   digest into the Message_Digest array provided by the caller.
1005:..\lib\yubico-c-client/sha384-512.c ****  *   NOTE: The first octet of hash is stored in the 0th element,
1006:..\lib\yubico-c-client/sha384-512.c ****  *      the last octet of hash in the 48th/64th element.
1007:..\lib\yubico-c-client/sha384-512.c ****  *
1008:..\lib\yubico-c-client/sha384-512.c ****  * Parameters:
1009:..\lib\yubico-c-client/sha384-512.c ****  *   context: [in/out]
1010:..\lib\yubico-c-client/sha384-512.c ****  *     The context to use to calculate the SHA hash.
1011:..\lib\yubico-c-client/sha384-512.c ****  *   Message_Digest: [out]
1012:..\lib\yubico-c-client/sha384-512.c ****  *     Where the digest is returned.
1013:..\lib\yubico-c-client/sha384-512.c ****  *   HashSize: [in]
1014:..\lib\yubico-c-client/sha384-512.c ****  *     The size of the hash, either 48 or 64.
1015:..\lib\yubico-c-client/sha384-512.c ****  *
1016:..\lib\yubico-c-client/sha384-512.c ****  * Returns:
1017:..\lib\yubico-c-client/sha384-512.c ****  *   sha Error Code.
1018:..\lib\yubico-c-client/sha384-512.c ****  *
1019:..\lib\yubico-c-client/sha384-512.c ****  */
1020:..\lib\yubico-c-client/sha384-512.c **** static int
1021:..\lib\yubico-c-client/sha384-512.c **** SHA384_512ResultN (SHA512Context * context,
1022:..\lib\yubico-c-client/sha384-512.c **** 		   uint8_t Message_Digest[], int HashSize)
1023:..\lib\yubico-c-client/sha384-512.c **** {
 781              		.loc 1 1023 0
 782              		.cfi_startproc
 783              		@ args = 0, pretend = 0, frame = 0
 784              		@ frame_needed = 0, uses_anonymous_args = 0
 785              	.LVL61:
 786 0000 2DE9F041 		push	{r4, r5, r6, r7, r8, lr}
 787              		.cfi_def_cfa_offset 24
 788              		.cfi_offset 4, -24
 789              		.cfi_offset 5, -20
 790              		.cfi_offset 6, -16
 791              		.cfi_offset 7, -12
 792              		.cfi_offset 8, -8
 793              		.cfi_offset 14, -4
1024:..\lib\yubico-c-client/sha384-512.c ****   int i;
1025:..\lib\yubico-c-client/sha384-512.c **** 
1026:..\lib\yubico-c-client/sha384-512.c **** #ifdef USE_32BIT_ONLY
ARM GAS  C:\Users\bkettle\AppData\Local\Temp\ccqz8R4u.s 			page 34


1027:..\lib\yubico-c-client/sha384-512.c ****   int i2;
1028:..\lib\yubico-c-client/sha384-512.c **** #endif /* USE_32BIT_ONLY */
1029:..\lib\yubico-c-client/sha384-512.c **** 
1030:..\lib\yubico-c-client/sha384-512.c ****   if (!context || !Message_Digest)
 794              		.loc 1 1030 0
 795 0004 A0B3     		cbz	r0, .L36
 796 0006 0446     		mov	r4, r0
 797              		.loc 1 1030 0 is_stmt 0 discriminator 1
 798 0008 A1B3     		cbz	r1, .L37
1031:..\lib\yubico-c-client/sha384-512.c ****     return shaNull;
1032:..\lib\yubico-c-client/sha384-512.c **** 
1033:..\lib\yubico-c-client/sha384-512.c ****   if (context->Corrupted)
 799              		.loc 1 1033 0 is_stmt 1
 800 000a D0F8D870 		ldr	r7, [r0, #216]
 801 000e 97BB     		cbnz	r7, .L31
 802 0010 1646     		mov	r6, r2
 803 0012 0D46     		mov	r5, r1
1034:..\lib\yubico-c-client/sha384-512.c ****     return context->Corrupted;
1035:..\lib\yubico-c-client/sha384-512.c **** 
1036:..\lib\yubico-c-client/sha384-512.c ****   if (!context->Computed)
 804              		.loc 1 1036 0
 805 0014 D0F8D430 		ldr	r3, [r0, #212]
 806 0018 13B9     		cbnz	r3, .L32
1037:..\lib\yubico-c-client/sha384-512.c ****     SHA384_512Finalize (context, 0x80);
 807              		.loc 1 1037 0
 808 001a 8021     		movs	r1, #128
 809              	.LVL62:
 810 001c FFF7FEFF 		bl	SHA384_512Finalize
 811              	.LVL63:
 812              	.L32:
1023:..\lib\yubico-c-client/sha384-512.c ****   int i;
 813              		.loc 1 1023 0 discriminator 1
 814 0020 0021     		movs	r1, #0
 815 0022 22E0     		b	.L33
 816              	.LVL64:
 817              	.L35:
1038:..\lib\yubico-c-client/sha384-512.c **** 
1039:..\lib\yubico-c-client/sha384-512.c **** #ifdef USE_32BIT_ONLY
1040:..\lib\yubico-c-client/sha384-512.c ****   for (i = i2 = 0; i < HashSize;)
1041:..\lib\yubico-c-client/sha384-512.c ****     {
1042:..\lib\yubico-c-client/sha384-512.c ****       Message_Digest[i++] = (uint8_t) (context->Intermediate_Hash[i2] >> 24);
1043:..\lib\yubico-c-client/sha384-512.c ****       Message_Digest[i++] = (uint8_t) (context->Intermediate_Hash[i2] >> 16);
1044:..\lib\yubico-c-client/sha384-512.c ****       Message_Digest[i++] = (uint8_t) (context->Intermediate_Hash[i2] >> 8);
1045:..\lib\yubico-c-client/sha384-512.c ****       Message_Digest[i++] = (uint8_t) (context->Intermediate_Hash[i2++]);
1046:..\lib\yubico-c-client/sha384-512.c ****       Message_Digest[i++] = (uint8_t) (context->Intermediate_Hash[i2] >> 24);
1047:..\lib\yubico-c-client/sha384-512.c ****       Message_Digest[i++] = (uint8_t) (context->Intermediate_Hash[i2] >> 16);
1048:..\lib\yubico-c-client/sha384-512.c ****       Message_Digest[i++] = (uint8_t) (context->Intermediate_Hash[i2] >> 8);
1049:..\lib\yubico-c-client/sha384-512.c ****       Message_Digest[i++] = (uint8_t) (context->Intermediate_Hash[i2++]);
1050:..\lib\yubico-c-client/sha384-512.c ****     }
1051:..\lib\yubico-c-client/sha384-512.c **** #else /* !USE_32BIT_ONLY */
1052:..\lib\yubico-c-client/sha384-512.c ****   for (i = 0; i < HashSize; ++i)
1053:..\lib\yubico-c-client/sha384-512.c ****     Message_Digest[i] = (uint8_t)
 818              		.loc 1 1053 0 discriminator 3
 819 0024 05EB010C 		add	ip, r5, r1
1054:..\lib\yubico-c-client/sha384-512.c ****       (context->Intermediate_Hash[i >> 3] >> 8 * (7 - (i % 8)));
 820              		.loc 1 1054 0 discriminator 3
 821 0028 CB10     		asrs	r3, r1, #3
ARM GAS  C:\Users\bkettle\AppData\Local\Temp\ccqz8R4u.s 			page 35


 822 002a 04EBC300 		add	r0, r4, r3, lsl #3
 823 002e 54F83320 		ldr	r2, [r4, r3, lsl #3]
 824 0032 D0F804E0 		ldr	lr, [r0, #4]
 825 0036 114B     		ldr	r3, .L39
 826 0038 0B40     		ands	r3, r1, r3
 827 003a 03D5     		bpl	.L34
 828 003c 013B     		subs	r3, r3, #1
 829 003e 63F00703 		orn	r3, r3, #7
 830 0042 0133     		adds	r3, r3, #1
 831              	.L34:
 832 0044 C3F10703 		rsb	r3, r3, #7
 833 0048 DB00     		lsls	r3, r3, #3
 834 004a C3F12008 		rsb	r8, r3, #32
 835 004e A3F12000 		sub	r0, r3, #32
 836 0052 22FA03F3 		lsr	r3, r2, r3
 837 0056 0EFA08F8 		lsl	r8, lr, r8
 838 005a 43EA0803 		orr	r3, r3, r8
 839 005e 2EFA00F0 		lsr	r0, lr, r0
 840 0062 0343     		orrs	r3, r3, r0
1053:..\lib\yubico-c-client/sha384-512.c ****       (context->Intermediate_Hash[i >> 3] >> 8 * (7 - (i % 8)));
 841              		.loc 1 1053 0 discriminator 3
 842 0064 8CF80030 		strb	r3, [ip]
1052:..\lib\yubico-c-client/sha384-512.c ****     Message_Digest[i] = (uint8_t)
 843              		.loc 1 1052 0 discriminator 3
 844 0068 0131     		adds	r1, r1, #1
 845              	.LVL65:
 846              	.L33:
1052:..\lib\yubico-c-client/sha384-512.c ****     Message_Digest[i] = (uint8_t)
 847              		.loc 1 1052 0 is_stmt 0 discriminator 1
 848 006a B142     		cmp	r1, r6
 849 006c DADB     		blt	.L35
 850 006e 02E0     		b	.L31
 851              	.LVL66:
 852              	.L36:
1031:..\lib\yubico-c-client/sha384-512.c **** 
 853              		.loc 1 1031 0 is_stmt 1
 854 0070 0127     		movs	r7, #1
 855 0072 00E0     		b	.L31
 856              	.L37:
 857 0074 0127     		movs	r7, #1
 858              	.LVL67:
 859              	.L31:
1055:..\lib\yubico-c-client/sha384-512.c **** #endif /* USE_32BIT_ONLY */
1056:..\lib\yubico-c-client/sha384-512.c **** 
1057:..\lib\yubico-c-client/sha384-512.c ****   return shaSuccess;
1058:..\lib\yubico-c-client/sha384-512.c **** }
 860              		.loc 1 1058 0
 861 0076 3846     		mov	r0, r7
 862 0078 BDE8F081 		pop	{r4, r5, r6, r7, r8, pc}
 863              	.L40:
 864              		.align	2
 865              	.L39:
 866 007c 07000080 		.word	-2147483641
 867              		.cfi_endproc
 868              	.LFE12:
 869              		.size	SHA384_512ResultN, .-SHA384_512ResultN
 870              		.section	.text.SHA384Reset,"ax",%progbits
ARM GAS  C:\Users\bkettle\AppData\Local\Temp\ccqz8R4u.s 			page 36


 871              		.align	2
 872              		.global	SHA384Reset
 873              		.thumb
 874              		.thumb_func
 875              		.type	SHA384Reset, %function
 876              	SHA384Reset:
 877              	.LFB0:
 335:..\lib\yubico-c-client/sha384-512.c ****   return SHA384_512Reset (context, SHA384_H0);
 878              		.loc 1 335 0
 879              		.cfi_startproc
 880              		@ args = 0, pretend = 0, frame = 0
 881              		@ frame_needed = 0, uses_anonymous_args = 0
 882              	.LVL68:
 883 0000 08B5     		push	{r3, lr}
 884              		.cfi_def_cfa_offset 8
 885              		.cfi_offset 3, -8
 886              		.cfi_offset 14, -4
 336:..\lib\yubico-c-client/sha384-512.c **** }
 887              		.loc 1 336 0
 888 0002 0249     		ldr	r1, .L43
 889 0004 FFF7FEFF 		bl	SHA384_512Reset
 890              	.LVL69:
 337:..\lib\yubico-c-client/sha384-512.c **** 
 891              		.loc 1 337 0
 892 0008 08BD     		pop	{r3, pc}
 893              	.L44:
 894 000a 00BF     		.align	2
 895              	.L43:
 896 000c 00000000 		.word	.LANCHOR1
 897              		.cfi_endproc
 898              	.LFE0:
 899              		.size	SHA384Reset, .-SHA384Reset
 900              		.section	.text.SHA384Result,"ax",%progbits
 901              		.align	2
 902              		.global	SHA384Result
 903              		.thumb
 904              		.thumb_func
 905              		.type	SHA384Result, %function
 906              	SHA384Result:
 907              	.LFB3:
 414:..\lib\yubico-c-client/sha384-512.c ****   return SHA384_512ResultN (context, Message_Digest, SHA384HashSize);
 908              		.loc 1 414 0
 909              		.cfi_startproc
 910              		@ args = 0, pretend = 0, frame = 0
 911              		@ frame_needed = 0, uses_anonymous_args = 0
 912              	.LVL70:
 913 0000 08B5     		push	{r3, lr}
 914              		.cfi_def_cfa_offset 8
 915              		.cfi_offset 3, -8
 916              		.cfi_offset 14, -4
 415:..\lib\yubico-c-client/sha384-512.c **** }
 917              		.loc 1 415 0
 918 0002 3022     		movs	r2, #48
 919 0004 FFF7FEFF 		bl	SHA384_512ResultN
 920              	.LVL71:
 416:..\lib\yubico-c-client/sha384-512.c **** 
 921              		.loc 1 416 0
ARM GAS  C:\Users\bkettle\AppData\Local\Temp\ccqz8R4u.s 			page 37


 922 0008 08BD     		pop	{r3, pc}
 923              		.cfi_endproc
 924              	.LFE3:
 925              		.size	SHA384Result, .-SHA384Result
 926 000a 00BF     		.section	.text.SHA512Reset,"ax",%progbits
 927              		.align	2
 928              		.global	SHA512Reset
 929              		.thumb
 930              		.thumb_func
 931              		.type	SHA512Reset, %function
 932              	SHA512Reset:
 933              	.LFB4:
 435:..\lib\yubico-c-client/sha384-512.c ****   return SHA384_512Reset (context, SHA512_H0);
 934              		.loc 1 435 0
 935              		.cfi_startproc
 936              		@ args = 0, pretend = 0, frame = 0
 937              		@ frame_needed = 0, uses_anonymous_args = 0
 938              	.LVL72:
 939 0000 08B5     		push	{r3, lr}
 940              		.cfi_def_cfa_offset 8
 941              		.cfi_offset 3, -8
 942              		.cfi_offset 14, -4
 436:..\lib\yubico-c-client/sha384-512.c **** }
 943              		.loc 1 436 0
 944 0002 0249     		ldr	r1, .L49
 945 0004 FFF7FEFF 		bl	SHA384_512Reset
 946              	.LVL73:
 437:..\lib\yubico-c-client/sha384-512.c **** 
 947              		.loc 1 437 0
 948 0008 08BD     		pop	{r3, pc}
 949              	.L50:
 950 000a 00BF     		.align	2
 951              	.L49:
 952 000c 40000000 		.word	.LANCHOR1+64
 953              		.cfi_endproc
 954              	.LFE4:
 955              		.size	SHA512Reset, .-SHA512Reset
 956              		.section	.text.SHA512Input,"ax",%progbits
 957              		.align	2
 958              		.global	SHA512Input
 959              		.thumb
 960              		.thumb_func
 961              		.type	SHA512Input, %function
 962              	SHA512Input:
 963              	.LFB5:
 462:..\lib\yubico-c-client/sha384-512.c ****   if (!length)
 964              		.loc 1 462 0
 965              		.cfi_startproc
 966              		@ args = 0, pretend = 0, frame = 0
 967              		@ frame_needed = 0, uses_anonymous_args = 0
 968              	.LVL74:
 969 0000 2DE9F041 		push	{r4, r5, r6, r7, r8, lr}
 970              		.cfi_def_cfa_offset 24
 971              		.cfi_offset 4, -24
 972              		.cfi_offset 5, -20
 973              		.cfi_offset 6, -16
 974              		.cfi_offset 7, -12
ARM GAS  C:\Users\bkettle\AppData\Local\Temp\ccqz8R4u.s 			page 38


 975              		.cfi_offset 8, -8
 976              		.cfi_offset 14, -4
 463:..\lib\yubico-c-client/sha384-512.c ****     return shaSuccess;
 977              		.loc 1 463 0
 978 0004 002A     		cmp	r2, #0
 979 0006 46D0     		beq	.L58
 980 0008 0446     		mov	r4, r0
 981 000a 0D46     		mov	r5, r1
 982 000c 1346     		mov	r3, r2
 466:..\lib\yubico-c-client/sha384-512.c ****     return shaNull;
 983              		.loc 1 466 0
 984 000e 0028     		cmp	r0, #0
 985 0010 44D0     		beq	.L59
 466:..\lib\yubico-c-client/sha384-512.c ****     return shaNull;
 986              		.loc 1 466 0 is_stmt 0 discriminator 1
 987 0012 0029     		cmp	r1, #0
 988 0014 45D0     		beq	.L60
 469:..\lib\yubico-c-client/sha384-512.c ****     {
 989              		.loc 1 469 0 is_stmt 1
 990 0016 D0F8D420 		ldr	r2, [r0, #212]
 991              	.LVL75:
 992 001a 22B1     		cbz	r2, .L53
 471:..\lib\yubico-c-client/sha384-512.c ****       return shaStateError;
 993              		.loc 1 471 0
 994 001c 0326     		movs	r6, #3
 995 001e C0F8D860 		str	r6, [r0, #216]
 472:..\lib\yubico-c-client/sha384-512.c ****     }
 996              		.loc 1 472 0
 997 0022 B046     		mov	r8, r6
 998 0024 3FE0     		b	.L52
 999              	.L53:
 475:..\lib\yubico-c-client/sha384-512.c ****     return context->Corrupted;
 1000              		.loc 1 475 0
 1001 0026 D0F8D880 		ldr	r8, [r0, #216]
 1002 002a B8F1000F 		cmp	r8, #0
 1003 002e 2BD0     		beq	.L54
 1004 0030 39E0     		b	.L52
 1005              	.LVL76:
 1006              	.L57:
 480:..\lib\yubico-c-client/sha384-512.c **** 	(*message_array & 0xFF);
 1007              		.loc 1 480 0
 1008 0032 B4F95030 		ldrsh	r3, [r4, #80]
 1009 0036 5A1C     		adds	r2, r3, #1
 1010 0038 A4F85020 		strh	r2, [r4, #80]	@ movhi
 481:..\lib\yubico-c-client/sha384-512.c **** 
 1011              		.loc 1 481 0
 1012 003c 2A78     		ldrb	r2, [r5]	@ zero_extendqisi2
 480:..\lib\yubico-c-client/sha384-512.c **** 	(*message_array & 0xFF);
 1013              		.loc 1 480 0
 1014 003e 2344     		add	r3, r3, r4
 1015 0040 83F85220 		strb	r2, [r3, #82]
 483:..\lib\yubico-c-client/sha384-512.c **** 	  (context->Message_Block_Index == SHA512_Message_Block_Size))
 1016              		.loc 1 483 0
 1017 0044 D4E91023 		ldrd	r2, [r4, #64]
 1018 0048 12F10800 		adds	r0, r2, #8
 1019 004c 43F10001 		adc	r1, r3, #0
 1020 0050 C4E91001 		strd	r0, [r4, #64]
ARM GAS  C:\Users\bkettle\AppData\Local\Temp\ccqz8R4u.s 			page 39


 1021 0054 9942     		cmp	r1, r3
 1022 0056 08BF     		it	eq
 1023 0058 9042     		cmpeq	r0, r2
 1024 005a 09D2     		bcs	.L55
 483:..\lib\yubico-c-client/sha384-512.c **** 	  (context->Message_Block_Index == SHA512_Message_Block_Size))
 1025              		.loc 1 483 0 is_stmt 0 discriminator 1
 1026 005c D4E91223 		ldrd	r2, [r4, #72]
 1027 0060 0132     		adds	r2, r2, #1
 1028 0062 43F10003 		adc	r3, r3, #0
 1029 0066 C4E91223 		strd	r2, [r4, #72]
 1030 006a 1343     		orrs	r3, r2, r3
 1031 006c 00D1     		bne	.L55
 483:..\lib\yubico-c-client/sha384-512.c **** 	  (context->Message_Block_Index == SHA512_Message_Block_Size))
 1032              		.loc 1 483 0
 1033 006e 0126     		movs	r6, #1
 1034              	.L55:
 483:..\lib\yubico-c-client/sha384-512.c **** 	  (context->Message_Block_Index == SHA512_Message_Block_Size))
 1035              		.loc 1 483 0 discriminator 6
 1036 0070 C4F8D860 		str	r6, [r4, #216]
 1037 0074 36B9     		cbnz	r6, .L56
 484:..\lib\yubico-c-client/sha384-512.c **** 	SHA384_512ProcessMessageBlock (context);
 1038              		.loc 1 484 0 is_stmt 1 discriminator 7
 1039 0076 B4F95030 		ldrsh	r3, [r4, #80]
 483:..\lib\yubico-c-client/sha384-512.c **** 	  (context->Message_Block_Index == SHA512_Message_Block_Size))
 1040              		.loc 1 483 0 discriminator 7
 1041 007a 802B     		cmp	r3, #128
 1042 007c 02D1     		bne	.L56
 485:..\lib\yubico-c-client/sha384-512.c **** 
 1043              		.loc 1 485 0
 1044 007e 2046     		mov	r0, r4
 1045 0080 FFF7FEFF 		bl	SHA384_512ProcessMessageBlock
 1046              	.LVL77:
 1047              	.L56:
 487:..\lib\yubico-c-client/sha384-512.c ****     }
 1048              		.loc 1 487 0
 1049 0084 0135     		adds	r5, r5, #1
 1050              	.LVL78:
 478:..\lib\yubico-c-client/sha384-512.c ****     {
 1051              		.loc 1 478 0
 1052 0086 3B46     		mov	r3, r7
 1053              	.LVL79:
 1054              	.L54:
 1055 0088 5F1E     		subs	r7, r3, #1
 1056              	.LVL80:
 1057 008a 63B1     		cbz	r3, .L52
 478:..\lib\yubico-c-client/sha384-512.c ****     {
 1058              		.loc 1 478 0 is_stmt 0 discriminator 1
 1059 008c D4F8D860 		ldr	r6, [r4, #216]
 1060 0090 002E     		cmp	r6, #0
 1061 0092 CED0     		beq	.L57
 1062 0094 07E0     		b	.L52
 1063              	.LVL81:
 1064              	.L58:
 464:..\lib\yubico-c-client/sha384-512.c **** 
 1065              		.loc 1 464 0 is_stmt 1
 1066 0096 4FF00008 		mov	r8, #0
 1067 009a 04E0     		b	.L52
ARM GAS  C:\Users\bkettle\AppData\Local\Temp\ccqz8R4u.s 			page 40


 1068              	.L59:
 467:..\lib\yubico-c-client/sha384-512.c **** 
 1069              		.loc 1 467 0
 1070 009c 4FF00108 		mov	r8, #1
 1071 00a0 01E0     		b	.L52
 1072              	.L60:
 1073 00a2 4FF00108 		mov	r8, #1
 1074              	.LVL82:
 1075              	.L52:
 491:..\lib\yubico-c-client/sha384-512.c **** 
 1076              		.loc 1 491 0
 1077 00a6 4046     		mov	r0, r8
 1078 00a8 BDE8F081 		pop	{r4, r5, r6, r7, r8, pc}
 1079              		.cfi_endproc
 1080              	.LFE5:
 1081              		.size	SHA512Input, .-SHA512Input
 1082              		.section	.text.SHA384Input,"ax",%progbits
 1083              		.align	2
 1084              		.global	SHA384Input
 1085              		.thumb
 1086              		.thumb_func
 1087              		.type	SHA384Input, %function
 1088              	SHA384Input:
 1089              	.LFB1:
 362:..\lib\yubico-c-client/sha384-512.c ****   return SHA512Input (context, message_array, length);
 1090              		.loc 1 362 0
 1091              		.cfi_startproc
 1092              		@ args = 0, pretend = 0, frame = 0
 1093              		@ frame_needed = 0, uses_anonymous_args = 0
 1094              	.LVL83:
 1095 0000 08B5     		push	{r3, lr}
 1096              		.cfi_def_cfa_offset 8
 1097              		.cfi_offset 3, -8
 1098              		.cfi_offset 14, -4
 363:..\lib\yubico-c-client/sha384-512.c **** }
 1099              		.loc 1 363 0
 1100 0002 FFF7FEFF 		bl	SHA512Input
 1101              	.LVL84:
 364:..\lib\yubico-c-client/sha384-512.c **** 
 1102              		.loc 1 364 0
 1103 0006 08BD     		pop	{r3, pc}
 1104              		.cfi_endproc
 1105              	.LFE1:
 1106              		.size	SHA384Input, .-SHA384Input
 1107              		.section	.text.SHA512FinalBits,"ax",%progbits
 1108              		.align	2
 1109              		.global	SHA512FinalBits
 1110              		.thumb
 1111              		.thumb_func
 1112              		.type	SHA512FinalBits, %function
 1113              	SHA512FinalBits:
 1114              	.LFB6:
 516:..\lib\yubico-c-client/sha384-512.c ****   uint8_t masks[8] = {
 1115              		.loc 1 516 0
 1116              		.cfi_startproc
 1117              		@ args = 0, pretend = 0, frame = 16
 1118              		@ frame_needed = 0, uses_anonymous_args = 0
ARM GAS  C:\Users\bkettle\AppData\Local\Temp\ccqz8R4u.s 			page 41


 1119              	.LVL85:
 1120 0000 2DE97043 		push	{r4, r5, r6, r8, r9, lr}
 1121              		.cfi_def_cfa_offset 24
 1122              		.cfi_offset 4, -24
 1123              		.cfi_offset 5, -20
 1124              		.cfi_offset 6, -16
 1125              		.cfi_offset 8, -12
 1126              		.cfi_offset 9, -8
 1127              		.cfi_offset 14, -4
 1128 0004 84B0     		sub	sp, sp, #16
 1129              		.cfi_def_cfa_offset 40
 1130 0006 0546     		mov	r5, r0
 1131 0008 0E46     		mov	r6, r1
 517:..\lib\yubico-c-client/sha384-512.c ****     /* 0 0b00000000 */ 0x00, /* 1 0b10000000 */ 0x80,
 1132              		.loc 1 517 0
 1133 000a 274B     		ldr	r3, .L74
 1134 000c 02AC     		add	r4, sp, #8
 1135 000e D3F88002 		ldr	r0, [r3, #640]	@ unaligned
 1136              	.LVL86:
 1137 0012 D3F88412 		ldr	r1, [r3, #644]	@ unaligned
 1138              	.LVL87:
 1139 0016 03C4     		stmia	r4!, {r0, r1}
 523:..\lib\yubico-c-client/sha384-512.c ****     /* 0 0b10000000 */ 0x80, /* 1 0b01000000 */ 0x40,
 1140              		.loc 1 523 0
 1141 0018 6C46     		mov	r4, sp
 1142 001a D3F88802 		ldr	r0, [r3, #648]	@ unaligned
 1143 001e D3F88C12 		ldr	r1, [r3, #652]	@ unaligned
 1144 0022 03C4     		stmia	r4!, {r0, r1}
 530:..\lib\yubico-c-client/sha384-512.c ****     return shaSuccess;
 1145              		.loc 1 530 0
 1146 0024 002A     		cmp	r2, #0
 1147 0026 38D0     		beq	.L69
 1148 0028 1146     		mov	r1, r2
 533:..\lib\yubico-c-client/sha384-512.c ****     return shaNull;
 1149              		.loc 1 533 0
 1150 002a 002D     		cmp	r5, #0
 1151 002c 37D0     		beq	.L70
 536:..\lib\yubico-c-client/sha384-512.c ****     {
 1152              		.loc 1 536 0
 1153 002e D5F8D430 		ldr	r3, [r5, #212]
 1154 0032 13B9     		cbnz	r3, .L66
 536:..\lib\yubico-c-client/sha384-512.c ****     {
 1155              		.loc 1 536 0 is_stmt 0 discriminator 1
 1156 0034 072A     		cmp	r2, #7
 1157 0036 00D8     		bhi	.L66
 536:..\lib\yubico-c-client/sha384-512.c ****     {
 1158              		.loc 1 536 0 discriminator 2
 1159 0038 1AB9     		cbnz	r2, .L67
 1160              	.L66:
 538:..\lib\yubico-c-client/sha384-512.c ****       return shaStateError;
 1161              		.loc 1 538 0 is_stmt 1
 1162 003a 0324     		movs	r4, #3
 1163 003c C5F8D840 		str	r4, [r5, #216]
 539:..\lib\yubico-c-client/sha384-512.c ****     }
 1164              		.loc 1 539 0
 1165 0040 2EE0     		b	.L65
 1166              	.L67:
ARM GAS  C:\Users\bkettle\AppData\Local\Temp\ccqz8R4u.s 			page 42


 542:..\lib\yubico-c-client/sha384-512.c ****     return context->Corrupted;
 1167              		.loc 1 542 0
 1168 0042 D5F8D840 		ldr	r4, [r5, #216]
 1169 0046 5CBB     		cbnz	r4, .L65
 545:..\lib\yubico-c-client/sha384-512.c ****   SHA384_512Finalize (context, (uint8_t)
 1170              		.loc 1 545 0
 1171 0048 D5E91023 		ldrd	r2, [r5, #64]
 1172              	.LVL88:
 1173 004c 12EB0108 		adds	r8, r2, r1
 1174 0050 43F10009 		adc	r9, r3, #0
 1175 0054 C5E91089 		strd	r8, [r5, #64]
 1176 0058 9945     		cmp	r9, r3
 1177 005a 08BF     		it	eq
 1178 005c 9045     		cmpeq	r8, r2
 1179 005e 0AD2     		bcs	.L71
 545:..\lib\yubico-c-client/sha384-512.c ****   SHA384_512Finalize (context, (uint8_t)
 1180              		.loc 1 545 0 is_stmt 0 discriminator 1
 1181 0060 D5E91223 		ldrd	r2, [r5, #72]
 1182 0064 0132     		adds	r2, r2, #1
 1183 0066 43F10003 		adc	r3, r3, #0
 1184 006a C5E91223 		strd	r2, [r5, #72]
 1185 006e 1343     		orrs	r3, r2, r3
 1186 0070 03D1     		bne	.L72
 545:..\lib\yubico-c-client/sha384-512.c ****   SHA384_512Finalize (context, (uint8_t)
 1187              		.loc 1 545 0
 1188 0072 0123     		movs	r3, #1
 1189 0074 02E0     		b	.L68
 1190              	.L71:
 1191 0076 2346     		mov	r3, r4
 1192 0078 00E0     		b	.L68
 1193              	.L72:
 1194 007a 2346     		mov	r3, r4
 1195              	.L68:
 1196 007c 2846     		mov	r0, r5
 545:..\lib\yubico-c-client/sha384-512.c ****   SHA384_512Finalize (context, (uint8_t)
 1197              		.loc 1 545 0 discriminator 6
 1198 007e C5F8D830 		str	r3, [r5, #216]
 547:..\lib\yubico-c-client/sha384-512.c **** 
 1199              		.loc 1 547 0 is_stmt 1 discriminator 6
 1200 0082 04AB     		add	r3, sp, #16
 1201 0084 0B44     		add	r3, r3, r1
 1202 0086 13F8082C 		ldrb	r2, [r3, #-8]	@ zero_extendqisi2
 1203 008a 13F8101C 		ldrb	r1, [r3, #-16]	@ zero_extendqisi2
 1204              	.LVL89:
 546:..\lib\yubico-c-client/sha384-512.c **** 		      ((message_bits & masks[length]) | markbit[length]));
 1205              		.loc 1 546 0 discriminator 6
 1206 008e 02EA0603 		and	r3, r2, r6
 1207 0092 1943     		orrs	r1, r1, r3
 1208 0094 FFF7FEFF 		bl	SHA384_512Finalize
 1209              	.LVL90:
 549:..\lib\yubico-c-client/sha384-512.c **** }
 1210              		.loc 1 549 0 discriminator 6
 1211 0098 02E0     		b	.L65
 1212              	.LVL91:
 1213              	.L69:
 531:..\lib\yubico-c-client/sha384-512.c **** 
 1214              		.loc 1 531 0
ARM GAS  C:\Users\bkettle\AppData\Local\Temp\ccqz8R4u.s 			page 43


 1215 009a 0024     		movs	r4, #0
 1216 009c 00E0     		b	.L65
 1217              	.LVL92:
 1218              	.L70:
 534:..\lib\yubico-c-client/sha384-512.c **** 
 1219              		.loc 1 534 0
 1220 009e 0124     		movs	r4, #1
 1221              	.LVL93:
 1222              	.L65:
 550:..\lib\yubico-c-client/sha384-512.c **** 
 1223              		.loc 1 550 0
 1224 00a0 2046     		mov	r0, r4
 1225 00a2 04B0     		add	sp, sp, #16
 1226              		.cfi_def_cfa_offset 24
 1227              		@ sp needed
 1228 00a4 BDE87083 		pop	{r4, r5, r6, r8, r9, pc}
 1229              	.LVL94:
 1230              	.L75:
 1231              		.align	2
 1232              	.L74:
 1233 00a8 00000000 		.word	.LANCHOR0
 1234              		.cfi_endproc
 1235              	.LFE6:
 1236              		.size	SHA512FinalBits, .-SHA512FinalBits
 1237              		.section	.text.SHA384FinalBits,"ax",%progbits
 1238              		.align	2
 1239              		.global	SHA384FinalBits
 1240              		.thumb
 1241              		.thumb_func
 1242              		.type	SHA384FinalBits, %function
 1243              	SHA384FinalBits:
 1244              	.LFB2:
 389:..\lib\yubico-c-client/sha384-512.c ****   return SHA512FinalBits (context, message_bits, length);
 1245              		.loc 1 389 0
 1246              		.cfi_startproc
 1247              		@ args = 0, pretend = 0, frame = 0
 1248              		@ frame_needed = 0, uses_anonymous_args = 0
 1249              	.LVL95:
 1250 0000 08B5     		push	{r3, lr}
 1251              		.cfi_def_cfa_offset 8
 1252              		.cfi_offset 3, -8
 1253              		.cfi_offset 14, -4
 390:..\lib\yubico-c-client/sha384-512.c **** }
 1254              		.loc 1 390 0
 1255 0002 FFF7FEFF 		bl	SHA512FinalBits
 1256              	.LVL96:
 391:..\lib\yubico-c-client/sha384-512.c **** 
 1257              		.loc 1 391 0
 1258 0006 08BD     		pop	{r3, pc}
 1259              		.cfi_endproc
 1260              	.LFE2:
 1261              		.size	SHA384FinalBits, .-SHA384FinalBits
 1262              		.section	.text.SHA512Result,"ax",%progbits
 1263              		.align	2
 1264              		.global	SHA512Result
 1265              		.thumb
 1266              		.thumb_func
ARM GAS  C:\Users\bkettle\AppData\Local\Temp\ccqz8R4u.s 			page 44


 1267              		.type	SHA512Result, %function
 1268              	SHA512Result:
 1269              	.LFB8:
 610:..\lib\yubico-c-client/sha384-512.c ****   return SHA384_512ResultN (context, Message_Digest, SHA512HashSize);
 1270              		.loc 1 610 0
 1271              		.cfi_startproc
 1272              		@ args = 0, pretend = 0, frame = 0
 1273              		@ frame_needed = 0, uses_anonymous_args = 0
 1274              	.LVL97:
 1275 0000 08B5     		push	{r3, lr}
 1276              		.cfi_def_cfa_offset 8
 1277              		.cfi_offset 3, -8
 1278              		.cfi_offset 14, -4
 611:..\lib\yubico-c-client/sha384-512.c **** }
 1279              		.loc 1 611 0
 1280 0002 4022     		movs	r2, #64
 1281 0004 FFF7FEFF 		bl	SHA384_512ResultN
 1282              	.LVL98:
 612:..\lib\yubico-c-client/sha384-512.c **** 
 1283              		.loc 1 612 0
 1284 0008 08BD     		pop	{r3, pc}
 1285              		.cfi_endproc
 1286              	.LFE8:
 1287              		.size	SHA512Result, .-SHA512Result
 1288 000a 00BF     		.section	.rodata
 1289              		.align	3
 1290              		.set	.LANCHOR0,. + 0
 1291              		.type	K.4473, %object
 1292              		.size	K.4473, 640
 1293              	K.4473:
 1294 0000 22AE28D7 		.word	-685199838
 1295 0004 982F8A42 		.word	1116352408
 1296 0008 CD65EF23 		.word	602891725
 1297 000c 91443771 		.word	1899447441
 1298 0010 2F3B4DEC 		.word	-330482897
 1299 0014 CFFBC0B5 		.word	-1245643825
 1300 0018 BCDB8981 		.word	-2121671748
 1301 001c A5DBB5E9 		.word	-373957723
 1302 0020 38B548F3 		.word	-213338824
 1303 0024 5BC25639 		.word	961987163
 1304 0028 19D005B6 		.word	-1241133031
 1305 002c F111F159 		.word	1508970993
 1306 0030 9B4F19AF 		.word	-1357295717
 1307 0034 A4823F92 		.word	-1841331548
 1308 0038 18816DDA 		.word	-630357736
 1309 003c D55E1CAB 		.word	-1424204075
 1310 0040 420203A3 		.word	-1560083902
 1311 0044 98AA07D8 		.word	-670586216
 1312 0048 BE6F7045 		.word	1164996542
 1313 004c 015B8312 		.word	310598401
 1314 0050 8CB2E44E 		.word	1323610764
 1315 0054 BE853124 		.word	607225278
 1316 0058 E2B4FFD5 		.word	-704662302
 1317 005c C37D0C55 		.word	1426881987
 1318 0060 6F897BF2 		.word	-226784913
 1319 0064 745DBE72 		.word	1925078388
 1320 0068 B196163B 		.word	991336113
ARM GAS  C:\Users\bkettle\AppData\Local\Temp\ccqz8R4u.s 			page 45


 1321 006c FEB1DE80 		.word	-2132889090
 1322 0070 3512C725 		.word	633803317
 1323 0074 A706DC9B 		.word	-1680079193
 1324 0078 942669CF 		.word	-815192428
 1325 007c 74F19BC1 		.word	-1046744716
 1326 0080 D24AF19E 		.word	-1628353838
 1327 0084 C1699BE4 		.word	-459576895
 1328 0088 E3254F38 		.word	944711139
 1329 008c 8647BEEF 		.word	-272742522
 1330 0090 B5D58C8B 		.word	-1953704523
 1331 0094 C69DC10F 		.word	264347078
 1332 0098 659CAC77 		.word	2007800933
 1333 009c CCA10C24 		.word	604807628
 1334 00a0 75022B59 		.word	1495990901
 1335 00a4 6F2CE92D 		.word	770255983
 1336 00a8 83E4A66E 		.word	1856431235
 1337 00ac AA84744A 		.word	1249150122
 1338 00b0 D4FB41BD 		.word	-1119749164
 1339 00b4 DCA9B05C 		.word	1555081692
 1340 00b8 B5531183 		.word	-2096016459
 1341 00bc DA88F976 		.word	1996064986
 1342 00c0 ABDF66EE 		.word	-295247957
 1343 00c4 52513E98 		.word	-1740746414
 1344 00c8 1032B42D 		.word	766784016
 1345 00cc 6DC631A8 		.word	-1473132947
 1346 00d0 3F21FB98 		.word	-1728372417
 1347 00d4 C82703B0 		.word	-1341970488
 1348 00d8 E40EEFBE 		.word	-1091629340
 1349 00dc C77F59BF 		.word	-1084653625
 1350 00e0 C28FA83D 		.word	1034457026
 1351 00e4 F30BE0C6 		.word	-958395405
 1352 00e8 25A70A93 		.word	-1828018395
 1353 00ec 4791A7D5 		.word	-710438585
 1354 00f0 6F8203E0 		.word	-536640913
 1355 00f4 5163CA06 		.word	113926993
 1356 00f8 706E0E0A 		.word	168717936
 1357 00fc 67292914 		.word	338241895
 1358 0100 FC2FD246 		.word	1188179964
 1359 0104 850AB727 		.word	666307205
 1360 0108 26C9265C 		.word	1546045734
 1361 010c 38211B2E 		.word	773529912
 1362 0110 ED2AC45A 		.word	1522805485
 1363 0114 FC6D2C4D 		.word	1294757372
 1364 0118 DFB3959D 		.word	-1651133473
 1365 011c 130D3853 		.word	1396182291
 1366 0120 DE63AF8B 		.word	-1951439906
 1367 0124 54730A65 		.word	1695183700
 1368 0128 A8B2773C 		.word	1014477480
 1369 012c BB0A6A76 		.word	1986661051
 1370 0130 E6AEED47 		.word	1206759142
 1371 0134 2EC9C281 		.word	-2117940946
 1372 0138 3B358214 		.word	344077627
 1373 013c 852C7292 		.word	-1838011259
 1374 0140 6403F14C 		.word	1290863460
 1375 0144 A1E8BFA2 		.word	-1564481375
 1376 0148 013042BC 		.word	-1136513023
 1377 014c 4B661AA8 		.word	-1474664885
ARM GAS  C:\Users\bkettle\AppData\Local\Temp\ccqz8R4u.s 			page 46


 1378 0150 9197F8D0 		.word	-789014639
 1379 0154 708B4BC2 		.word	-1035236496
 1380 0158 30BE5406 		.word	106217008
 1381 015c A3516CC7 		.word	-949202525
 1382 0160 1852EFD6 		.word	-688958952
 1383 0164 19E892D1 		.word	-778901479
 1384 0168 10A96555 		.word	1432725776
 1385 016c 240699D6 		.word	-694614492
 1386 0170 2A207157 		.word	1467031594
 1387 0174 85350EF4 		.word	-200395387
 1388 0178 B8D1BB32 		.word	851169720
 1389 017c 70A06A10 		.word	275423344
 1390 0180 C8D0D2B8 		.word	-1194143544
 1391 0184 16C1A419 		.word	430227734
 1392 0188 53AB4151 		.word	1363258195
 1393 018c 086C371E 		.word	506948616
 1394 0190 99EB8EDF 		.word	-544281703
 1395 0194 4C774827 		.word	659060556
 1396 0198 A8489BE1 		.word	-509917016
 1397 019c B5BCB034 		.word	883997877
 1398 01a0 635AC9C5 		.word	-976659869
 1399 01a4 B30C1C39 		.word	958139571
 1400 01a8 CB8A41E3 		.word	-482243893
 1401 01ac 4AAAD84E 		.word	1322822218
 1402 01b0 73E36377 		.word	2003034995
 1403 01b4 4FCA9C5B 		.word	1537002063
 1404 01b8 A3B8B2D6 		.word	-692930397
 1405 01bc F36F2E68 		.word	1747873779
 1406 01c0 FCB2EF5D 		.word	1575990012
 1407 01c4 EE828F74 		.word	1955562222
 1408 01c8 602F1743 		.word	1125592928
 1409 01cc 6F63A578 		.word	2024104815
 1410 01d0 72ABF0A1 		.word	-1578062990
 1411 01d4 1478C884 		.word	-2067236844
 1412 01d8 EC39641A 		.word	442776044
 1413 01dc 0802C78C 		.word	-1933114872
 1414 01e0 281E6323 		.word	593698344
 1415 01e4 FAFFBE90 		.word	-1866530822
 1416 01e8 E9BD82DE 		.word	-561857047
 1417 01ec EB6C50A4 		.word	-1538233109
 1418 01f0 1579C6B2 		.word	-1295615723
 1419 01f4 F7A3F9BE 		.word	-1090935817
 1420 01f8 2B5372E3 		.word	-479046869
 1421 01fc F27871C6 		.word	-965641998
 1422 0200 9C6126EA 		.word	-366583396
 1423 0204 CE3E27CA 		.word	-903397682
 1424 0208 07C2C021 		.word	566280711
 1425 020c C7B886D1 		.word	-779700025
 1426 0210 1EEBE0CD 		.word	-840897762
 1427 0214 D67DDAEA 		.word	-354779690
 1428 0218 78D16EEE 		.word	-294727304
 1429 021c 7F4F7DF5 		.word	-176337025
 1430 0220 BA6F1772 		.word	1914138554
 1431 0224 AA67F006 		.word	116418474
 1432 0228 A698C8A2 		.word	-1563912026
 1433 022c C57D630A 		.word	174292421
 1434 0230 AE0DF9BE 		.word	-1090974290
ARM GAS  C:\Users\bkettle\AppData\Local\Temp\ccqz8R4u.s 			page 47


 1435 0234 04983F11 		.word	289380356
 1436 0238 1B471C13 		.word	320620315
 1437 023c 350B711B 		.word	460393269
 1438 0240 847D0423 		.word	587496836
 1439 0244 F577DB28 		.word	685471733
 1440 0248 9324C740 		.word	1086792851
 1441 024c 7BABCA32 		.word	852142971
 1442 0250 BCBEC915 		.word	365543100
 1443 0254 0ABE9E3C 		.word	1017036298
 1444 0258 4C0D109C 		.word	-1676669620
 1445 025c C4671D43 		.word	1126000580
 1446 0260 B6423ECB 		.word	-885112138
 1447 0264 BED4C54C 		.word	1288033470
 1448 0268 2A7E65FC 		.word	-60457430
 1449 026c 9C297F59 		.word	1501505948
 1450 0270 ECFAD63A 		.word	987167468
 1451 0274 AB6FCB5F 		.word	1607167915
 1452 0278 1758474A 		.word	1246189591
 1453 027c 8C19446C 		.word	1816402316
 1454              	.LC0:
 1455 0280 00       		.byte	0
 1456 0281 80       		.byte	-128
 1457 0282 C0       		.byte	-64
 1458 0283 E0       		.byte	-32
 1459 0284 F0       		.byte	-16
 1460 0285 F8       		.byte	-8
 1461 0286 FC       		.byte	-4
 1462 0287 FE       		.byte	-2
 1463              	.LC1:
 1464 0288 80       		.byte	-128
 1465 0289 40       		.byte	64
 1466 028a 20       		.byte	32
 1467 028b 10       		.byte	16
 1468 028c 08       		.byte	8
 1469 028d 04       		.byte	4
 1470 028e 02       		.byte	2
 1471 028f 01       		.byte	1
 1472              		.data
 1473              		.align	3
 1474              		.set	.LANCHOR1,. + 0
 1475              		.type	SHA384_H0, %object
 1476              		.size	SHA384_H0, 64
 1477              	SHA384_H0:
 1478 0000 D89E05C1 		.word	-1056596264
 1479 0004 5D9DBBCB 		.word	-876896931
 1480 0008 07D57C36 		.word	914150663
 1481 000c 2A299A62 		.word	1654270250
 1482 0010 17DD7030 		.word	812702999
 1483 0014 5A015991 		.word	-1856437926
 1484 0018 39590EF7 		.word	-150054599
 1485 001c D8EC2F15 		.word	355462360
 1486 0020 310BC0FF 		.word	-4191439
 1487 0024 67263367 		.word	1731405415
 1488 0028 11155868 		.word	1750603025
 1489 002c 874AB48E 		.word	-1900787065
 1490 0030 A78FF964 		.word	1694076839
 1491 0034 0D2E0CDB 		.word	-619958771
ARM GAS  C:\Users\bkettle\AppData\Local\Temp\ccqz8R4u.s 			page 48


 1492 0038 A44FFABE 		.word	-1090891868
 1493 003c 1D48B547 		.word	1203062813
 1494              		.type	SHA512_H0, %object
 1495              		.size	SHA512_H0, 64
 1496              	SHA512_H0:
 1497 0040 08C9BCF3 		.word	-205731576
 1498 0044 67E6096A 		.word	1779033703
 1499 0048 3BA7CA84 		.word	-2067093701
 1500 004c 85AE67BB 		.word	-1150833019
 1501 0050 2BF894FE 		.word	-23791573
 1502 0054 72F36E3C 		.word	1013904242
 1503 0058 F1361D5F 		.word	1595750129
 1504 005c 3AF54FA5 		.word	-1521486534
 1505 0060 D182E6AD 		.word	-1377402159
 1506 0064 7F520E51 		.word	1359893119
 1507 0068 1F6C3E2B 		.word	725511199
 1508 006c 8C68059B 		.word	-1694144372
 1509 0070 6BBD41FB 		.word	-79577749
 1510 0074 ABD9831F 		.word	528734635
 1511 0078 79217E13 		.word	327033209
 1512 007c 19CDE05B 		.word	1541459225
 1513              		.text
 1514              	.Letext0:
 1515              		.file 2 "c:\\program files (x86)\\cypress\\psoc creator\\4.3\\psoc creator\\import\\gnu\\arm\\5.4.
 1516              		.file 3 "c:\\program files (x86)\\cypress\\psoc creator\\4.3\\psoc creator\\import\\gnu\\arm\\5.4.
 1517              		.file 4 "c:\\program files (x86)\\cypress\\psoc creator\\4.3\\psoc creator\\import\\gnu\\arm\\5.4.
 1518              		.file 5 "..\\lib\\yubico-c-client\\sha.h"