ARM GAS  C:\Users\bkettle\AppData\Local\Temp\ccOD3M5d.s 			page 1


   1              		.syntax unified
   2              		.cpu cortex-m3
   3              		.fpu softvfp
   4              		.eabi_attribute 20, 1
   5              		.eabi_attribute 21, 1
   6              		.eabi_attribute 23, 3
   7              		.eabi_attribute 24, 1
   8              		.eabi_attribute 25, 1
   9              		.eabi_attribute 26, 1
  10              		.eabi_attribute 30, 1
  11              		.eabi_attribute 34, 1
  12              		.eabi_attribute 18, 4
  13              		.thumb
  14              		.syntax unified
  15              		.file	"usha.c"
  16              		.text
  17              	.Ltext0:
  18              		.cfi_sections	.debug_frame
  19              		.section	.text.USHAReset,"ax",%progbits
  20              		.align	2
  21              		.global	USHAReset
  22              		.thumb
  23              		.thumb_func
  24              		.type	USHAReset, %function
  25              	USHAReset:
  26              	.LFB0:
  27              		.file 1 "..\\lib\\yubico-c-client\\usha.c"
   1:..\lib\yubico-c-client/usha.c **** /**************************** usha.c ****************************/
   2:..\lib\yubico-c-client/usha.c **** /******************** See RFC 4634 for details ******************/
   3:..\lib\yubico-c-client/usha.c **** /*
   4:..\lib\yubico-c-client/usha.c ****  *  Description:
   5:..\lib\yubico-c-client/usha.c ****  *     This file implements a unified interface to the SHA algorithms.
   6:..\lib\yubico-c-client/usha.c ****  */
   7:..\lib\yubico-c-client/usha.c **** 
   8:..\lib\yubico-c-client/usha.c **** #include "sha.h"
   9:..\lib\yubico-c-client/usha.c **** 
  10:..\lib\yubico-c-client/usha.c **** /*
  11:..\lib\yubico-c-client/usha.c ****  *  USHAReset
  12:..\lib\yubico-c-client/usha.c ****  *
  13:..\lib\yubico-c-client/usha.c ****  *  Description:
  14:..\lib\yubico-c-client/usha.c ****  *      This function will initialize the SHA Context in preparation
  15:..\lib\yubico-c-client/usha.c ****  *      for computing a new SHA message digest.
  16:..\lib\yubico-c-client/usha.c ****  *
  17:..\lib\yubico-c-client/usha.c ****  *  Parameters:
  18:..\lib\yubico-c-client/usha.c ****  *      context: [in/out]
  19:..\lib\yubico-c-client/usha.c ****  *          The context to reset.
  20:..\lib\yubico-c-client/usha.c ****  *      whichSha: [in]
  21:..\lib\yubico-c-client/usha.c ****  *          Selects which SHA reset to call
  22:..\lib\yubico-c-client/usha.c ****  *
  23:..\lib\yubico-c-client/usha.c ****  *  Returns:
  24:..\lib\yubico-c-client/usha.c ****  *      sha Error Code.
  25:..\lib\yubico-c-client/usha.c ****  *
  26:..\lib\yubico-c-client/usha.c ****  */
  27:..\lib\yubico-c-client/usha.c **** int
  28:..\lib\yubico-c-client/usha.c **** USHAReset (USHAContext * ctx, enum SHAversion whichSha)
  29:..\lib\yubico-c-client/usha.c **** {
  28              		.loc 1 29 0
ARM GAS  C:\Users\bkettle\AppData\Local\Temp\ccOD3M5d.s 			page 2


  29              		.cfi_startproc
  30              		@ args = 0, pretend = 0, frame = 0
  31              		@ frame_needed = 0, uses_anonymous_args = 0
  32              	.LVL0:
  30:..\lib\yubico-c-client/usha.c ****   if (ctx)
  33              		.loc 1 30 0
  34 0000 E0B1     		cbz	r0, .L9
  29:..\lib\yubico-c-client/usha.c ****   if (ctx)
  35              		.loc 1 29 0
  36 0002 08B5     		push	{r3, lr}
  37              		.cfi_def_cfa_offset 8
  38              		.cfi_offset 3, -8
  39              		.cfi_offset 14, -4
  31:..\lib\yubico-c-client/usha.c ****     {
  32:..\lib\yubico-c-client/usha.c ****       ctx->whichSha = whichSha;
  40              		.loc 1 32 0
  41 0004 0160     		str	r1, [r0]
  33:..\lib\yubico-c-client/usha.c ****       switch (whichSha)
  42              		.loc 1 33 0
  43 0006 0429     		cmp	r1, #4
  44 0008 1AD8     		bhi	.L10
  45 000a DFE801F0 		tbb	[pc, r1]
  46              	.L4:
  47 000e 03       		.byte	(.L3-.L4)/2
  48 000f 07       		.byte	(.L5-.L4)/2
  49 0010 0B       		.byte	(.L6-.L4)/2
  50 0011 0F       		.byte	(.L7-.L4)/2
  51 0012 13       		.byte	(.L8-.L4)/2
  52 0013 00       		.p2align 1
  53              	.L3:
  34:..\lib\yubico-c-client/usha.c **** 	{
  35:..\lib\yubico-c-client/usha.c **** 	case SHA1:
  36:..\lib\yubico-c-client/usha.c **** 	  return SHA1Reset ((SHA1Context *) & ctx->ctx);
  54              		.loc 1 36 0
  55 0014 0830     		adds	r0, r0, #8
  56              	.LVL1:
  57 0016 FFF7FEFF 		bl	SHA1Reset
  58              	.LVL2:
  59 001a 08BD     		pop	{r3, pc}
  60              	.LVL3:
  61              	.L5:
  37:..\lib\yubico-c-client/usha.c **** 	case SHA224:
  38:..\lib\yubico-c-client/usha.c **** 	  return SHA224Reset ((SHA224Context *) & ctx->ctx);
  62              		.loc 1 38 0
  63 001c 0830     		adds	r0, r0, #8
  64              	.LVL4:
  65 001e FFF7FEFF 		bl	SHA224Reset
  66              	.LVL5:
  67 0022 08BD     		pop	{r3, pc}
  68              	.LVL6:
  69              	.L6:
  39:..\lib\yubico-c-client/usha.c **** 	case SHA256:
  40:..\lib\yubico-c-client/usha.c **** 	  return SHA256Reset ((SHA256Context *) & ctx->ctx);
  70              		.loc 1 40 0
  71 0024 0830     		adds	r0, r0, #8
  72              	.LVL7:
  73 0026 FFF7FEFF 		bl	SHA256Reset
ARM GAS  C:\Users\bkettle\AppData\Local\Temp\ccOD3M5d.s 			page 3


  74              	.LVL8:
  75 002a 08BD     		pop	{r3, pc}
  76              	.LVL9:
  77              	.L7:
  41:..\lib\yubico-c-client/usha.c **** 	case SHA384:
  42:..\lib\yubico-c-client/usha.c **** 	  return SHA384Reset ((SHA384Context *) & ctx->ctx);
  78              		.loc 1 42 0
  79 002c 0830     		adds	r0, r0, #8
  80              	.LVL10:
  81 002e FFF7FEFF 		bl	SHA384Reset
  82              	.LVL11:
  83 0032 08BD     		pop	{r3, pc}
  84              	.LVL12:
  85              	.L8:
  43:..\lib\yubico-c-client/usha.c **** 	case SHA512:
  44:..\lib\yubico-c-client/usha.c **** 	  return SHA512Reset ((SHA512Context *) & ctx->ctx);
  86              		.loc 1 44 0
  87 0034 0830     		adds	r0, r0, #8
  88              	.LVL13:
  89 0036 FFF7FEFF 		bl	SHA512Reset
  90              	.LVL14:
  91 003a 08BD     		pop	{r3, pc}
  92              	.LVL15:
  93              	.L9:
  94              		.cfi_def_cfa_offset 0
  95              		.cfi_restore 3
  96              		.cfi_restore 14
  45:..\lib\yubico-c-client/usha.c **** 	default:
  46:..\lib\yubico-c-client/usha.c **** 	  return shaBadParam;
  47:..\lib\yubico-c-client/usha.c **** 	}
  48:..\lib\yubico-c-client/usha.c ****     }
  49:..\lib\yubico-c-client/usha.c ****   else
  50:..\lib\yubico-c-client/usha.c ****     {
  51:..\lib\yubico-c-client/usha.c ****       return shaNull;
  97              		.loc 1 51 0
  98 003c 0120     		movs	r0, #1
  99              	.LVL16:
  52:..\lib\yubico-c-client/usha.c ****     }
  53:..\lib\yubico-c-client/usha.c **** }
 100              		.loc 1 53 0
 101 003e 7047     		bx	lr
 102              	.LVL17:
 103              	.L10:
  46:..\lib\yubico-c-client/usha.c **** 	}
 104              		.loc 1 46 0
 105 0040 0420     		movs	r0, #4
 106              	.LVL18:
 107              		.loc 1 53 0
 108 0042 08BD     		pop	{r3, pc}
 109              		.cfi_endproc
 110              	.LFE0:
 111              		.size	USHAReset, .-USHAReset
 112              		.section	.text.USHAInput,"ax",%progbits
 113              		.align	2
 114              		.global	USHAInput
 115              		.thumb
 116              		.thumb_func
ARM GAS  C:\Users\bkettle\AppData\Local\Temp\ccOD3M5d.s 			page 4


 117              		.type	USHAInput, %function
 118              	USHAInput:
 119              	.LFB1:
  54:..\lib\yubico-c-client/usha.c **** 
  55:..\lib\yubico-c-client/usha.c **** /*
  56:..\lib\yubico-c-client/usha.c ****  *  USHAInput
  57:..\lib\yubico-c-client/usha.c ****  *
  58:..\lib\yubico-c-client/usha.c ****  *  Description:
  59:..\lib\yubico-c-client/usha.c ****  *      This function accepts an array of octets as the next portion
  60:..\lib\yubico-c-client/usha.c ****  *      of the message.
  61:..\lib\yubico-c-client/usha.c ****  *
  62:..\lib\yubico-c-client/usha.c ****  *  Parameters:
  63:..\lib\yubico-c-client/usha.c ****  *      context: [in/out]
  64:..\lib\yubico-c-client/usha.c ****  *          The SHA context to update
  65:..\lib\yubico-c-client/usha.c ****  *      message_array: [in]
  66:..\lib\yubico-c-client/usha.c ****  *          An array of characters representing the next portion of
  67:..\lib\yubico-c-client/usha.c ****  *          the message.
  68:..\lib\yubico-c-client/usha.c ****  *      length: [in]
  69:..\lib\yubico-c-client/usha.c ****  *          The length of the message in message_array
  70:..\lib\yubico-c-client/usha.c ****  *
  71:..\lib\yubico-c-client/usha.c ****  *  Returns:
  72:..\lib\yubico-c-client/usha.c ****  *      sha Error Code.
  73:..\lib\yubico-c-client/usha.c ****  *
  74:..\lib\yubico-c-client/usha.c ****  */
  75:..\lib\yubico-c-client/usha.c **** int
  76:..\lib\yubico-c-client/usha.c **** USHAInput (USHAContext * ctx, const uint8_t * bytes, unsigned int bytecount)
  77:..\lib\yubico-c-client/usha.c **** {
 120              		.loc 1 77 0
 121              		.cfi_startproc
 122              		@ args = 0, pretend = 0, frame = 0
 123              		@ frame_needed = 0, uses_anonymous_args = 0
 124              	.LVL19:
  78:..\lib\yubico-c-client/usha.c ****   if (ctx)
 125              		.loc 1 78 0
 126 0000 E0B1     		cbz	r0, .L20
  77:..\lib\yubico-c-client/usha.c ****   if (ctx)
 127              		.loc 1 77 0
 128 0002 08B5     		push	{r3, lr}
 129              		.cfi_def_cfa_offset 8
 130              		.cfi_offset 3, -8
 131              		.cfi_offset 14, -4
  79:..\lib\yubico-c-client/usha.c ****     {
  80:..\lib\yubico-c-client/usha.c ****       switch (ctx->whichSha)
 132              		.loc 1 80 0
 133 0004 0368     		ldr	r3, [r0]
 134 0006 042B     		cmp	r3, #4
 135 0008 1AD8     		bhi	.L21
 136 000a DFE803F0 		tbb	[pc, r3]
 137              	.L15:
 138 000e 03       		.byte	(.L14-.L15)/2
 139 000f 07       		.byte	(.L16-.L15)/2
 140 0010 0B       		.byte	(.L17-.L15)/2
 141 0011 0F       		.byte	(.L18-.L15)/2
 142 0012 13       		.byte	(.L19-.L15)/2
 143 0013 00       		.p2align 1
 144              	.L14:
  81:..\lib\yubico-c-client/usha.c **** 	{
ARM GAS  C:\Users\bkettle\AppData\Local\Temp\ccOD3M5d.s 			page 5


  82:..\lib\yubico-c-client/usha.c **** 	case SHA1:
  83:..\lib\yubico-c-client/usha.c **** 	  return SHA1Input ((SHA1Context *) & ctx->ctx, bytes, bytecount);
 145              		.loc 1 83 0
 146 0014 0830     		adds	r0, r0, #8
 147              	.LVL20:
 148 0016 FFF7FEFF 		bl	SHA1Input
 149              	.LVL21:
 150 001a 08BD     		pop	{r3, pc}
 151              	.LVL22:
 152              	.L16:
  84:..\lib\yubico-c-client/usha.c **** 	case SHA224:
  85:..\lib\yubico-c-client/usha.c **** 	  return SHA224Input ((SHA224Context *) & ctx->ctx, bytes, bytecount);
 153              		.loc 1 85 0
 154 001c 0830     		adds	r0, r0, #8
 155              	.LVL23:
 156 001e FFF7FEFF 		bl	SHA224Input
 157              	.LVL24:
 158 0022 08BD     		pop	{r3, pc}
 159              	.LVL25:
 160              	.L17:
  86:..\lib\yubico-c-client/usha.c **** 	case SHA256:
  87:..\lib\yubico-c-client/usha.c **** 	  return SHA256Input ((SHA256Context *) & ctx->ctx, bytes, bytecount);
 161              		.loc 1 87 0
 162 0024 0830     		adds	r0, r0, #8
 163              	.LVL26:
 164 0026 FFF7FEFF 		bl	SHA256Input
 165              	.LVL27:
 166 002a 08BD     		pop	{r3, pc}
 167              	.LVL28:
 168              	.L18:
  88:..\lib\yubico-c-client/usha.c **** 	case SHA384:
  89:..\lib\yubico-c-client/usha.c **** 	  return SHA384Input ((SHA384Context *) & ctx->ctx, bytes, bytecount);
 169              		.loc 1 89 0
 170 002c 0830     		adds	r0, r0, #8
 171              	.LVL29:
 172 002e FFF7FEFF 		bl	SHA384Input
 173              	.LVL30:
 174 0032 08BD     		pop	{r3, pc}
 175              	.LVL31:
 176              	.L19:
  90:..\lib\yubico-c-client/usha.c **** 	case SHA512:
  91:..\lib\yubico-c-client/usha.c **** 	  return SHA512Input ((SHA512Context *) & ctx->ctx, bytes, bytecount);
 177              		.loc 1 91 0
 178 0034 0830     		adds	r0, r0, #8
 179              	.LVL32:
 180 0036 FFF7FEFF 		bl	SHA512Input
 181              	.LVL33:
 182 003a 08BD     		pop	{r3, pc}
 183              	.LVL34:
 184              	.L20:
 185              		.cfi_def_cfa_offset 0
 186              		.cfi_restore 3
 187              		.cfi_restore 14
  92:..\lib\yubico-c-client/usha.c **** 	default:
  93:..\lib\yubico-c-client/usha.c **** 	  return shaBadParam;
  94:..\lib\yubico-c-client/usha.c **** 	}
  95:..\lib\yubico-c-client/usha.c ****     }
ARM GAS  C:\Users\bkettle\AppData\Local\Temp\ccOD3M5d.s 			page 6


  96:..\lib\yubico-c-client/usha.c ****   else
  97:..\lib\yubico-c-client/usha.c ****     {
  98:..\lib\yubico-c-client/usha.c ****       return shaNull;
 188              		.loc 1 98 0
 189 003c 0120     		movs	r0, #1
 190              	.LVL35:
  99:..\lib\yubico-c-client/usha.c ****     }
 100:..\lib\yubico-c-client/usha.c **** }
 191              		.loc 1 100 0
 192 003e 7047     		bx	lr
 193              	.LVL36:
 194              	.L21:
  93:..\lib\yubico-c-client/usha.c **** 	}
 195              		.loc 1 93 0
 196 0040 0420     		movs	r0, #4
 197              	.LVL37:
 198              		.loc 1 100 0
 199 0042 08BD     		pop	{r3, pc}
 200              		.cfi_endproc
 201              	.LFE1:
 202              		.size	USHAInput, .-USHAInput
 203              		.section	.text.USHAFinalBits,"ax",%progbits
 204              		.align	2
 205              		.global	USHAFinalBits
 206              		.thumb
 207              		.thumb_func
 208              		.type	USHAFinalBits, %function
 209              	USHAFinalBits:
 210              	.LFB2:
 101:..\lib\yubico-c-client/usha.c **** 
 102:..\lib\yubico-c-client/usha.c **** /*
 103:..\lib\yubico-c-client/usha.c ****  * USHAFinalBits
 104:..\lib\yubico-c-client/usha.c ****  *
 105:..\lib\yubico-c-client/usha.c ****  * Description:
 106:..\lib\yubico-c-client/usha.c ****  *   This function will add in any final bits of the message.
 107:..\lib\yubico-c-client/usha.c ****  *
 108:..\lib\yubico-c-client/usha.c ****  * Parameters:
 109:..\lib\yubico-c-client/usha.c ****  *   context: [in/out]
 110:..\lib\yubico-c-client/usha.c ****  *     The SHA context to update
 111:..\lib\yubico-c-client/usha.c ****  *   message_bits: [in]
 112:..\lib\yubico-c-client/usha.c ****  *     The final bits of the message, in the upper portion of the
 113:..\lib\yubico-c-client/usha.c ****  *     byte. (Use 0b###00000 instead of 0b00000### to input the
 114:..\lib\yubico-c-client/usha.c ****  *     three bits ###.)
 115:..\lib\yubico-c-client/usha.c ****  *   length: [in]
 116:..\lib\yubico-c-client/usha.c ****  *     The number of bits in message_bits, between 1 and 7.
 117:..\lib\yubico-c-client/usha.c ****  *
 118:..\lib\yubico-c-client/usha.c ****  * Returns:
 119:..\lib\yubico-c-client/usha.c ****  *   sha Error Code.
 120:..\lib\yubico-c-client/usha.c ****  */
 121:..\lib\yubico-c-client/usha.c **** int
 122:..\lib\yubico-c-client/usha.c **** USHAFinalBits (USHAContext * ctx, const uint8_t bits, unsigned int bitcount)
 123:..\lib\yubico-c-client/usha.c **** {
 211              		.loc 1 123 0
 212              		.cfi_startproc
 213              		@ args = 0, pretend = 0, frame = 0
 214              		@ frame_needed = 0, uses_anonymous_args = 0
 215              	.LVL38:
ARM GAS  C:\Users\bkettle\AppData\Local\Temp\ccOD3M5d.s 			page 7


 124:..\lib\yubico-c-client/usha.c ****   if (ctx)
 216              		.loc 1 124 0
 217 0000 E0B1     		cbz	r0, .L31
 123:..\lib\yubico-c-client/usha.c ****   if (ctx)
 218              		.loc 1 123 0
 219 0002 08B5     		push	{r3, lr}
 220              		.cfi_def_cfa_offset 8
 221              		.cfi_offset 3, -8
 222              		.cfi_offset 14, -4
 125:..\lib\yubico-c-client/usha.c ****     {
 126:..\lib\yubico-c-client/usha.c ****       switch (ctx->whichSha)
 223              		.loc 1 126 0
 224 0004 0368     		ldr	r3, [r0]
 225 0006 042B     		cmp	r3, #4
 226 0008 1AD8     		bhi	.L32
 227 000a DFE803F0 		tbb	[pc, r3]
 228              	.L26:
 229 000e 03       		.byte	(.L25-.L26)/2
 230 000f 07       		.byte	(.L27-.L26)/2
 231 0010 0B       		.byte	(.L28-.L26)/2
 232 0011 0F       		.byte	(.L29-.L26)/2
 233 0012 13       		.byte	(.L30-.L26)/2
 234 0013 00       		.p2align 1
 235              	.L25:
 127:..\lib\yubico-c-client/usha.c **** 	{
 128:..\lib\yubico-c-client/usha.c **** 	case SHA1:
 129:..\lib\yubico-c-client/usha.c **** 	  return SHA1FinalBits ((SHA1Context *) & ctx->ctx, bits, bitcount);
 236              		.loc 1 129 0
 237 0014 0830     		adds	r0, r0, #8
 238              	.LVL39:
 239 0016 FFF7FEFF 		bl	SHA1FinalBits
 240              	.LVL40:
 241 001a 08BD     		pop	{r3, pc}
 242              	.LVL41:
 243              	.L27:
 130:..\lib\yubico-c-client/usha.c **** 	case SHA224:
 131:..\lib\yubico-c-client/usha.c **** 	  return SHA224FinalBits ((SHA224Context *) & ctx->ctx, bits,
 244              		.loc 1 131 0
 245 001c 0830     		adds	r0, r0, #8
 246              	.LVL42:
 247 001e FFF7FEFF 		bl	SHA224FinalBits
 248              	.LVL43:
 249 0022 08BD     		pop	{r3, pc}
 250              	.LVL44:
 251              	.L28:
 132:..\lib\yubico-c-client/usha.c **** 				  bitcount);
 133:..\lib\yubico-c-client/usha.c **** 	case SHA256:
 134:..\lib\yubico-c-client/usha.c **** 	  return SHA256FinalBits ((SHA256Context *) & ctx->ctx, bits,
 252              		.loc 1 134 0
 253 0024 0830     		adds	r0, r0, #8
 254              	.LVL45:
 255 0026 FFF7FEFF 		bl	SHA256FinalBits
 256              	.LVL46:
 257 002a 08BD     		pop	{r3, pc}
 258              	.LVL47:
 259              	.L29:
 135:..\lib\yubico-c-client/usha.c **** 				  bitcount);
ARM GAS  C:\Users\bkettle\AppData\Local\Temp\ccOD3M5d.s 			page 8


 136:..\lib\yubico-c-client/usha.c **** 	case SHA384:
 137:..\lib\yubico-c-client/usha.c **** 	  return SHA384FinalBits ((SHA384Context *) & ctx->ctx, bits,
 260              		.loc 1 137 0
 261 002c 0830     		adds	r0, r0, #8
 262              	.LVL48:
 263 002e FFF7FEFF 		bl	SHA384FinalBits
 264              	.LVL49:
 265 0032 08BD     		pop	{r3, pc}
 266              	.LVL50:
 267              	.L30:
 138:..\lib\yubico-c-client/usha.c **** 				  bitcount);
 139:..\lib\yubico-c-client/usha.c **** 	case SHA512:
 140:..\lib\yubico-c-client/usha.c **** 	  return SHA512FinalBits ((SHA512Context *) & ctx->ctx, bits,
 268              		.loc 1 140 0
 269 0034 0830     		adds	r0, r0, #8
 270              	.LVL51:
 271 0036 FFF7FEFF 		bl	SHA512FinalBits
 272              	.LVL52:
 273 003a 08BD     		pop	{r3, pc}
 274              	.LVL53:
 275              	.L31:
 276              		.cfi_def_cfa_offset 0
 277              		.cfi_restore 3
 278              		.cfi_restore 14
 141:..\lib\yubico-c-client/usha.c **** 				  bitcount);
 142:..\lib\yubico-c-client/usha.c **** 	default:
 143:..\lib\yubico-c-client/usha.c **** 	  return shaBadParam;
 144:..\lib\yubico-c-client/usha.c **** 	}
 145:..\lib\yubico-c-client/usha.c ****     }
 146:..\lib\yubico-c-client/usha.c ****   else
 147:..\lib\yubico-c-client/usha.c ****     {
 148:..\lib\yubico-c-client/usha.c ****       return shaNull;
 279              		.loc 1 148 0
 280 003c 0120     		movs	r0, #1
 281              	.LVL54:
 149:..\lib\yubico-c-client/usha.c ****     }
 150:..\lib\yubico-c-client/usha.c **** }
 282              		.loc 1 150 0
 283 003e 7047     		bx	lr
 284              	.LVL55:
 285              	.L32:
 143:..\lib\yubico-c-client/usha.c **** 	}
 286              		.loc 1 143 0
 287 0040 0420     		movs	r0, #4
 288              	.LVL56:
 289              		.loc 1 150 0
 290 0042 08BD     		pop	{r3, pc}
 291              		.cfi_endproc
 292              	.LFE2:
 293              		.size	USHAFinalBits, .-USHAFinalBits
 294              		.section	.text.USHAResult,"ax",%progbits
 295              		.align	2
 296              		.global	USHAResult
 297              		.thumb
 298              		.thumb_func
 299              		.type	USHAResult, %function
 300              	USHAResult:
ARM GAS  C:\Users\bkettle\AppData\Local\Temp\ccOD3M5d.s 			page 9


 301              	.LFB3:
 151:..\lib\yubico-c-client/usha.c **** 
 152:..\lib\yubico-c-client/usha.c **** /*
 153:..\lib\yubico-c-client/usha.c ****  * USHAResult
 154:..\lib\yubico-c-client/usha.c ****  *
 155:..\lib\yubico-c-client/usha.c ****  * Description:
 156:..\lib\yubico-c-client/usha.c ****  *   This function will return the 160-bit message digest into the
 157:..\lib\yubico-c-client/usha.c ****  *   Message_Digest array provided by the caller.
 158:..\lib\yubico-c-client/usha.c ****  *   NOTE: The first octet of hash is stored in the 0th element,
 159:..\lib\yubico-c-client/usha.c ****  *      the last octet of hash in the 19th element.
 160:..\lib\yubico-c-client/usha.c ****  *
 161:..\lib\yubico-c-client/usha.c ****  * Parameters:
 162:..\lib\yubico-c-client/usha.c ****  *   context: [in/out]
 163:..\lib\yubico-c-client/usha.c ****  *     The context to use to calculate the SHA-1 hash.
 164:..\lib\yubico-c-client/usha.c ****  *   Message_Digest: [out]
 165:..\lib\yubico-c-client/usha.c ****  *     Where the digest is returned.
 166:..\lib\yubico-c-client/usha.c ****  *
 167:..\lib\yubico-c-client/usha.c ****  * Returns:
 168:..\lib\yubico-c-client/usha.c ****  *   sha Error Code.
 169:..\lib\yubico-c-client/usha.c ****  *
 170:..\lib\yubico-c-client/usha.c ****  */
 171:..\lib\yubico-c-client/usha.c **** int
 172:..\lib\yubico-c-client/usha.c **** USHAResult (USHAContext * ctx, uint8_t Message_Digest[USHAMaxHashSize])
 173:..\lib\yubico-c-client/usha.c **** {
 302              		.loc 1 173 0
 303              		.cfi_startproc
 304              		@ args = 0, pretend = 0, frame = 0
 305              		@ frame_needed = 0, uses_anonymous_args = 0
 306              	.LVL57:
 174:..\lib\yubico-c-client/usha.c ****   if (ctx)
 307              		.loc 1 174 0
 308 0000 E0B1     		cbz	r0, .L42
 173:..\lib\yubico-c-client/usha.c ****   if (ctx)
 309              		.loc 1 173 0
 310 0002 08B5     		push	{r3, lr}
 311              		.cfi_def_cfa_offset 8
 312              		.cfi_offset 3, -8
 313              		.cfi_offset 14, -4
 175:..\lib\yubico-c-client/usha.c ****     {
 176:..\lib\yubico-c-client/usha.c ****       switch (ctx->whichSha)
 314              		.loc 1 176 0
 315 0004 0368     		ldr	r3, [r0]
 316 0006 042B     		cmp	r3, #4
 317 0008 1AD8     		bhi	.L43
 318 000a DFE803F0 		tbb	[pc, r3]
 319              	.L37:
 320 000e 03       		.byte	(.L36-.L37)/2
 321 000f 07       		.byte	(.L38-.L37)/2
 322 0010 0B       		.byte	(.L39-.L37)/2
 323 0011 0F       		.byte	(.L40-.L37)/2
 324 0012 13       		.byte	(.L41-.L37)/2
 325 0013 00       		.p2align 1
 326              	.L36:
 177:..\lib\yubico-c-client/usha.c **** 	{
 178:..\lib\yubico-c-client/usha.c **** 	case SHA1:
 179:..\lib\yubico-c-client/usha.c **** 	  return SHA1Result ((SHA1Context *) & ctx->ctx, Message_Digest);
 327              		.loc 1 179 0
ARM GAS  C:\Users\bkettle\AppData\Local\Temp\ccOD3M5d.s 			page 10


 328 0014 0830     		adds	r0, r0, #8
 329              	.LVL58:
 330 0016 FFF7FEFF 		bl	SHA1Result
 331              	.LVL59:
 332 001a 08BD     		pop	{r3, pc}
 333              	.LVL60:
 334              	.L38:
 180:..\lib\yubico-c-client/usha.c **** 	case SHA224:
 181:..\lib\yubico-c-client/usha.c **** 	  return SHA224Result ((SHA224Context *) & ctx->ctx, Message_Digest);
 335              		.loc 1 181 0
 336 001c 0830     		adds	r0, r0, #8
 337              	.LVL61:
 338 001e FFF7FEFF 		bl	SHA224Result
 339              	.LVL62:
 340 0022 08BD     		pop	{r3, pc}
 341              	.LVL63:
 342              	.L39:
 182:..\lib\yubico-c-client/usha.c **** 	case SHA256:
 183:..\lib\yubico-c-client/usha.c **** 	  return SHA256Result ((SHA256Context *) & ctx->ctx, Message_Digest);
 343              		.loc 1 183 0
 344 0024 0830     		adds	r0, r0, #8
 345              	.LVL64:
 346 0026 FFF7FEFF 		bl	SHA256Result
 347              	.LVL65:
 348 002a 08BD     		pop	{r3, pc}
 349              	.LVL66:
 350              	.L40:
 184:..\lib\yubico-c-client/usha.c **** 	case SHA384:
 185:..\lib\yubico-c-client/usha.c **** 	  return SHA384Result ((SHA384Context *) & ctx->ctx, Message_Digest);
 351              		.loc 1 185 0
 352 002c 0830     		adds	r0, r0, #8
 353              	.LVL67:
 354 002e FFF7FEFF 		bl	SHA384Result
 355              	.LVL68:
 356 0032 08BD     		pop	{r3, pc}
 357              	.LVL69:
 358              	.L41:
 186:..\lib\yubico-c-client/usha.c **** 	case SHA512:
 187:..\lib\yubico-c-client/usha.c **** 	  return SHA512Result ((SHA512Context *) & ctx->ctx, Message_Digest);
 359              		.loc 1 187 0
 360 0034 0830     		adds	r0, r0, #8
 361              	.LVL70:
 362 0036 FFF7FEFF 		bl	SHA512Result
 363              	.LVL71:
 364 003a 08BD     		pop	{r3, pc}
 365              	.LVL72:
 366              	.L42:
 367              		.cfi_def_cfa_offset 0
 368              		.cfi_restore 3
 369              		.cfi_restore 14
 188:..\lib\yubico-c-client/usha.c **** 	default:
 189:..\lib\yubico-c-client/usha.c **** 	  return shaBadParam;
 190:..\lib\yubico-c-client/usha.c **** 	}
 191:..\lib\yubico-c-client/usha.c ****     }
 192:..\lib\yubico-c-client/usha.c ****   else
 193:..\lib\yubico-c-client/usha.c ****     {
 194:..\lib\yubico-c-client/usha.c ****       return shaNull;
ARM GAS  C:\Users\bkettle\AppData\Local\Temp\ccOD3M5d.s 			page 11


 370              		.loc 1 194 0
 371 003c 0120     		movs	r0, #1
 372              	.LVL73:
 195:..\lib\yubico-c-client/usha.c ****     }
 196:..\lib\yubico-c-client/usha.c **** }
 373              		.loc 1 196 0
 374 003e 7047     		bx	lr
 375              	.LVL74:
 376              	.L43:
 189:..\lib\yubico-c-client/usha.c **** 	}
 377              		.loc 1 189 0
 378 0040 0420     		movs	r0, #4
 379              	.LVL75:
 380              		.loc 1 196 0
 381 0042 08BD     		pop	{r3, pc}
 382              		.cfi_endproc
 383              	.LFE3:
 384              		.size	USHAResult, .-USHAResult
 385              		.section	.text.USHABlockSize,"ax",%progbits
 386              		.align	2
 387              		.global	USHABlockSize
 388              		.thumb
 389              		.thumb_func
 390              		.type	USHABlockSize, %function
 391              	USHABlockSize:
 392              	.LFB4:
 197:..\lib\yubico-c-client/usha.c **** 
 198:..\lib\yubico-c-client/usha.c **** /*
 199:..\lib\yubico-c-client/usha.c ****  * USHABlockSize
 200:..\lib\yubico-c-client/usha.c ****  *
 201:..\lib\yubico-c-client/usha.c ****  * Description:
 202:..\lib\yubico-c-client/usha.c ****  *   This function will return the blocksize for the given SHA
 203:..\lib\yubico-c-client/usha.c ****  *   algorithm.
 204:..\lib\yubico-c-client/usha.c ****  *
 205:..\lib\yubico-c-client/usha.c ****  * Parameters:
 206:..\lib\yubico-c-client/usha.c ****  *   whichSha:
 207:..\lib\yubico-c-client/usha.c ****  *     which SHA algorithm to query
 208:..\lib\yubico-c-client/usha.c ****  *
 209:..\lib\yubico-c-client/usha.c ****  * Returns:
 210:..\lib\yubico-c-client/usha.c ****  *   block size
 211:..\lib\yubico-c-client/usha.c ****  *
 212:..\lib\yubico-c-client/usha.c ****  */
 213:..\lib\yubico-c-client/usha.c **** int
 214:..\lib\yubico-c-client/usha.c **** USHABlockSize (enum SHAversion whichSha)
 215:..\lib\yubico-c-client/usha.c **** {
 393              		.loc 1 215 0
 394              		.cfi_startproc
 395              		@ args = 0, pretend = 0, frame = 0
 396              		@ frame_needed = 0, uses_anonymous_args = 0
 397              		@ link register save eliminated.
 398              	.LVL76:
 216:..\lib\yubico-c-client/usha.c ****   switch (whichSha)
 399              		.loc 1 216 0
 400 0000 0228     		cmp	r0, #2
 401 0002 01D8     		bhi	.L48
 217:..\lib\yubico-c-client/usha.c ****     {
 218:..\lib\yubico-c-client/usha.c ****     case SHA1:
ARM GAS  C:\Users\bkettle\AppData\Local\Temp\ccOD3M5d.s 			page 12


 219:..\lib\yubico-c-client/usha.c ****       return SHA1_Message_Block_Size;
 402              		.loc 1 219 0
 403 0004 4020     		movs	r0, #64
 404              	.LVL77:
 405 0006 7047     		bx	lr
 406              	.LVL78:
 407              	.L48:
 220:..\lib\yubico-c-client/usha.c ****     case SHA224:
 221:..\lib\yubico-c-client/usha.c ****       return SHA224_Message_Block_Size;
 222:..\lib\yubico-c-client/usha.c ****     case SHA256:
 223:..\lib\yubico-c-client/usha.c ****       return SHA256_Message_Block_Size;
 224:..\lib\yubico-c-client/usha.c ****     case SHA384:
 225:..\lib\yubico-c-client/usha.c ****       return SHA384_Message_Block_Size;
 408              		.loc 1 225 0
 409 0008 8020     		movs	r0, #128
 410              	.LVL79:
 226:..\lib\yubico-c-client/usha.c ****     default:
 227:..\lib\yubico-c-client/usha.c ****     case SHA512:
 228:..\lib\yubico-c-client/usha.c ****       return SHA512_Message_Block_Size;
 229:..\lib\yubico-c-client/usha.c ****     }
 230:..\lib\yubico-c-client/usha.c **** }
 411              		.loc 1 230 0
 412 000a 7047     		bx	lr
 413              		.cfi_endproc
 414              	.LFE4:
 415              		.size	USHABlockSize, .-USHABlockSize
 416              		.section	.text.USHAHashSize,"ax",%progbits
 417              		.align	2
 418              		.global	USHAHashSize
 419              		.thumb
 420              		.thumb_func
 421              		.type	USHAHashSize, %function
 422              	USHAHashSize:
 423              	.LFB5:
 231:..\lib\yubico-c-client/usha.c **** 
 232:..\lib\yubico-c-client/usha.c **** /*
 233:..\lib\yubico-c-client/usha.c ****  * USHAHashSize
 234:..\lib\yubico-c-client/usha.c ****  *
 235:..\lib\yubico-c-client/usha.c ****  * Description:
 236:..\lib\yubico-c-client/usha.c ****  *   This function will return the hashsize for the given SHA
 237:..\lib\yubico-c-client/usha.c ****  *   algorithm.
 238:..\lib\yubico-c-client/usha.c ****  *
 239:..\lib\yubico-c-client/usha.c ****  * Parameters:
 240:..\lib\yubico-c-client/usha.c ****  *   whichSha:
 241:..\lib\yubico-c-client/usha.c ****  *     which SHA algorithm to query
 242:..\lib\yubico-c-client/usha.c ****  *
 243:..\lib\yubico-c-client/usha.c ****  * Returns:
 244:..\lib\yubico-c-client/usha.c ****  *   hash size
 245:..\lib\yubico-c-client/usha.c ****  *
 246:..\lib\yubico-c-client/usha.c ****  */
 247:..\lib\yubico-c-client/usha.c **** int
 248:..\lib\yubico-c-client/usha.c **** USHAHashSize (enum SHAversion whichSha)
 249:..\lib\yubico-c-client/usha.c **** {
 424              		.loc 1 249 0
 425              		.cfi_startproc
 426              		@ args = 0, pretend = 0, frame = 0
 427              		@ frame_needed = 0, uses_anonymous_args = 0
ARM GAS  C:\Users\bkettle\AppData\Local\Temp\ccOD3M5d.s 			page 13


 428              		@ link register save eliminated.
 429              	.LVL80:
 250:..\lib\yubico-c-client/usha.c ****   switch (whichSha)
 430              		.loc 1 250 0
 431 0000 0328     		cmp	r0, #3
 432 0002 09D8     		bhi	.L50
 433 0004 DFE800F0 		tbb	[pc, r0]
 434              	.L52:
 435 0008 02       		.byte	(.L51-.L52)/2
 436 0009 0A       		.byte	(.L56-.L52)/2
 437 000a 04       		.byte	(.L54-.L52)/2
 438 000b 06       		.byte	(.L55-.L52)/2
 439              		.p2align 1
 440              	.L51:
 251:..\lib\yubico-c-client/usha.c ****     {
 252:..\lib\yubico-c-client/usha.c ****     case SHA1:
 253:..\lib\yubico-c-client/usha.c ****       return SHA1HashSize;
 441              		.loc 1 253 0
 442 000c 1420     		movs	r0, #20
 443              	.LVL81:
 444 000e 7047     		bx	lr
 445              	.LVL82:
 446              	.L54:
 254:..\lib\yubico-c-client/usha.c ****     case SHA224:
 255:..\lib\yubico-c-client/usha.c ****       return SHA224HashSize;
 256:..\lib\yubico-c-client/usha.c ****     case SHA256:
 257:..\lib\yubico-c-client/usha.c ****       return SHA256HashSize;
 447              		.loc 1 257 0
 448 0010 2020     		movs	r0, #32
 449              	.LVL83:
 450 0012 7047     		bx	lr
 451              	.LVL84:
 452              	.L55:
 258:..\lib\yubico-c-client/usha.c ****     case SHA384:
 259:..\lib\yubico-c-client/usha.c ****       return SHA384HashSize;
 453              		.loc 1 259 0
 454 0014 3020     		movs	r0, #48
 455              	.LVL85:
 456 0016 7047     		bx	lr
 457              	.LVL86:
 458              	.L50:
 260:..\lib\yubico-c-client/usha.c ****     default:
 261:..\lib\yubico-c-client/usha.c ****     case SHA512:
 262:..\lib\yubico-c-client/usha.c ****       return SHA512HashSize;
 459              		.loc 1 262 0
 460 0018 4020     		movs	r0, #64
 461              	.LVL87:
 462 001a 7047     		bx	lr
 463              	.LVL88:
 464              	.L56:
 255:..\lib\yubico-c-client/usha.c ****     case SHA256:
 465              		.loc 1 255 0
 466 001c 1C20     		movs	r0, #28
 467              	.LVL89:
 263:..\lib\yubico-c-client/usha.c ****     }
 264:..\lib\yubico-c-client/usha.c **** }
 468              		.loc 1 264 0
ARM GAS  C:\Users\bkettle\AppData\Local\Temp\ccOD3M5d.s 			page 14


 469 001e 7047     		bx	lr
 470              		.cfi_endproc
 471              	.LFE5:
 472              		.size	USHAHashSize, .-USHAHashSize
 473              		.section	.text.USHAHashSizeBits,"ax",%progbits
 474              		.align	2
 475              		.global	USHAHashSizeBits
 476              		.thumb
 477              		.thumb_func
 478              		.type	USHAHashSizeBits, %function
 479              	USHAHashSizeBits:
 480              	.LFB6:
 265:..\lib\yubico-c-client/usha.c **** 
 266:..\lib\yubico-c-client/usha.c **** /*
 267:..\lib\yubico-c-client/usha.c ****  * USHAHashSizeBits
 268:..\lib\yubico-c-client/usha.c ****  *
 269:..\lib\yubico-c-client/usha.c ****  * Description:
 270:..\lib\yubico-c-client/usha.c ****  *   This function will return the hashsize for the given SHA
 271:..\lib\yubico-c-client/usha.c ****  *   algorithm, expressed in bits.
 272:..\lib\yubico-c-client/usha.c ****  *
 273:..\lib\yubico-c-client/usha.c ****  * Parameters:
 274:..\lib\yubico-c-client/usha.c ****  *   whichSha:
 275:..\lib\yubico-c-client/usha.c ****  *     which SHA algorithm to query
 276:..\lib\yubico-c-client/usha.c ****  *
 277:..\lib\yubico-c-client/usha.c ****  * Returns:
 278:..\lib\yubico-c-client/usha.c ****  *   hash size in bits
 279:..\lib\yubico-c-client/usha.c ****  *
 280:..\lib\yubico-c-client/usha.c ****  */
 281:..\lib\yubico-c-client/usha.c **** int
 282:..\lib\yubico-c-client/usha.c **** USHAHashSizeBits (enum SHAversion whichSha)
 283:..\lib\yubico-c-client/usha.c **** {
 481              		.loc 1 283 0
 482              		.cfi_startproc
 483              		@ args = 0, pretend = 0, frame = 0
 484              		@ frame_needed = 0, uses_anonymous_args = 0
 485              		@ link register save eliminated.
 486              	.LVL90:
 284:..\lib\yubico-c-client/usha.c ****   switch (whichSha)
 487              		.loc 1 284 0
 488 0000 0328     		cmp	r0, #3
 489 0002 0BD8     		bhi	.L58
 490 0004 DFE800F0 		tbb	[pc, r0]
 491              	.L60:
 492 0008 02       		.byte	(.L59-.L60)/2
 493 0009 0D       		.byte	(.L64-.L60)/2
 494 000a 04       		.byte	(.L62-.L60)/2
 495 000b 07       		.byte	(.L63-.L60)/2
 496              		.p2align 1
 497              	.L59:
 285:..\lib\yubico-c-client/usha.c ****     {
 286:..\lib\yubico-c-client/usha.c ****     case SHA1:
 287:..\lib\yubico-c-client/usha.c ****       return SHA1HashSizeBits;
 498              		.loc 1 287 0
 499 000c A020     		movs	r0, #160
 500              	.LVL91:
 501 000e 7047     		bx	lr
 502              	.LVL92:
ARM GAS  C:\Users\bkettle\AppData\Local\Temp\ccOD3M5d.s 			page 15


 503              	.L62:
 288:..\lib\yubico-c-client/usha.c ****     case SHA224:
 289:..\lib\yubico-c-client/usha.c ****       return SHA224HashSizeBits;
 290:..\lib\yubico-c-client/usha.c ****     case SHA256:
 291:..\lib\yubico-c-client/usha.c ****       return SHA256HashSizeBits;
 504              		.loc 1 291 0
 505 0010 4FF48070 		mov	r0, #256
 506              	.LVL93:
 507 0014 7047     		bx	lr
 508              	.LVL94:
 509              	.L63:
 292:..\lib\yubico-c-client/usha.c ****     case SHA384:
 293:..\lib\yubico-c-client/usha.c ****       return SHA384HashSizeBits;
 510              		.loc 1 293 0
 511 0016 4FF4C070 		mov	r0, #384
 512              	.LVL95:
 513 001a 7047     		bx	lr
 514              	.LVL96:
 515              	.L58:
 294:..\lib\yubico-c-client/usha.c ****     default:
 295:..\lib\yubico-c-client/usha.c ****     case SHA512:
 296:..\lib\yubico-c-client/usha.c ****       return SHA512HashSizeBits;
 516              		.loc 1 296 0
 517 001c 4FF40070 		mov	r0, #512
 518              	.LVL97:
 519 0020 7047     		bx	lr
 520              	.LVL98:
 521              	.L64:
 289:..\lib\yubico-c-client/usha.c ****     case SHA256:
 522              		.loc 1 289 0
 523 0022 E020     		movs	r0, #224
 524              	.LVL99:
 297:..\lib\yubico-c-client/usha.c ****     }
 298:..\lib\yubico-c-client/usha.c **** }
 525              		.loc 1 298 0
 526 0024 7047     		bx	lr
 527              		.cfi_endproc
 528              	.LFE6:
 529              		.size	USHAHashSizeBits, .-USHAHashSizeBits
 530 0026 00BF     		.text
 531              	.Letext0:
 532              		.file 2 "c:\\program files (x86)\\cypress\\psoc creator\\4.3\\psoc creator\\import\\gnu\\arm\\5.4.
 533              		.file 3 "c:\\program files (x86)\\cypress\\psoc creator\\4.3\\psoc creator\\import\\gnu\\arm\\5.4.
 534              		.file 4 "c:\\program files (x86)\\cypress\\psoc creator\\4.3\\psoc creator\\import\\gnu\\arm\\5.4.
 535              		.file 5 "..\\lib\\yubico-c-client\\sha.h"