ARM GAS  C:\Users\bkettle\AppData\Local\Temp\ccqVNvP8.s 			page 1


   1              		.syntax unified
   2              		.cpu cortex-m3
   3              		.fpu softvfp
   4              		.eabi_attribute 20, 1
   5              		.eabi_attribute 21, 1
   6              		.eabi_attribute 23, 3
   7              		.eabi_attribute 24, 1
   8              		.eabi_attribute 25, 1
   9              		.eabi_attribute 26, 1
  10              		.eabi_attribute 30, 1
  11              		.eabi_attribute 34, 1
  12              		.eabi_attribute 18, 4
  13              		.thumb
  14              		.syntax unified
  15              		.file	"aes.c"
  16              		.text
  17              	.Ltext0:
  18              		.cfi_sections	.debug_frame
  19              		.section	.text.KeyExpansion,"ax",%progbits
  20              		.align	2
  21              		.thumb
  22              		.thumb_func
  23              		.type	KeyExpansion, %function
  24              	KeyExpansion:
  25              	.LFB0:
  26              		.file 1 "aes.c"
   1:aes.c         **** /*
   2:aes.c         **** 
   3:aes.c         **** This is an implementation of the AES algorithm, specifically ECB, CTR and CBC mode.
   4:aes.c         **** Block size can be chosen in aes.h - available choices are AES128, AES192, AES256.
   5:aes.c         **** 
   6:aes.c         **** The implementation is verified against the test vectors in:
   7:aes.c         ****   National Institute of Standards and Technology Special Publication 800-38A 2001 ED
   8:aes.c         **** 
   9:aes.c         **** ECB-AES128
  10:aes.c         **** ----------
  11:aes.c         **** 
  12:aes.c         ****   plain-text:
  13:aes.c         ****     6bc1bee22e409f96e93d7e117393172a
  14:aes.c         ****     ae2d8a571e03ac9c9eb76fac45af8e51
  15:aes.c         ****     30c81c46a35ce411e5fbc1191a0a52ef
  16:aes.c         ****     f69f2445df4f9b17ad2b417be66c3710
  17:aes.c         **** 
  18:aes.c         ****   key:
  19:aes.c         ****     2b7e151628aed2a6abf7158809cf4f3c
  20:aes.c         **** 
  21:aes.c         ****   resulting cipher
  22:aes.c         ****     3ad77bb40d7a3660a89ecaf32466ef97 
  23:aes.c         ****     f5d3d58503b9699de785895a96fdbaaf 
  24:aes.c         ****     43b1cd7f598ece23881b00e3ed030688 
  25:aes.c         ****     7b0c785e27e8ad3f8223207104725dd4 
  26:aes.c         **** 
  27:aes.c         **** 
  28:aes.c         **** NOTE:   String length must be evenly divisible by 16byte (str_len % 16 == 0)
  29:aes.c         ****         You should pad the end of the string with zeros if this is not the case.
  30:aes.c         ****         For AES192/256 the key size is proportionally larger.
  31:aes.c         **** 
ARM GAS  C:\Users\bkettle\AppData\Local\Temp\ccqVNvP8.s 			page 2


  32:aes.c         **** */
  33:aes.c         **** 
  34:aes.c         **** 
  35:aes.c         **** /*****************************************************************************/
  36:aes.c         **** /* Includes:                                                                 */
  37:aes.c         **** /*****************************************************************************/
  38:aes.c         **** #include <string.h> // CBC mode, for memset
  39:aes.c         **** #include "aes.h"
  40:aes.c         **** 
  41:aes.c         **** /*****************************************************************************/
  42:aes.c         **** /* Defines:                                                                  */
  43:aes.c         **** /*****************************************************************************/
  44:aes.c         **** // The number of columns comprising a state in AES. This is a constant in AES. Value=4
  45:aes.c         **** #define Nb 4
  46:aes.c         **** 
  47:aes.c         **** #if defined(AES256) && (AES256 == 1)
  48:aes.c         ****     #define Nk 8
  49:aes.c         ****     #define Nr 14
  50:aes.c         **** #elif defined(AES192) && (AES192 == 1)
  51:aes.c         ****     #define Nk 6
  52:aes.c         ****     #define Nr 12
  53:aes.c         **** #else
  54:aes.c         ****     #define Nk 4        // The number of 32 bit words in a key.
  55:aes.c         ****     #define Nr 10       // The number of rounds in AES Cipher.
  56:aes.c         **** #endif
  57:aes.c         **** 
  58:aes.c         **** // jcallan@github points out that declaring Multiply as a function 
  59:aes.c         **** // reduces code size considerably with the Keil ARM compiler.
  60:aes.c         **** // See this link for more information: https://github.com/kokke/tiny-AES-C/pull/3
  61:aes.c         **** #ifndef MULTIPLY_AS_A_FUNCTION
  62:aes.c         ****   #define MULTIPLY_AS_A_FUNCTION 0
  63:aes.c         **** #endif
  64:aes.c         **** 
  65:aes.c         **** 
  66:aes.c         **** 
  67:aes.c         **** 
  68:aes.c         **** /*****************************************************************************/
  69:aes.c         **** /* Private variables:                                                        */
  70:aes.c         **** /*****************************************************************************/
  71:aes.c         **** // state - array holding the intermediate results during decryption.
  72:aes.c         **** typedef uint8_t state_t[4][4];
  73:aes.c         **** 
  74:aes.c         **** 
  75:aes.c         **** 
  76:aes.c         **** // The lookup-tables are marked const so they can be placed in read-only storage instead of RAM
  77:aes.c         **** // The numbers below can be computed dynamically trading ROM for RAM - 
  78:aes.c         **** // This can be useful in (embedded) bootloader applications, where ROM is often limited.
  79:aes.c         **** static const uint8_t sbox[256] = {
  80:aes.c         ****   //0     1    2      3     4    5     6     7      8    9     A      B    C     D     E     F
  81:aes.c         ****   0x63, 0x7c, 0x77, 0x7b, 0xf2, 0x6b, 0x6f, 0xc5, 0x30, 0x01, 0x67, 0x2b, 0xfe, 0xd7, 0xab, 0x76,
  82:aes.c         ****   0xca, 0x82, 0xc9, 0x7d, 0xfa, 0x59, 0x47, 0xf0, 0xad, 0xd4, 0xa2, 0xaf, 0x9c, 0xa4, 0x72, 0xc0,
  83:aes.c         ****   0xb7, 0xfd, 0x93, 0x26, 0x36, 0x3f, 0xf7, 0xcc, 0x34, 0xa5, 0xe5, 0xf1, 0x71, 0xd8, 0x31, 0x15,
  84:aes.c         ****   0x04, 0xc7, 0x23, 0xc3, 0x18, 0x96, 0x05, 0x9a, 0x07, 0x12, 0x80, 0xe2, 0xeb, 0x27, 0xb2, 0x75,
  85:aes.c         ****   0x09, 0x83, 0x2c, 0x1a, 0x1b, 0x6e, 0x5a, 0xa0, 0x52, 0x3b, 0xd6, 0xb3, 0x29, 0xe3, 0x2f, 0x84,
  86:aes.c         ****   0x53, 0xd1, 0x00, 0xed, 0x20, 0xfc, 0xb1, 0x5b, 0x6a, 0xcb, 0xbe, 0x39, 0x4a, 0x4c, 0x58, 0xcf,
  87:aes.c         ****   0xd0, 0xef, 0xaa, 0xfb, 0x43, 0x4d, 0x33, 0x85, 0x45, 0xf9, 0x02, 0x7f, 0x50, 0x3c, 0x9f, 0xa8,
  88:aes.c         ****   0x51, 0xa3, 0x40, 0x8f, 0x92, 0x9d, 0x38, 0xf5, 0xbc, 0xb6, 0xda, 0x21, 0x10, 0xff, 0xf3, 0xd2,
ARM GAS  C:\Users\bkettle\AppData\Local\Temp\ccqVNvP8.s 			page 3


  89:aes.c         ****   0xcd, 0x0c, 0x13, 0xec, 0x5f, 0x97, 0x44, 0x17, 0xc4, 0xa7, 0x7e, 0x3d, 0x64, 0x5d, 0x19, 0x73,
  90:aes.c         ****   0x60, 0x81, 0x4f, 0xdc, 0x22, 0x2a, 0x90, 0x88, 0x46, 0xee, 0xb8, 0x14, 0xde, 0x5e, 0x0b, 0xdb,
  91:aes.c         ****   0xe0, 0x32, 0x3a, 0x0a, 0x49, 0x06, 0x24, 0x5c, 0xc2, 0xd3, 0xac, 0x62, 0x91, 0x95, 0xe4, 0x79,
  92:aes.c         ****   0xe7, 0xc8, 0x37, 0x6d, 0x8d, 0xd5, 0x4e, 0xa9, 0x6c, 0x56, 0xf4, 0xea, 0x65, 0x7a, 0xae, 0x08,
  93:aes.c         ****   0xba, 0x78, 0x25, 0x2e, 0x1c, 0xa6, 0xb4, 0xc6, 0xe8, 0xdd, 0x74, 0x1f, 0x4b, 0xbd, 0x8b, 0x8a,
  94:aes.c         ****   0x70, 0x3e, 0xb5, 0x66, 0x48, 0x03, 0xf6, 0x0e, 0x61, 0x35, 0x57, 0xb9, 0x86, 0xc1, 0x1d, 0x9e,
  95:aes.c         ****   0xe1, 0xf8, 0x98, 0x11, 0x69, 0xd9, 0x8e, 0x94, 0x9b, 0x1e, 0x87, 0xe9, 0xce, 0x55, 0x28, 0xdf,
  96:aes.c         ****   0x8c, 0xa1, 0x89, 0x0d, 0xbf, 0xe6, 0x42, 0x68, 0x41, 0x99, 0x2d, 0x0f, 0xb0, 0x54, 0xbb, 0x16 };
  97:aes.c         **** 
  98:aes.c         **** static const uint8_t rsbox[256] = {
  99:aes.c         ****   0x52, 0x09, 0x6a, 0xd5, 0x30, 0x36, 0xa5, 0x38, 0xbf, 0x40, 0xa3, 0x9e, 0x81, 0xf3, 0xd7, 0xfb,
 100:aes.c         ****   0x7c, 0xe3, 0x39, 0x82, 0x9b, 0x2f, 0xff, 0x87, 0x34, 0x8e, 0x43, 0x44, 0xc4, 0xde, 0xe9, 0xcb,
 101:aes.c         ****   0x54, 0x7b, 0x94, 0x32, 0xa6, 0xc2, 0x23, 0x3d, 0xee, 0x4c, 0x95, 0x0b, 0x42, 0xfa, 0xc3, 0x4e,
 102:aes.c         ****   0x08, 0x2e, 0xa1, 0x66, 0x28, 0xd9, 0x24, 0xb2, 0x76, 0x5b, 0xa2, 0x49, 0x6d, 0x8b, 0xd1, 0x25,
 103:aes.c         ****   0x72, 0xf8, 0xf6, 0x64, 0x86, 0x68, 0x98, 0x16, 0xd4, 0xa4, 0x5c, 0xcc, 0x5d, 0x65, 0xb6, 0x92,
 104:aes.c         ****   0x6c, 0x70, 0x48, 0x50, 0xfd, 0xed, 0xb9, 0xda, 0x5e, 0x15, 0x46, 0x57, 0xa7, 0x8d, 0x9d, 0x84,
 105:aes.c         ****   0x90, 0xd8, 0xab, 0x00, 0x8c, 0xbc, 0xd3, 0x0a, 0xf7, 0xe4, 0x58, 0x05, 0xb8, 0xb3, 0x45, 0x06,
 106:aes.c         ****   0xd0, 0x2c, 0x1e, 0x8f, 0xca, 0x3f, 0x0f, 0x02, 0xc1, 0xaf, 0xbd, 0x03, 0x01, 0x13, 0x8a, 0x6b,
 107:aes.c         ****   0x3a, 0x91, 0x11, 0x41, 0x4f, 0x67, 0xdc, 0xea, 0x97, 0xf2, 0xcf, 0xce, 0xf0, 0xb4, 0xe6, 0x73,
 108:aes.c         ****   0x96, 0xac, 0x74, 0x22, 0xe7, 0xad, 0x35, 0x85, 0xe2, 0xf9, 0x37, 0xe8, 0x1c, 0x75, 0xdf, 0x6e,
 109:aes.c         ****   0x47, 0xf1, 0x1a, 0x71, 0x1d, 0x29, 0xc5, 0x89, 0x6f, 0xb7, 0x62, 0x0e, 0xaa, 0x18, 0xbe, 0x1b,
 110:aes.c         ****   0xfc, 0x56, 0x3e, 0x4b, 0xc6, 0xd2, 0x79, 0x20, 0x9a, 0xdb, 0xc0, 0xfe, 0x78, 0xcd, 0x5a, 0xf4,
 111:aes.c         ****   0x1f, 0xdd, 0xa8, 0x33, 0x88, 0x07, 0xc7, 0x31, 0xb1, 0x12, 0x10, 0x59, 0x27, 0x80, 0xec, 0x5f,
 112:aes.c         ****   0x60, 0x51, 0x7f, 0xa9, 0x19, 0xb5, 0x4a, 0x0d, 0x2d, 0xe5, 0x7a, 0x9f, 0x93, 0xc9, 0x9c, 0xef,
 113:aes.c         ****   0xa0, 0xe0, 0x3b, 0x4d, 0xae, 0x2a, 0xf5, 0xb0, 0xc8, 0xeb, 0xbb, 0x3c, 0x83, 0x53, 0x99, 0x61,
 114:aes.c         ****   0x17, 0x2b, 0x04, 0x7e, 0xba, 0x77, 0xd6, 0x26, 0xe1, 0x69, 0x14, 0x63, 0x55, 0x21, 0x0c, 0x7d };
 115:aes.c         **** 
 116:aes.c         **** // The round constant word array, Rcon[i], contains the values given by 
 117:aes.c         **** // x to the power (i-1) being powers of x (x is denoted as {02}) in the field GF(2^8)
 118:aes.c         **** static const uint8_t Rcon[11] = {
 119:aes.c         ****   0x8d, 0x01, 0x02, 0x04, 0x08, 0x10, 0x20, 0x40, 0x80, 0x1b, 0x36 };
 120:aes.c         **** 
 121:aes.c         **** /*
 122:aes.c         ****  * Jordan Goulder points out in PR #12 (https://github.com/kokke/tiny-AES-C/pull/12),
 123:aes.c         ****  * that you can remove most of the elements in the Rcon array, because they are unused.
 124:aes.c         ****  *
 125:aes.c         ****  * From Wikipedia's article on the Rijndael key schedule @ https://en.wikipedia.org/wiki/Rijndael_k
 126:aes.c         ****  * 
 127:aes.c         ****  * "Only the first some of these constants are actually used – up to rcon[10] for AES-128 (as 11 
 128:aes.c         ****  *  up to rcon[8] for AES-192, up to rcon[7] for AES-256. rcon[0] is not used in AES algorithm."
 129:aes.c         ****  */
 130:aes.c         **** 
 131:aes.c         **** 
 132:aes.c         **** /*****************************************************************************/
 133:aes.c         **** /* Private functions:                                                        */
 134:aes.c         **** /*****************************************************************************/
 135:aes.c         **** /*
 136:aes.c         **** static uint8_t getSBoxValue(uint8_t num)
 137:aes.c         **** {
 138:aes.c         ****   return sbox[num];
 139:aes.c         **** }
 140:aes.c         **** */
 141:aes.c         **** #define getSBoxValue(num) (sbox[(num)])
 142:aes.c         **** /*
 143:aes.c         **** static uint8_t getSBoxInvert(uint8_t num)
 144:aes.c         **** {
 145:aes.c         ****   return rsbox[num];
ARM GAS  C:\Users\bkettle\AppData\Local\Temp\ccqVNvP8.s 			page 4


 146:aes.c         **** }
 147:aes.c         **** */
 148:aes.c         **** #define getSBoxInvert(num) (rsbox[(num)])
 149:aes.c         **** 
 150:aes.c         **** // This function produces Nb(Nr+1) round keys. The round keys are used in each round to decrypt the
 151:aes.c         **** static void KeyExpansion(uint8_t* RoundKey, const uint8_t* Key)
 152:aes.c         **** {
  27              		.loc 1 152 0
  28              		.cfi_startproc
  29              		@ args = 0, pretend = 0, frame = 8
  30              		@ frame_needed = 0, uses_anonymous_args = 0
  31              		@ link register save eliminated.
  32              	.LVL0:
  33 0000 70B4     		push	{r4, r5, r6}
  34              		.cfi_def_cfa_offset 12
  35              		.cfi_offset 4, -12
  36              		.cfi_offset 5, -8
  37              		.cfi_offset 6, -4
  38 0002 83B0     		sub	sp, sp, #12
  39              		.cfi_def_cfa_offset 24
  40              	.LVL1:
 153:aes.c         ****   unsigned i, j, k;
 154:aes.c         ****   uint8_t tempa[4]; // Used for the column/row operations
 155:aes.c         ****   
 156:aes.c         ****   // The first round key is the key itself.
 157:aes.c         ****   for (i = 0; i < Nk; ++i)
  41              		.loc 1 157 0
  42 0004 0022     		movs	r2, #0
  43 0006 0EE0     		b	.L2
  44              	.LVL2:
  45              	.L3:
 158:aes.c         ****   {
 159:aes.c         ****     RoundKey[(i * 4) + 0] = Key[(i * 4) + 0];
  46              		.loc 1 159 0 discriminator 3
  47 0008 9300     		lsls	r3, r2, #2
  48 000a 11F82240 		ldrb	r4, [r1, r2, lsl #2]	@ zero_extendqisi2
  49 000e 00F82240 		strb	r4, [r0, r2, lsl #2]
 160:aes.c         ****     RoundKey[(i * 4) + 1] = Key[(i * 4) + 1];
  50              		.loc 1 160 0 discriminator 3
  51 0012 5C1C     		adds	r4, r3, #1
  52 0014 0D5D     		ldrb	r5, [r1, r4]	@ zero_extendqisi2
  53 0016 0555     		strb	r5, [r0, r4]
 161:aes.c         ****     RoundKey[(i * 4) + 2] = Key[(i * 4) + 2];
  54              		.loc 1 161 0 discriminator 3
  55 0018 9C1C     		adds	r4, r3, #2
  56 001a 0D5D     		ldrb	r5, [r1, r4]	@ zero_extendqisi2
  57 001c 0555     		strb	r5, [r0, r4]
 162:aes.c         ****     RoundKey[(i * 4) + 3] = Key[(i * 4) + 3];
  58              		.loc 1 162 0 discriminator 3
  59 001e 0333     		adds	r3, r3, #3
  60 0020 CC5C     		ldrb	r4, [r1, r3]	@ zero_extendqisi2
  61 0022 C454     		strb	r4, [r0, r3]
 157:aes.c         ****   {
  62              		.loc 1 157 0 discriminator 3
  63 0024 0132     		adds	r2, r2, #1
  64              	.LVL3:
  65              	.L2:
ARM GAS  C:\Users\bkettle\AppData\Local\Temp\ccqVNvP8.s 			page 5


 157:aes.c         ****   {
  66              		.loc 1 157 0 is_stmt 0 discriminator 1
  67 0026 032A     		cmp	r2, #3
  68 0028 EED9     		bls	.L3
  69 002a 0422     		movs	r2, #4
  70              	.LVL4:
  71 002c 46E0     		b	.L4
  72              	.LVL5:
  73              	.L6:
 163:aes.c         ****   }
 164:aes.c         **** 
 165:aes.c         ****   // All other round keys are found from the previous round keys.
 166:aes.c         ****   for (i = Nk; i < Nb * (Nr + 1); ++i)
 167:aes.c         ****   {
 168:aes.c         ****     {
 169:aes.c         ****       k = (i - 1) * 4;
  74              		.loc 1 169 0 is_stmt 1
  75 002e 02F18043 		add	r3, r2, #1073741824
  76 0032 013B     		subs	r3, r3, #1
  77              	.LVL6:
 170:aes.c         ****       tempa[0]=RoundKey[k + 0];
  78              		.loc 1 170 0
  79 0034 10F82310 		ldrb	r1, [r0, r3, lsl #2]	@ zero_extendqisi2
  80 0038 8DF80410 		strb	r1, [sp, #4]
 171:aes.c         ****       tempa[1]=RoundKey[k + 1];
  81              		.loc 1 171 0
  82 003c 00EB8303 		add	r3, r0, r3, lsl #2
  83              	.LVL7:
  84 0040 5E78     		ldrb	r6, [r3, #1]	@ zero_extendqisi2
  85 0042 8DF80560 		strb	r6, [sp, #5]
 172:aes.c         ****       tempa[2]=RoundKey[k + 2];
  86              		.loc 1 172 0
  87 0046 9D78     		ldrb	r5, [r3, #2]	@ zero_extendqisi2
  88 0048 8DF80650 		strb	r5, [sp, #6]
 173:aes.c         ****       tempa[3]=RoundKey[k + 3];
  89              		.loc 1 173 0
  90 004c DC78     		ldrb	r4, [r3, #3]	@ zero_extendqisi2
  91 004e 8DF80740 		strb	r4, [sp, #7]
 174:aes.c         **** 
 175:aes.c         ****     }
 176:aes.c         **** 
 177:aes.c         ****     if (i % Nk == 0)
  92              		.loc 1 177 0
  93 0052 12F0030F 		tst	r2, #3
  94 0056 11D1     		bne	.L5
  95              	.LVL8:
 178:aes.c         ****     {
 179:aes.c         ****       // This function shifts the 4 bytes in a word to the left once.
 180:aes.c         ****       // [a0,a1,a2,a3] becomes [a1,a2,a3,a0]
 181:aes.c         **** 
 182:aes.c         ****       // Function RotWord()
 183:aes.c         ****       {
 184:aes.c         ****         const uint8_t u8tmp = tempa[0];
 185:aes.c         ****         tempa[0] = tempa[1];
 186:aes.c         ****         tempa[1] = tempa[2];
 187:aes.c         ****         tempa[2] = tempa[3];
 188:aes.c         ****         tempa[3] = u8tmp;
ARM GAS  C:\Users\bkettle\AppData\Local\Temp\ccqVNvP8.s 			page 6


 189:aes.c         ****       }
 190:aes.c         **** 
 191:aes.c         ****       // SubWord() is a function that takes a four-byte input word and 
 192:aes.c         ****       // applies the S-box to each of the four bytes to produce an output word.
 193:aes.c         **** 
 194:aes.c         ****       // Function Subword()
 195:aes.c         ****       {
 196:aes.c         ****         tempa[0] = getSBoxValue(tempa[0]);
  96              		.loc 1 196 0
  97 0058 1B4B     		ldr	r3, .L8
  98 005a 9E5D     		ldrb	r6, [r3, r6]	@ zero_extendqisi2
 197:aes.c         ****         tempa[1] = getSBoxValue(tempa[1]);
  99              		.loc 1 197 0
 100 005c 5D5D     		ldrb	r5, [r3, r5]	@ zero_extendqisi2
 101 005e 8DF80550 		strb	r5, [sp, #5]
 198:aes.c         ****         tempa[2] = getSBoxValue(tempa[2]);
 102              		.loc 1 198 0
 103 0062 1C5D     		ldrb	r4, [r3, r4]	@ zero_extendqisi2
 104 0064 8DF80640 		strb	r4, [sp, #6]
 199:aes.c         ****         tempa[3] = getSBoxValue(tempa[3]);
 105              		.loc 1 199 0
 106 0068 595C     		ldrb	r1, [r3, r1]	@ zero_extendqisi2
 107              	.LVL9:
 108 006a 8DF80710 		strb	r1, [sp, #7]
 200:aes.c         ****       }
 201:aes.c         **** 
 202:aes.c         ****       tempa[0] = tempa[0] ^ Rcon[i/Nk];
 109              		.loc 1 202 0
 110 006e 03EB9203 		add	r3, r3, r2, lsr #2
 111 0072 93F80031 		ldrb	r3, [r3, #256]	@ zero_extendqisi2
 112 0076 7340     		eors	r3, r3, r6
 113 0078 8DF80430 		strb	r3, [sp, #4]
 114              	.LVL10:
 115              	.L5:
 203:aes.c         ****     }
 204:aes.c         **** #if defined(AES256) && (AES256 == 1)
 205:aes.c         ****     if (i % Nk == 4)
 206:aes.c         ****     {
 207:aes.c         ****       // Function Subword()
 208:aes.c         ****       {
 209:aes.c         ****         tempa[0] = getSBoxValue(tempa[0]);
 210:aes.c         ****         tempa[1] = getSBoxValue(tempa[1]);
 211:aes.c         ****         tempa[2] = getSBoxValue(tempa[2]);
 212:aes.c         ****         tempa[3] = getSBoxValue(tempa[3]);
 213:aes.c         ****       }
 214:aes.c         ****     }
 215:aes.c         **** #endif
 216:aes.c         ****     j = i * 4; k=(i - Nk) * 4;
 116              		.loc 1 216 0 discriminator 2
 117 007c 9100     		lsls	r1, r2, #2
 118              	.LVL11:
 119 007e 02F18043 		add	r3, r2, #1073741824
 120 0082 043B     		subs	r3, r3, #4
 121              	.LVL12:
 217:aes.c         ****     RoundKey[j + 0] = RoundKey[k + 0] ^ tempa[0];
 122              		.loc 1 217 0 discriminator 2
 123 0084 10F82350 		ldrb	r5, [r0, r3, lsl #2]	@ zero_extendqisi2
ARM GAS  C:\Users\bkettle\AppData\Local\Temp\ccqVNvP8.s 			page 7


 124 0088 9DF80440 		ldrb	r4, [sp, #4]	@ zero_extendqisi2
 125 008c 6C40     		eors	r4, r4, r5
 126 008e 00F82240 		strb	r4, [r0, r2, lsl #2]
 218:aes.c         ****     RoundKey[j + 1] = RoundKey[k + 1] ^ tempa[1];
 127              		.loc 1 218 0 discriminator 2
 128 0092 4D1C     		adds	r5, r1, #1
 129 0094 00EB8303 		add	r3, r0, r3, lsl #2
 130              	.LVL13:
 131 0098 5E78     		ldrb	r6, [r3, #1]	@ zero_extendqisi2
 132 009a 9DF80540 		ldrb	r4, [sp, #5]	@ zero_extendqisi2
 133 009e 7440     		eors	r4, r4, r6
 134 00a0 4455     		strb	r4, [r0, r5]
 219:aes.c         ****     RoundKey[j + 2] = RoundKey[k + 2] ^ tempa[2];
 135              		.loc 1 219 0 discriminator 2
 136 00a2 8D1C     		adds	r5, r1, #2
 137 00a4 9E78     		ldrb	r6, [r3, #2]	@ zero_extendqisi2
 138 00a6 9DF80640 		ldrb	r4, [sp, #6]	@ zero_extendqisi2
 139 00aa 7440     		eors	r4, r4, r6
 140 00ac 4455     		strb	r4, [r0, r5]
 220:aes.c         ****     RoundKey[j + 3] = RoundKey[k + 3] ^ tempa[3];
 141              		.loc 1 220 0 discriminator 2
 142 00ae 0331     		adds	r1, r1, #3
 143              	.LVL14:
 144 00b0 DC78     		ldrb	r4, [r3, #3]	@ zero_extendqisi2
 145 00b2 9DF80730 		ldrb	r3, [sp, #7]	@ zero_extendqisi2
 146 00b6 6340     		eors	r3, r3, r4
 147 00b8 4354     		strb	r3, [r0, r1]
 166:aes.c         ****   {
 148              		.loc 1 166 0 discriminator 2
 149 00ba 0132     		adds	r2, r2, #1
 150              	.LVL15:
 151              	.L4:
 166:aes.c         ****   {
 152              		.loc 1 166 0 is_stmt 0 discriminator 1
 153 00bc 2B2A     		cmp	r2, #43
 154 00be B6D9     		bls	.L6
 221:aes.c         ****   }
 222:aes.c         **** }
 155              		.loc 1 222 0 is_stmt 1
 156 00c0 03B0     		add	sp, sp, #12
 157              		.cfi_def_cfa_offset 12
 158              		@ sp needed
 159 00c2 70BC     		pop	{r4, r5, r6}
 160              		.cfi_restore 6
 161              		.cfi_restore 5
 162              		.cfi_restore 4
 163              		.cfi_def_cfa_offset 0
 164 00c4 7047     		bx	lr
 165              	.L9:
 166 00c6 00BF     		.align	2
 167              	.L8:
 168 00c8 00000000 		.word	.LANCHOR0
 169              		.cfi_endproc
 170              	.LFE0:
 171              		.size	KeyExpansion, .-KeyExpansion
 172              		.section	.text.AddRoundKey,"ax",%progbits
 173              		.align	2
ARM GAS  C:\Users\bkettle\AppData\Local\Temp\ccqVNvP8.s 			page 8


 174              		.thumb
 175              		.thumb_func
 176              		.type	AddRoundKey, %function
 177              	AddRoundKey:
 178              	.LFB4:
 223:aes.c         **** 
 224:aes.c         **** void AES_init_ctx(struct AES_ctx* ctx, const uint8_t* key)
 225:aes.c         **** {
 226:aes.c         ****   KeyExpansion(ctx->RoundKey, key);
 227:aes.c         **** }
 228:aes.c         **** #if (defined(CBC) && (CBC == 1)) || (defined(CTR) && (CTR == 1))
 229:aes.c         **** void AES_init_ctx_iv(struct AES_ctx* ctx, const uint8_t* key, const uint8_t* iv)
 230:aes.c         **** {
 231:aes.c         ****   KeyExpansion(ctx->RoundKey, key);
 232:aes.c         ****   memcpy (ctx->Iv, iv, AES_BLOCKLEN);
 233:aes.c         **** }
 234:aes.c         **** void AES_ctx_set_iv(struct AES_ctx* ctx, const uint8_t* iv)
 235:aes.c         **** {
 236:aes.c         ****   memcpy (ctx->Iv, iv, AES_BLOCKLEN);
 237:aes.c         **** }
 238:aes.c         **** #endif
 239:aes.c         **** 
 240:aes.c         **** // This function adds the round key to state.
 241:aes.c         **** // The round key is added to the state by an XOR function.
 242:aes.c         **** static void AddRoundKey(uint8_t round, state_t* state, const uint8_t* RoundKey)
 243:aes.c         **** {
 179              		.loc 1 243 0
 180              		.cfi_startproc
 181              		@ args = 0, pretend = 0, frame = 0
 182              		@ frame_needed = 0, uses_anonymous_args = 0
 183              		@ link register save eliminated.
 184              	.LVL16:
 185 0000 F0B4     		push	{r4, r5, r6, r7}
 186              		.cfi_def_cfa_offset 16
 187              		.cfi_offset 4, -16
 188              		.cfi_offset 5, -12
 189              		.cfi_offset 6, -8
 190              		.cfi_offset 7, -4
 191              	.LVL17:
 244:aes.c         ****   uint8_t i,j;
 245:aes.c         ****   for (i = 0; i < 4; ++i)
 192              		.loc 1 245 0
 193 0002 0025     		movs	r5, #0
 194 0004 11E0     		b	.L11
 195              	.LVL18:
 196              	.L12:
 246:aes.c         ****   {
 247:aes.c         ****     for (j = 0; j < 4; ++j)
 248:aes.c         ****     {
 249:aes.c         ****       (*state)[i][j] ^= RoundKey[(round * Nb * 4) + (i * Nb) + j];
 197              		.loc 1 249 0 discriminator 3
 198 0006 05EB8004 		add	r4, r5, r0, lsl #2
 199 000a 03EB8404 		add	r4, r3, r4, lsl #2
 200 000e 175D     		ldrb	r7, [r2, r4]	@ zero_extendqisi2
 201 0010 01EB8506 		add	r6, r1, r5, lsl #2
 202 0014 F45C     		ldrb	r4, [r6, r3]	@ zero_extendqisi2
 203 0016 7C40     		eors	r4, r4, r7
ARM GAS  C:\Users\bkettle\AppData\Local\Temp\ccqVNvP8.s 			page 9


 204 0018 F454     		strb	r4, [r6, r3]
 247:aes.c         ****     {
 205              		.loc 1 247 0 discriminator 3
 206 001a 0133     		adds	r3, r3, #1
 207              	.LVL19:
 208 001c DBB2     		uxtb	r3, r3
 209              	.LVL20:
 210 001e 00E0     		b	.L13
 211              	.LVL21:
 212              	.L14:
 213 0020 0023     		movs	r3, #0
 214              	.L13:
 215              	.LVL22:
 247:aes.c         ****     {
 216              		.loc 1 247 0 is_stmt 0 discriminator 1
 217 0022 032B     		cmp	r3, #3
 218 0024 EFD9     		bls	.L12
 245:aes.c         ****   {
 219              		.loc 1 245 0 is_stmt 1 discriminator 2
 220 0026 0135     		adds	r5, r5, #1
 221              	.LVL23:
 222 0028 EDB2     		uxtb	r5, r5
 223              	.LVL24:
 224              	.L11:
 245:aes.c         ****   {
 225              		.loc 1 245 0 is_stmt 0 discriminator 1
 226 002a 032D     		cmp	r5, #3
 227 002c F8D9     		bls	.L14
 250:aes.c         ****     }
 251:aes.c         ****   }
 252:aes.c         **** }
 228              		.loc 1 252 0 is_stmt 1
 229 002e F0BC     		pop	{r4, r5, r6, r7}
 230              		.cfi_restore 7
 231              		.cfi_restore 6
 232              		.cfi_restore 5
 233              		.cfi_restore 4
 234              		.cfi_def_cfa_offset 0
 235              	.LVL25:
 236 0030 7047     		bx	lr
 237              		.cfi_endproc
 238              	.LFE4:
 239              		.size	AddRoundKey, .-AddRoundKey
 240 0032 00BF     		.section	.text.SubBytes,"ax",%progbits
 241              		.align	2
 242              		.thumb
 243              		.thumb_func
 244              		.type	SubBytes, %function
 245              	SubBytes:
 246              	.LFB5:
 253:aes.c         **** 
 254:aes.c         **** // The SubBytes Function Substitutes the values in the
 255:aes.c         **** // state matrix with values in an S-box.
 256:aes.c         **** static void SubBytes(state_t* state)
 257:aes.c         **** {
 247              		.loc 1 257 0
 248              		.cfi_startproc
ARM GAS  C:\Users\bkettle\AppData\Local\Temp\ccqVNvP8.s 			page 10


 249              		@ args = 0, pretend = 0, frame = 0
 250              		@ frame_needed = 0, uses_anonymous_args = 0
 251              		@ link register save eliminated.
 252              	.LVL26:
 253 0000 30B4     		push	{r4, r5}
 254              		.cfi_def_cfa_offset 8
 255              		.cfi_offset 4, -8
 256              		.cfi_offset 5, -4
 257              	.LVL27:
 258:aes.c         ****   uint8_t i, j;
 259:aes.c         ****   for (i = 0; i < 4; ++i)
 258              		.loc 1 259 0
 259 0002 0022     		movs	r2, #0
 260 0004 0DE0     		b	.L17
 261              	.LVL28:
 262              	.L18:
 260:aes.c         ****   {
 261:aes.c         ****     for (j = 0; j < 4; ++j)
 262:aes.c         ****     {
 263:aes.c         ****       (*state)[j][i] = getSBoxValue((*state)[j][i]);
 263              		.loc 1 263 0 discriminator 3
 264 0006 00EB8301 		add	r1, r0, r3, lsl #2
 265 000a 8C5C     		ldrb	r4, [r1, r2]	@ zero_extendqisi2
 266 000c 074D     		ldr	r5, .L22
 267 000e 2C5D     		ldrb	r4, [r5, r4]	@ zero_extendqisi2
 268 0010 8C54     		strb	r4, [r1, r2]
 261:aes.c         ****     {
 269              		.loc 1 261 0 discriminator 3
 270 0012 0133     		adds	r3, r3, #1
 271              	.LVL29:
 272 0014 DBB2     		uxtb	r3, r3
 273              	.LVL30:
 274 0016 00E0     		b	.L19
 275              	.LVL31:
 276              	.L20:
 277 0018 0023     		movs	r3, #0
 278              	.L19:
 279              	.LVL32:
 261:aes.c         ****     {
 280              		.loc 1 261 0 is_stmt 0 discriminator 1
 281 001a 032B     		cmp	r3, #3
 282 001c F3D9     		bls	.L18
 259:aes.c         ****   {
 283              		.loc 1 259 0 is_stmt 1 discriminator 2
 284 001e 0132     		adds	r2, r2, #1
 285              	.LVL33:
 286 0020 D2B2     		uxtb	r2, r2
 287              	.LVL34:
 288              	.L17:
 259:aes.c         ****   {
 289              		.loc 1 259 0 is_stmt 0 discriminator 1
 290 0022 032A     		cmp	r2, #3
 291 0024 F8D9     		bls	.L20
 264:aes.c         ****     }
 265:aes.c         ****   }
 266:aes.c         **** }
 292              		.loc 1 266 0 is_stmt 1
ARM GAS  C:\Users\bkettle\AppData\Local\Temp\ccqVNvP8.s 			page 11


 293 0026 30BC     		pop	{r4, r5}
 294              		.cfi_restore 5
 295              		.cfi_restore 4
 296              		.cfi_def_cfa_offset 0
 297 0028 7047     		bx	lr
 298              	.L23:
 299 002a 00BF     		.align	2
 300              	.L22:
 301 002c 00000000 		.word	.LANCHOR0
 302              		.cfi_endproc
 303              	.LFE5:
 304              		.size	SubBytes, .-SubBytes
 305              		.section	.text.ShiftRows,"ax",%progbits
 306              		.align	2
 307              		.thumb
 308              		.thumb_func
 309              		.type	ShiftRows, %function
 310              	ShiftRows:
 311              	.LFB6:
 267:aes.c         **** 
 268:aes.c         **** // The ShiftRows() function shifts the rows in the state to the left.
 269:aes.c         **** // Each row is shifted with different offset.
 270:aes.c         **** // Offset = Row number. So the first row is not shifted.
 271:aes.c         **** static void ShiftRows(state_t* state)
 272:aes.c         **** {
 312              		.loc 1 272 0
 313              		.cfi_startproc
 314              		@ args = 0, pretend = 0, frame = 0
 315              		@ frame_needed = 0, uses_anonymous_args = 0
 316              		@ link register save eliminated.
 317              	.LVL35:
 273:aes.c         ****   uint8_t temp;
 274:aes.c         **** 
 275:aes.c         ****   // Rotate first row 1 columns to left  
 276:aes.c         ****   temp           = (*state)[0][1];
 318              		.loc 1 276 0
 319 0000 4378     		ldrb	r3, [r0, #1]	@ zero_extendqisi2
 320              	.LVL36:
 277:aes.c         ****   (*state)[0][1] = (*state)[1][1];
 321              		.loc 1 277 0
 322 0002 4279     		ldrb	r2, [r0, #5]	@ zero_extendqisi2
 323 0004 4270     		strb	r2, [r0, #1]
 278:aes.c         ****   (*state)[1][1] = (*state)[2][1];
 324              		.loc 1 278 0
 325 0006 427A     		ldrb	r2, [r0, #9]	@ zero_extendqisi2
 326 0008 4271     		strb	r2, [r0, #5]
 279:aes.c         ****   (*state)[2][1] = (*state)[3][1];
 327              		.loc 1 279 0
 328 000a 427B     		ldrb	r2, [r0, #13]	@ zero_extendqisi2
 329 000c 4272     		strb	r2, [r0, #9]
 280:aes.c         ****   (*state)[3][1] = temp;
 330              		.loc 1 280 0
 331 000e 4373     		strb	r3, [r0, #13]
 281:aes.c         **** 
 282:aes.c         ****   // Rotate second row 2 columns to left  
 283:aes.c         ****   temp           = (*state)[0][2];
 332              		.loc 1 283 0
ARM GAS  C:\Users\bkettle\AppData\Local\Temp\ccqVNvP8.s 			page 12


 333 0010 8378     		ldrb	r3, [r0, #2]	@ zero_extendqisi2
 334              	.LVL37:
 284:aes.c         ****   (*state)[0][2] = (*state)[2][2];
 335              		.loc 1 284 0
 336 0012 827A     		ldrb	r2, [r0, #10]	@ zero_extendqisi2
 337 0014 8270     		strb	r2, [r0, #2]
 285:aes.c         ****   (*state)[2][2] = temp;
 338              		.loc 1 285 0
 339 0016 8372     		strb	r3, [r0, #10]
 286:aes.c         **** 
 287:aes.c         ****   temp           = (*state)[1][2];
 340              		.loc 1 287 0
 341 0018 8379     		ldrb	r3, [r0, #6]	@ zero_extendqisi2
 342              	.LVL38:
 288:aes.c         ****   (*state)[1][2] = (*state)[3][2];
 343              		.loc 1 288 0
 344 001a 827B     		ldrb	r2, [r0, #14]	@ zero_extendqisi2
 345 001c 8271     		strb	r2, [r0, #6]
 289:aes.c         ****   (*state)[3][2] = temp;
 346              		.loc 1 289 0
 347 001e 8373     		strb	r3, [r0, #14]
 290:aes.c         **** 
 291:aes.c         ****   // Rotate third row 3 columns to left
 292:aes.c         ****   temp           = (*state)[0][3];
 348              		.loc 1 292 0
 349 0020 C378     		ldrb	r3, [r0, #3]	@ zero_extendqisi2
 350              	.LVL39:
 293:aes.c         ****   (*state)[0][3] = (*state)[3][3];
 351              		.loc 1 293 0
 352 0022 C27B     		ldrb	r2, [r0, #15]	@ zero_extendqisi2
 353 0024 C270     		strb	r2, [r0, #3]
 294:aes.c         ****   (*state)[3][3] = (*state)[2][3];
 354              		.loc 1 294 0
 355 0026 C27A     		ldrb	r2, [r0, #11]	@ zero_extendqisi2
 356 0028 C273     		strb	r2, [r0, #15]
 295:aes.c         ****   (*state)[2][3] = (*state)[1][3];
 357              		.loc 1 295 0
 358 002a C279     		ldrb	r2, [r0, #7]	@ zero_extendqisi2
 359 002c C272     		strb	r2, [r0, #11]
 296:aes.c         ****   (*state)[1][3] = temp;
 360              		.loc 1 296 0
 361 002e C371     		strb	r3, [r0, #7]
 362 0030 7047     		bx	lr
 363              		.cfi_endproc
 364              	.LFE6:
 365              		.size	ShiftRows, .-ShiftRows
 366 0032 00BF     		.section	.text.xtime,"ax",%progbits
 367              		.align	2
 368              		.thumb
 369              		.thumb_func
 370              		.type	xtime, %function
 371              	xtime:
 372              	.LFB7:
 297:aes.c         **** }
 298:aes.c         **** 
 299:aes.c         **** static uint8_t xtime(uint8_t x)
 300:aes.c         **** {
ARM GAS  C:\Users\bkettle\AppData\Local\Temp\ccqVNvP8.s 			page 13


 373              		.loc 1 300 0
 374              		.cfi_startproc
 375              		@ args = 0, pretend = 0, frame = 0
 376              		@ frame_needed = 0, uses_anonymous_args = 0
 377              		@ link register save eliminated.
 378              	.LVL40:
 301:aes.c         ****   return ((x<<1) ^ (((x>>7) & 1) * 0x1b));
 379              		.loc 1 301 0
 380 0000 C309     		lsrs	r3, r0, #7
 381 0002 5A00     		lsls	r2, r3, #1
 382 0004 1344     		add	r3, r3, r2
 383 0006 03EBC303 		add	r3, r3, r3, lsl #3
 384 000a 83EA4000 		eor	r0, r3, r0, lsl #1
 385              	.LVL41:
 302:aes.c         **** }
 386              		.loc 1 302 0
 387 000e C0B2     		uxtb	r0, r0
 388 0010 7047     		bx	lr
 389              		.cfi_endproc
 390              	.LFE7:
 391              		.size	xtime, .-xtime
 392 0012 00BF     		.section	.text.MixColumns,"ax",%progbits
 393              		.align	2
 394              		.thumb
 395              		.thumb_func
 396              		.type	MixColumns, %function
 397              	MixColumns:
 398              	.LFB8:
 303:aes.c         **** 
 304:aes.c         **** // MixColumns function mixes the columns of the state matrix
 305:aes.c         **** static void MixColumns(state_t* state)
 306:aes.c         **** {
 399              		.loc 1 306 0
 400              		.cfi_startproc
 401              		@ args = 0, pretend = 0, frame = 0
 402              		@ frame_needed = 0, uses_anonymous_args = 0
 403              	.LVL42:
 404 0000 2DE9F047 		push	{r4, r5, r6, r7, r8, r9, r10, lr}
 405              		.cfi_def_cfa_offset 32
 406              		.cfi_offset 4, -32
 407              		.cfi_offset 5, -28
 408              		.cfi_offset 6, -24
 409              		.cfi_offset 7, -20
 410              		.cfi_offset 8, -16
 411              		.cfi_offset 9, -12
 412              		.cfi_offset 10, -8
 413              		.cfi_offset 14, -4
 414 0004 0746     		mov	r7, r0
 415              	.LVL43:
 307:aes.c         ****   uint8_t i;
 308:aes.c         ****   uint8_t Tmp, Tm, t;
 309:aes.c         ****   for (i = 0; i < 4; ++i)
 416              		.loc 1 309 0
 417 0006 0026     		movs	r6, #0
 418 0008 31E0     		b	.L27
 419              	.LVL44:
 420              	.L28:
ARM GAS  C:\Users\bkettle\AppData\Local\Temp\ccqVNvP8.s 			page 14


 310:aes.c         ****   {  
 311:aes.c         ****     t   = (*state)[i][0];
 421              		.loc 1 311 0 discriminator 3
 422 000a 17F82690 		ldrb	r9, [r7, r6, lsl #2]	@ zero_extendqisi2
 423              	.LVL45:
 312:aes.c         ****     Tmp = (*state)[i][0] ^ (*state)[i][1] ^ (*state)[i][2] ^ (*state)[i][3] ;
 424              		.loc 1 312 0 discriminator 3
 425 000e 07EB8605 		add	r5, r7, r6, lsl #2
 426 0012 6878     		ldrb	r0, [r5, #1]	@ zero_extendqisi2
 427 0014 89EA0000 		eor	r0, r9, r0
 428 0018 AB78     		ldrb	r3, [r5, #2]	@ zero_extendqisi2
 429 001a EC78     		ldrb	r4, [r5, #3]	@ zero_extendqisi2
 430 001c 4340     		eors	r3, r3, r0
 431 001e 5C40     		eors	r4, r4, r3
 432              	.LVL46:
 313:aes.c         ****     Tm  = (*state)[i][0] ^ (*state)[i][1] ; Tm = xtime(Tm);  (*state)[i][0] ^= Tm ^ Tmp ;
 433              		.loc 1 313 0 discriminator 3
 434 0020 FFF7FEFF 		bl	xtime
 435              	.LVL47:
 436 0024 6040     		eors	r0, r0, r4
 437              	.LVL48:
 438 0026 89EA0000 		eor	r0, r9, r0
 439 002a 07F82600 		strb	r0, [r7, r6, lsl #2]
 314:aes.c         ****     Tm  = (*state)[i][1] ^ (*state)[i][2] ; Tm = xtime(Tm);  (*state)[i][1] ^= Tm ^ Tmp ;
 440              		.loc 1 314 0 discriminator 3
 441 002e 95F80180 		ldrb	r8, [r5, #1]	@ zero_extendqisi2
 442 0032 95F802A0 		ldrb	r10, [r5, #2]	@ zero_extendqisi2
 443              	.LVL49:
 444 0036 88EA0A00 		eor	r0, r8, r10
 445 003a FFF7FEFF 		bl	xtime
 446              	.LVL50:
 447 003e 6040     		eors	r0, r0, r4
 448              	.LVL51:
 449 0040 88EA0000 		eor	r0, r8, r0
 450 0044 6870     		strb	r0, [r5, #1]
 315:aes.c         ****     Tm  = (*state)[i][2] ^ (*state)[i][3] ; Tm = xtime(Tm);  (*state)[i][2] ^= Tm ^ Tmp ;
 451              		.loc 1 315 0 discriminator 3
 452 0046 95F80380 		ldrb	r8, [r5, #3]	@ zero_extendqisi2
 453              	.LVL52:
 454 004a 8AEA0800 		eor	r0, r10, r8
 455 004e FFF7FEFF 		bl	xtime
 456              	.LVL53:
 457 0052 6040     		eors	r0, r0, r4
 458              	.LVL54:
 459 0054 8AEA0000 		eor	r0, r10, r0
 460 0058 A870     		strb	r0, [r5, #2]
 461              	.LVL55:
 316:aes.c         ****     Tm  = (*state)[i][3] ^ t ;              Tm = xtime(Tm);  (*state)[i][3] ^= Tm ^ Tmp ;
 462              		.loc 1 316 0 discriminator 3
 463 005a 89EA0800 		eor	r0, r9, r8
 464 005e FFF7FEFF 		bl	xtime
 465              	.LVL56:
 466 0062 6040     		eors	r0, r0, r4
 467              	.LVL57:
 468 0064 88EA0000 		eor	r0, r8, r0
 469 0068 E870     		strb	r0, [r5, #3]
 309:aes.c         ****   {  
ARM GAS  C:\Users\bkettle\AppData\Local\Temp\ccqVNvP8.s 			page 15


 470              		.loc 1 309 0 discriminator 3
 471 006a 0136     		adds	r6, r6, #1
 472              	.LVL58:
 473 006c F6B2     		uxtb	r6, r6
 474              	.LVL59:
 475              	.L27:
 309:aes.c         ****   {  
 476              		.loc 1 309 0 is_stmt 0 discriminator 1
 477 006e 032E     		cmp	r6, #3
 478 0070 CBD9     		bls	.L28
 317:aes.c         ****   }
 318:aes.c         **** }
 479              		.loc 1 318 0 is_stmt 1
 480 0072 BDE8F087 		pop	{r4, r5, r6, r7, r8, r9, r10, pc}
 481              		.cfi_endproc
 482              	.LFE8:
 483              		.size	MixColumns, .-MixColumns
 484 0076 00BF     		.section	.text.InvMixColumns,"ax",%progbits
 485              		.align	2
 486              		.thumb
 487              		.thumb_func
 488              		.type	InvMixColumns, %function
 489              	InvMixColumns:
 490              	.LFB9:
 319:aes.c         **** 
 320:aes.c         **** // Multiply is used to multiply numbers in the field GF(2^8)
 321:aes.c         **** // Note: The last call to xtime() is unneeded, but often ends up generating a smaller binary
 322:aes.c         **** //       The compiler seems to be able to vectorize the operation better this way.
 323:aes.c         **** //       See https://github.com/kokke/tiny-AES-c/pull/34
 324:aes.c         **** #if MULTIPLY_AS_A_FUNCTION
 325:aes.c         **** static uint8_t Multiply(uint8_t x, uint8_t y)
 326:aes.c         **** {
 327:aes.c         ****   return (((y & 1) * x) ^
 328:aes.c         ****        ((y>>1 & 1) * xtime(x)) ^
 329:aes.c         ****        ((y>>2 & 1) * xtime(xtime(x))) ^
 330:aes.c         ****        ((y>>3 & 1) * xtime(xtime(xtime(x)))) ^
 331:aes.c         ****        ((y>>4 & 1) * xtime(xtime(xtime(xtime(x)))))); /* this last call to xtime() can be omitted *
 332:aes.c         ****   }
 333:aes.c         **** #else
 334:aes.c         **** #define Multiply(x, y)                                \
 335:aes.c         ****       (  ((y & 1) * x) ^                              \
 336:aes.c         ****       ((y>>1 & 1) * xtime(x)) ^                       \
 337:aes.c         ****       ((y>>2 & 1) * xtime(xtime(x))) ^                \
 338:aes.c         ****       ((y>>3 & 1) * xtime(xtime(xtime(x)))) ^         \
 339:aes.c         ****       ((y>>4 & 1) * xtime(xtime(xtime(xtime(x))))))   \
 340:aes.c         **** 
 341:aes.c         **** #endif
 342:aes.c         **** 
 343:aes.c         **** #if (defined(CBC) && CBC == 1) || (defined(ECB) && ECB == 1)
 344:aes.c         **** // MixColumns function mixes the columns of the state matrix.
 345:aes.c         **** // The method used to multiply may be difficult to understand for the inexperienced.
 346:aes.c         **** // Please use the references to gain more information.
 347:aes.c         **** static void InvMixColumns(state_t* state)
 348:aes.c         **** {
 491              		.loc 1 348 0
 492              		.cfi_startproc
 493              		@ args = 0, pretend = 0, frame = 40
ARM GAS  C:\Users\bkettle\AppData\Local\Temp\ccqVNvP8.s 			page 16


 494              		@ frame_needed = 0, uses_anonymous_args = 0
 495              	.LVL60:
 496 0000 2DE9F04F 		push	{r4, r5, r6, r7, r8, r9, r10, fp, lr}
 497              		.cfi_def_cfa_offset 36
 498              		.cfi_offset 4, -36
 499              		.cfi_offset 5, -32
 500              		.cfi_offset 6, -28
 501              		.cfi_offset 7, -24
 502              		.cfi_offset 8, -20
 503              		.cfi_offset 9, -16
 504              		.cfi_offset 10, -12
 505              		.cfi_offset 11, -8
 506              		.cfi_offset 14, -4
 507 0004 8BB0     		sub	sp, sp, #44
 508              		.cfi_def_cfa_offset 80
 509 0006 0090     		str	r0, [sp]
 510              	.LVL61:
 349:aes.c         ****   int i;
 350:aes.c         ****   uint8_t a, b, c, d;
 351:aes.c         ****   for (i = 0; i < 4; ++i)
 511              		.loc 1 351 0
 512 0008 0025     		movs	r5, #0
 513 000a AEE0     		b	.L31
 514              	.LVL62:
 515              	.L32:
 352:aes.c         ****   { 
 353:aes.c         ****     a = (*state)[i][0];
 516              		.loc 1 353 0 discriminator 3
 517 000c 009A     		ldr	r2, [sp]
 518 000e 12F825B0 		ldrb	fp, [r2, r5, lsl #2]	@ zero_extendqisi2
 519              	.LVL63:
 354:aes.c         ****     b = (*state)[i][1];
 520              		.loc 1 354 0 discriminator 3
 521 0012 02EB8508 		add	r8, r2, r5, lsl #2
 522 0016 98F80110 		ldrb	r1, [r8, #1]	@ zero_extendqisi2
 523 001a 0E46     		mov	r6, r1
 524              	.LVL64:
 355:aes.c         ****     c = (*state)[i][2];
 525              		.loc 1 355 0 discriminator 3
 526 001c 98F80210 		ldrb	r1, [r8, #2]	@ zero_extendqisi2
 527 0020 0F46     		mov	r7, r1
 528              	.LVL65:
 356:aes.c         ****     d = (*state)[i][3];
 529              		.loc 1 356 0 discriminator 3
 530 0022 98F80340 		ldrb	r4, [r8, #3]	@ zero_extendqisi2
 531              	.LVL66:
 357:aes.c         **** 
 358:aes.c         ****     (*state)[i][0] = Multiply(a, 0x0e) ^ Multiply(b, 0x0b) ^ Multiply(c, 0x0d) ^ Multiply(d, 0x09);
 532              		.loc 1 358 0 discriminator 3
 533 0026 5846     		mov	r0, fp
 534 0028 FFF7FEFF 		bl	xtime
 535              	.LVL67:
 536 002c 0290     		str	r0, [sp, #8]
 537 002e FFF7FEFF 		bl	xtime
 538              	.LVL68:
 539 0032 0390     		str	r0, [sp, #12]
 540 0034 FFF7FEFF 		bl	xtime
ARM GAS  C:\Users\bkettle\AppData\Local\Temp\ccqVNvP8.s 			page 17


 541              	.LVL69:
 542 0038 8246     		mov	r10, r0
 543 003a 0196     		str	r6, [sp, #4]
 544 003c 3046     		mov	r0, r6
 545 003e FFF7FEFF 		bl	xtime
 546              	.LVL70:
 547 0042 0646     		mov	r6, r0
 548              	.LVL71:
 549 0044 FFF7FEFF 		bl	xtime
 550              	.LVL72:
 551 0048 0490     		str	r0, [sp, #16]
 552 004a FFF7FEFF 		bl	xtime
 553              	.LVL73:
 554 004e 8146     		mov	r9, r0
 555 0050 0997     		str	r7, [sp, #36]
 556 0052 3846     		mov	r0, r7
 557 0054 FFF7FEFF 		bl	xtime
 558              	.LVL74:
 559 0058 0590     		str	r0, [sp, #20]
 560 005a FFF7FEFF 		bl	xtime
 561              	.LVL75:
 562 005e 0690     		str	r0, [sp, #24]
 563 0060 FFF7FEFF 		bl	xtime
 564              	.LVL76:
 565 0064 0746     		mov	r7, r0
 566              	.LVL77:
 567 0066 2046     		mov	r0, r4
 568 0068 FFF7FEFF 		bl	xtime
 569              	.LVL78:
 570 006c 0790     		str	r0, [sp, #28]
 571 006e FFF7FEFF 		bl	xtime
 572              	.LVL79:
 573 0072 0890     		str	r0, [sp, #32]
 574 0074 FFF7FEFF 		bl	xtime
 575              	.LVL80:
 576 0078 029B     		ldr	r3, [sp, #8]
 577 007a 0399     		ldr	r1, [sp, #12]
 578 007c 83EA0102 		eor	r2, r3, r1
 579 0080 D2B2     		uxtb	r2, r2
 580 0082 8AEA0202 		eor	r2, r10, r2
 581 0086 D2B2     		uxtb	r2, r2
 582 0088 0199     		ldr	r1, [sp, #4]
 583 008a 81EA0603 		eor	r3, r1, r6
 584 008e DBB2     		uxtb	r3, r3
 585 0090 89EA0303 		eor	r3, r9, r3
 586 0094 DBB2     		uxtb	r3, r3
 587 0096 5A40     		eors	r2, r2, r3
 588 0098 0999     		ldr	r1, [sp, #36]
 589 009a 069B     		ldr	r3, [sp, #24]
 590 009c 9C46     		mov	ip, r3
 591 009e 4B40     		eors	r3, r3, r1
 592 00a0 DBB2     		uxtb	r3, r3
 593 00a2 7B40     		eors	r3, r3, r7
 594 00a4 DBB2     		uxtb	r3, r3
 595 00a6 5340     		eors	r3, r3, r2
 596 00a8 84EA0002 		eor	r2, r4, r0
 597 00ac D2B2     		uxtb	r2, r2
ARM GAS  C:\Users\bkettle\AppData\Local\Temp\ccqVNvP8.s 			page 18


 598 00ae 5340     		eors	r3, r3, r2
 599 00b0 009A     		ldr	r2, [sp]
 600 00b2 02F82530 		strb	r3, [r2, r5, lsl #2]
 359:aes.c         ****     (*state)[i][1] = Multiply(a, 0x09) ^ Multiply(b, 0x0e) ^ Multiply(c, 0x0b) ^ Multiply(d, 0x0d);
 601              		.loc 1 359 0 discriminator 3
 602 00b6 8BEA0A03 		eor	r3, fp, r10
 603 00ba DBB2     		uxtb	r3, r3
 604 00bc 049A     		ldr	r2, [sp, #16]
 605 00be 5640     		eors	r6, r6, r2
 606 00c0 F6B2     		uxtb	r6, r6
 607 00c2 89EA0606 		eor	r6, r9, r6
 608 00c6 F6B2     		uxtb	r6, r6
 609 00c8 7340     		eors	r3, r3, r6
 610 00ca 0E46     		mov	r6, r1
 611 00cc 0599     		ldr	r1, [sp, #20]
 612 00ce 86EA0102 		eor	r2, r6, r1
 613 00d2 D2B2     		uxtb	r2, r2
 614 00d4 7A40     		eors	r2, r2, r7
 615 00d6 D2B2     		uxtb	r2, r2
 616 00d8 5340     		eors	r3, r3, r2
 617 00da 0899     		ldr	r1, [sp, #32]
 618 00dc 84EA0102 		eor	r2, r4, r1
 619 00e0 D2B2     		uxtb	r2, r2
 620 00e2 4240     		eors	r2, r2, r0
 621 00e4 D2B2     		uxtb	r2, r2
 622 00e6 5340     		eors	r3, r3, r2
 623 00e8 88F80130 		strb	r3, [r8, #1]
 360:aes.c         ****     (*state)[i][2] = Multiply(a, 0x0d) ^ Multiply(b, 0x09) ^ Multiply(c, 0x0e) ^ Multiply(d, 0x0b);
 624              		.loc 1 360 0 discriminator 3
 625 00ec 039A     		ldr	r2, [sp, #12]
 626 00ee 8BEA0202 		eor	r2, fp, r2
 627 00f2 D2B2     		uxtb	r2, r2
 628 00f4 8AEA0202 		eor	r2, r10, r2
 629 00f8 D2B2     		uxtb	r2, r2
 630 00fa 0199     		ldr	r1, [sp, #4]
 631 00fc 81EA0903 		eor	r3, r1, r9
 632 0100 DBB2     		uxtb	r3, r3
 633 0102 5340     		eors	r3, r3, r2
 634 0104 059A     		ldr	r2, [sp, #20]
 635 0106 9646     		mov	lr, r2
 636 0108 8EEA0C02 		eor	r2, lr, ip
 637 010c D2B2     		uxtb	r2, r2
 638 010e 7A40     		eors	r2, r2, r7
 639 0110 D2B2     		uxtb	r2, r2
 640 0112 5340     		eors	r3, r3, r2
 641 0114 079A     		ldr	r2, [sp, #28]
 642 0116 5440     		eors	r4, r4, r2
 643              	.LVL81:
 644 0118 E4B2     		uxtb	r4, r4
 645 011a 4440     		eors	r4, r4, r0
 646 011c E4B2     		uxtb	r4, r4
 647 011e 6340     		eors	r3, r3, r4
 648 0120 88F80230 		strb	r3, [r8, #2]
 361:aes.c         ****     (*state)[i][3] = Multiply(a, 0x0b) ^ Multiply(b, 0x0d) ^ Multiply(c, 0x09) ^ Multiply(d, 0x0e);
 649              		.loc 1 361 0 discriminator 3
 650 0124 029B     		ldr	r3, [sp, #8]
 651 0126 8BEA030B 		eor	fp, fp, r3
ARM GAS  C:\Users\bkettle\AppData\Local\Temp\ccqVNvP8.s 			page 19


 652              	.LVL82:
 653 012a 5FFA8BFB 		uxtb	fp, fp
 654 012e 8AEA0B0A 		eor	r10, r10, fp
 655 0132 5FFA8AFA 		uxtb	r10, r10
 656 0136 0B46     		mov	r3, r1
 657 0138 049A     		ldr	r2, [sp, #16]
 658 013a 5340     		eors	r3, r3, r2
 659 013c DBB2     		uxtb	r3, r3
 660 013e 89EA0309 		eor	r9, r9, r3
 661 0142 5FFA89F9 		uxtb	r9, r9
 662 0146 8AEA0909 		eor	r9, r10, r9
 663 014a 7740     		eors	r7, r7, r6
 664 014c FFB2     		uxtb	r7, r7
 665 014e 89EA0709 		eor	r9, r9, r7
 666 0152 079A     		ldr	r2, [sp, #28]
 667 0154 0899     		ldr	r1, [sp, #32]
 668 0156 82EA0103 		eor	r3, r2, r1
 669 015a DBB2     		uxtb	r3, r3
 670 015c 5840     		eors	r0, r0, r3
 671 015e C0B2     		uxtb	r0, r0
 672 0160 89EA0000 		eor	r0, r9, r0
 673 0164 88F80300 		strb	r0, [r8, #3]
 351:aes.c         ****   { 
 674              		.loc 1 351 0 discriminator 3
 675 0168 0135     		adds	r5, r5, #1
 676              	.LVL83:
 677              	.L31:
 351:aes.c         ****   { 
 678              		.loc 1 351 0 is_stmt 0 discriminator 1
 679 016a 032D     		cmp	r5, #3
 680 016c 7FF74EAF 		ble	.L32
 362:aes.c         ****   }
 363:aes.c         **** }
 681              		.loc 1 363 0 is_stmt 1
 682 0170 0BB0     		add	sp, sp, #44
 683              		.cfi_def_cfa_offset 36
 684              	.LVL84:
 685              		@ sp needed
 686 0172 BDE8F08F 		pop	{r4, r5, r6, r7, r8, r9, r10, fp, pc}
 687              		.cfi_endproc
 688              	.LFE9:
 689              		.size	InvMixColumns, .-InvMixColumns
 690 0176 00BF     		.section	.text.InvSubBytes,"ax",%progbits
 691              		.align	2
 692              		.thumb
 693              		.thumb_func
 694              		.type	InvSubBytes, %function
 695              	InvSubBytes:
 696              	.LFB10:
 364:aes.c         **** 
 365:aes.c         **** 
 366:aes.c         **** // The SubBytes Function Substitutes the values in the
 367:aes.c         **** // state matrix with values in an S-box.
 368:aes.c         **** static void InvSubBytes(state_t* state)
 369:aes.c         **** {
 697              		.loc 1 369 0
 698              		.cfi_startproc
ARM GAS  C:\Users\bkettle\AppData\Local\Temp\ccqVNvP8.s 			page 20


 699              		@ args = 0, pretend = 0, frame = 0
 700              		@ frame_needed = 0, uses_anonymous_args = 0
 701              		@ link register save eliminated.
 702              	.LVL85:
 703 0000 30B4     		push	{r4, r5}
 704              		.cfi_def_cfa_offset 8
 705              		.cfi_offset 4, -8
 706              		.cfi_offset 5, -4
 707              	.LVL86:
 370:aes.c         ****   uint8_t i, j;
 371:aes.c         ****   for (i = 0; i < 4; ++i)
 708              		.loc 1 371 0
 709 0002 0021     		movs	r1, #0
 710 0004 0FE0     		b	.L35
 711              	.LVL87:
 712              	.L36:
 372:aes.c         ****   {
 373:aes.c         ****     for (j = 0; j < 4; ++j)
 374:aes.c         ****     {
 375:aes.c         ****       (*state)[j][i] = getSBoxInvert((*state)[j][i]);
 713              		.loc 1 375 0 discriminator 3
 714 0006 00EB8304 		add	r4, r0, r3, lsl #2
 715 000a 625C     		ldrb	r2, [r4, r1]	@ zero_extendqisi2
 716 000c 084D     		ldr	r5, .L40
 717 000e 2A44     		add	r2, r2, r5
 718 0010 92F80C21 		ldrb	r2, [r2, #268]	@ zero_extendqisi2
 719 0014 6254     		strb	r2, [r4, r1]
 373:aes.c         ****     {
 720              		.loc 1 373 0 discriminator 3
 721 0016 0133     		adds	r3, r3, #1
 722              	.LVL88:
 723 0018 DBB2     		uxtb	r3, r3
 724              	.LVL89:
 725 001a 00E0     		b	.L37
 726              	.LVL90:
 727              	.L38:
 728 001c 0023     		movs	r3, #0
 729              	.L37:
 730              	.LVL91:
 373:aes.c         ****     {
 731              		.loc 1 373 0 is_stmt 0 discriminator 1
 732 001e 032B     		cmp	r3, #3
 733 0020 F1D9     		bls	.L36
 371:aes.c         ****   {
 734              		.loc 1 371 0 is_stmt 1 discriminator 2
 735 0022 0131     		adds	r1, r1, #1
 736              	.LVL92:
 737 0024 C9B2     		uxtb	r1, r1
 738              	.LVL93:
 739              	.L35:
 371:aes.c         ****   {
 740              		.loc 1 371 0 is_stmt 0 discriminator 1
 741 0026 0329     		cmp	r1, #3
 742 0028 F8D9     		bls	.L38
 376:aes.c         ****     }
 377:aes.c         ****   }
 378:aes.c         **** }
ARM GAS  C:\Users\bkettle\AppData\Local\Temp\ccqVNvP8.s 			page 21


 743              		.loc 1 378 0 is_stmt 1
 744 002a 30BC     		pop	{r4, r5}
 745              		.cfi_restore 5
 746              		.cfi_restore 4
 747              		.cfi_def_cfa_offset 0
 748 002c 7047     		bx	lr
 749              	.L41:
 750 002e 00BF     		.align	2
 751              	.L40:
 752 0030 00000000 		.word	.LANCHOR0
 753              		.cfi_endproc
 754              	.LFE10:
 755              		.size	InvSubBytes, .-InvSubBytes
 756              		.section	.text.InvShiftRows,"ax",%progbits
 757              		.align	2
 758              		.thumb
 759              		.thumb_func
 760              		.type	InvShiftRows, %function
 761              	InvShiftRows:
 762              	.LFB11:
 379:aes.c         **** 
 380:aes.c         **** static void InvShiftRows(state_t* state)
 381:aes.c         **** {
 763              		.loc 1 381 0
 764              		.cfi_startproc
 765              		@ args = 0, pretend = 0, frame = 0
 766              		@ frame_needed = 0, uses_anonymous_args = 0
 767              		@ link register save eliminated.
 768              	.LVL94:
 382:aes.c         ****   uint8_t temp;
 383:aes.c         **** 
 384:aes.c         ****   // Rotate first row 1 columns to right  
 385:aes.c         ****   temp = (*state)[3][1];
 769              		.loc 1 385 0
 770 0000 437B     		ldrb	r3, [r0, #13]	@ zero_extendqisi2
 771              	.LVL95:
 386:aes.c         ****   (*state)[3][1] = (*state)[2][1];
 772              		.loc 1 386 0
 773 0002 427A     		ldrb	r2, [r0, #9]	@ zero_extendqisi2
 774 0004 4273     		strb	r2, [r0, #13]
 387:aes.c         ****   (*state)[2][1] = (*state)[1][1];
 775              		.loc 1 387 0
 776 0006 4279     		ldrb	r2, [r0, #5]	@ zero_extendqisi2
 777 0008 4272     		strb	r2, [r0, #9]
 388:aes.c         ****   (*state)[1][1] = (*state)[0][1];
 778              		.loc 1 388 0
 779 000a 4278     		ldrb	r2, [r0, #1]	@ zero_extendqisi2
 780 000c 4271     		strb	r2, [r0, #5]
 389:aes.c         ****   (*state)[0][1] = temp;
 781              		.loc 1 389 0
 782 000e 4370     		strb	r3, [r0, #1]
 390:aes.c         **** 
 391:aes.c         ****   // Rotate second row 2 columns to right 
 392:aes.c         ****   temp = (*state)[0][2];
 783              		.loc 1 392 0
 784 0010 8378     		ldrb	r3, [r0, #2]	@ zero_extendqisi2
 785              	.LVL96:
ARM GAS  C:\Users\bkettle\AppData\Local\Temp\ccqVNvP8.s 			page 22


 393:aes.c         ****   (*state)[0][2] = (*state)[2][2];
 786              		.loc 1 393 0
 787 0012 827A     		ldrb	r2, [r0, #10]	@ zero_extendqisi2
 788 0014 8270     		strb	r2, [r0, #2]
 394:aes.c         ****   (*state)[2][2] = temp;
 789              		.loc 1 394 0
 790 0016 8372     		strb	r3, [r0, #10]
 395:aes.c         **** 
 396:aes.c         ****   temp = (*state)[1][2];
 791              		.loc 1 396 0
 792 0018 8379     		ldrb	r3, [r0, #6]	@ zero_extendqisi2
 793              	.LVL97:
 397:aes.c         ****   (*state)[1][2] = (*state)[3][2];
 794              		.loc 1 397 0
 795 001a 827B     		ldrb	r2, [r0, #14]	@ zero_extendqisi2
 796 001c 8271     		strb	r2, [r0, #6]
 398:aes.c         ****   (*state)[3][2] = temp;
 797              		.loc 1 398 0
 798 001e 8373     		strb	r3, [r0, #14]
 399:aes.c         **** 
 400:aes.c         ****   // Rotate third row 3 columns to right
 401:aes.c         ****   temp = (*state)[0][3];
 799              		.loc 1 401 0
 800 0020 C378     		ldrb	r3, [r0, #3]	@ zero_extendqisi2
 801              	.LVL98:
 402:aes.c         ****   (*state)[0][3] = (*state)[1][3];
 802              		.loc 1 402 0
 803 0022 C279     		ldrb	r2, [r0, #7]	@ zero_extendqisi2
 804 0024 C270     		strb	r2, [r0, #3]
 403:aes.c         ****   (*state)[1][3] = (*state)[2][3];
 805              		.loc 1 403 0
 806 0026 C27A     		ldrb	r2, [r0, #11]	@ zero_extendqisi2
 807 0028 C271     		strb	r2, [r0, #7]
 404:aes.c         ****   (*state)[2][3] = (*state)[3][3];
 808              		.loc 1 404 0
 809 002a C27B     		ldrb	r2, [r0, #15]	@ zero_extendqisi2
 810 002c C272     		strb	r2, [r0, #11]
 405:aes.c         ****   (*state)[3][3] = temp;
 811              		.loc 1 405 0
 812 002e C373     		strb	r3, [r0, #15]
 813 0030 7047     		bx	lr
 814              		.cfi_endproc
 815              	.LFE11:
 816              		.size	InvShiftRows, .-InvShiftRows
 817 0032 00BF     		.section	.text.Cipher,"ax",%progbits
 818              		.align	2
 819              		.thumb
 820              		.thumb_func
 821              		.type	Cipher, %function
 822              	Cipher:
 823              	.LFB12:
 406:aes.c         **** }
 407:aes.c         **** #endif // #if (defined(CBC) && CBC == 1) || (defined(ECB) && ECB == 1)
 408:aes.c         **** 
 409:aes.c         **** // Cipher is the main function that encrypts the PlainText.
 410:aes.c         **** static void Cipher(state_t* state, const uint8_t* RoundKey)
 411:aes.c         **** {
ARM GAS  C:\Users\bkettle\AppData\Local\Temp\ccqVNvP8.s 			page 23


 824              		.loc 1 411 0
 825              		.cfi_startproc
 826              		@ args = 0, pretend = 0, frame = 0
 827              		@ frame_needed = 0, uses_anonymous_args = 0
 828              	.LVL99:
 829 0000 70B5     		push	{r4, r5, r6, lr}
 830              		.cfi_def_cfa_offset 16
 831              		.cfi_offset 4, -16
 832              		.cfi_offset 5, -12
 833              		.cfi_offset 6, -8
 834              		.cfi_offset 14, -4
 835 0002 0546     		mov	r5, r0
 836 0004 0E46     		mov	r6, r1
 837              	.LVL100:
 412:aes.c         ****   uint8_t round = 0;
 413:aes.c         **** 
 414:aes.c         ****   // Add the First round key to the state before starting the rounds.
 415:aes.c         ****   AddRoundKey(0, state, RoundKey);
 838              		.loc 1 415 0
 839 0006 0A46     		mov	r2, r1
 840 0008 0146     		mov	r1, r0
 841              	.LVL101:
 842 000a 0020     		movs	r0, #0
 843              	.LVL102:
 844 000c FFF7FEFF 		bl	AddRoundKey
 845              	.LVL103:
 416:aes.c         **** 
 417:aes.c         ****   // There will be Nr rounds.
 418:aes.c         ****   // The first Nr-1 rounds are identical.
 419:aes.c         ****   // These Nr rounds are executed in the loop below.
 420:aes.c         ****   // Last one without MixColumns()
 421:aes.c         ****   for (round = 1; ; ++round)
 846              		.loc 1 421 0
 847 0010 0124     		movs	r4, #1
 848              	.LVL104:
 849              	.L45:
 422:aes.c         ****   {
 423:aes.c         ****     SubBytes(state);
 850              		.loc 1 423 0
 851 0012 2846     		mov	r0, r5
 852 0014 FFF7FEFF 		bl	SubBytes
 853              	.LVL105:
 424:aes.c         ****     ShiftRows(state);
 854              		.loc 1 424 0
 855 0018 2846     		mov	r0, r5
 856 001a FFF7FEFF 		bl	ShiftRows
 857              	.LVL106:
 425:aes.c         ****     if (round == Nr) {
 858              		.loc 1 425 0
 859 001e 0A2C     		cmp	r4, #10
 860 0020 0AD0     		beq	.L44
 426:aes.c         ****       break;
 427:aes.c         ****     }
 428:aes.c         ****     MixColumns(state);
 861              		.loc 1 428 0
 862 0022 2846     		mov	r0, r5
 863 0024 FFF7FEFF 		bl	MixColumns
ARM GAS  C:\Users\bkettle\AppData\Local\Temp\ccqVNvP8.s 			page 24


 864              	.LVL107:
 429:aes.c         ****     AddRoundKey(round, state, RoundKey);
 865              		.loc 1 429 0
 866 0028 3246     		mov	r2, r6
 867 002a 2946     		mov	r1, r5
 868 002c 2046     		mov	r0, r4
 869 002e FFF7FEFF 		bl	AddRoundKey
 870              	.LVL108:
 421:aes.c         ****   {
 871              		.loc 1 421 0
 872 0032 0134     		adds	r4, r4, #1
 873              	.LVL109:
 874 0034 E4B2     		uxtb	r4, r4
 875              	.LVL110:
 430:aes.c         ****   }
 876              		.loc 1 430 0
 877 0036 ECE7     		b	.L45
 878              	.L44:
 431:aes.c         ****   // Add round key to last round
 432:aes.c         ****   AddRoundKey(Nr, state, RoundKey);
 879              		.loc 1 432 0
 880 0038 3246     		mov	r2, r6
 881 003a 2946     		mov	r1, r5
 882 003c 0A20     		movs	r0, #10
 883 003e FFF7FEFF 		bl	AddRoundKey
 884              	.LVL111:
 885 0042 70BD     		pop	{r4, r5, r6, pc}
 886              		.cfi_endproc
 887              	.LFE12:
 888              		.size	Cipher, .-Cipher
 889              		.section	.text.InvCipher,"ax",%progbits
 890              		.align	2
 891              		.thumb
 892              		.thumb_func
 893              		.type	InvCipher, %function
 894              	InvCipher:
 895              	.LFB13:
 433:aes.c         **** }
 434:aes.c         **** 
 435:aes.c         **** #if (defined(CBC) && CBC == 1) || (defined(ECB) && ECB == 1)
 436:aes.c         **** static void InvCipher(state_t* state, const uint8_t* RoundKey)
 437:aes.c         **** {
 896              		.loc 1 437 0
 897              		.cfi_startproc
 898              		@ args = 0, pretend = 0, frame = 0
 899              		@ frame_needed = 0, uses_anonymous_args = 0
 900              	.LVL112:
 901 0000 70B5     		push	{r4, r5, r6, lr}
 902              		.cfi_def_cfa_offset 16
 903              		.cfi_offset 4, -16
 904              		.cfi_offset 5, -12
 905              		.cfi_offset 6, -8
 906              		.cfi_offset 14, -4
 907 0002 0546     		mov	r5, r0
 908 0004 0E46     		mov	r6, r1
 909              	.LVL113:
 438:aes.c         ****   uint8_t round = 0;
ARM GAS  C:\Users\bkettle\AppData\Local\Temp\ccqVNvP8.s 			page 25


 439:aes.c         **** 
 440:aes.c         ****   // Add the First round key to the state before starting the rounds.
 441:aes.c         ****   AddRoundKey(Nr, state, RoundKey);
 910              		.loc 1 441 0
 911 0006 0A46     		mov	r2, r1
 912 0008 0146     		mov	r1, r0
 913              	.LVL114:
 914 000a 0A20     		movs	r0, #10
 915              	.LVL115:
 916 000c FFF7FEFF 		bl	AddRoundKey
 917              	.LVL116:
 442:aes.c         **** 
 443:aes.c         ****   // There will be Nr rounds.
 444:aes.c         ****   // The first Nr-1 rounds are identical.
 445:aes.c         ****   // These Nr rounds are executed in the loop below.
 446:aes.c         ****   // Last one without InvMixColumn()
 447:aes.c         ****   for (round = (Nr - 1); ; --round)
 918              		.loc 1 447 0
 919 0010 0924     		movs	r4, #9
 920              	.LVL117:
 921              	.L49:
 448:aes.c         ****   {
 449:aes.c         ****     InvShiftRows(state);
 922              		.loc 1 449 0
 923 0012 2846     		mov	r0, r5
 924 0014 FFF7FEFF 		bl	InvShiftRows
 925              	.LVL118:
 450:aes.c         ****     InvSubBytes(state);
 926              		.loc 1 450 0
 927 0018 2846     		mov	r0, r5
 928 001a FFF7FEFF 		bl	InvSubBytes
 929              	.LVL119:
 451:aes.c         ****     AddRoundKey(round, state, RoundKey);
 930              		.loc 1 451 0
 931 001e 3246     		mov	r2, r6
 932 0020 2946     		mov	r1, r5
 933 0022 2046     		mov	r0, r4
 934 0024 FFF7FEFF 		bl	AddRoundKey
 935              	.LVL120:
 452:aes.c         ****     if (round == 0) {
 936              		.loc 1 452 0
 937 0028 2CB1     		cbz	r4, .L47
 453:aes.c         ****       break;
 454:aes.c         ****     }
 455:aes.c         ****     InvMixColumns(state);
 938              		.loc 1 455 0
 939 002a 2846     		mov	r0, r5
 940 002c FFF7FEFF 		bl	InvMixColumns
 941              	.LVL121:
 447:aes.c         ****   {
 942              		.loc 1 447 0
 943 0030 013C     		subs	r4, r4, #1
 944              	.LVL122:
 945 0032 E4B2     		uxtb	r4, r4
 946              	.LVL123:
 456:aes.c         ****   }
 947              		.loc 1 456 0
ARM GAS  C:\Users\bkettle\AppData\Local\Temp\ccqVNvP8.s 			page 26


 948 0034 EDE7     		b	.L49
 949              	.L47:
 950 0036 70BD     		pop	{r4, r5, r6, pc}
 951              		.cfi_endproc
 952              	.LFE13:
 953              		.size	InvCipher, .-InvCipher
 954              		.section	.text.XorWithIv,"ax",%progbits
 955              		.align	2
 956              		.thumb
 957              		.thumb_func
 958              		.type	XorWithIv, %function
 959              	XorWithIv:
 960              	.LFB16:
 457:aes.c         **** 
 458:aes.c         **** }
 459:aes.c         **** #endif // #if (defined(CBC) && CBC == 1) || (defined(ECB) && ECB == 1)
 460:aes.c         **** 
 461:aes.c         **** /*****************************************************************************/
 462:aes.c         **** /* Public functions:                                                         */
 463:aes.c         **** /*****************************************************************************/
 464:aes.c         **** #if defined(ECB) && (ECB == 1)
 465:aes.c         **** 
 466:aes.c         **** 
 467:aes.c         **** void AES_ECB_encrypt(const struct AES_ctx* ctx, uint8_t* buf)
 468:aes.c         **** {
 469:aes.c         ****   // The next function call encrypts the PlainText with the Key using AES algorithm.
 470:aes.c         ****   Cipher((state_t*)buf, ctx->RoundKey);
 471:aes.c         **** }
 472:aes.c         **** 
 473:aes.c         **** void AES_ECB_decrypt(const struct AES_ctx* ctx, uint8_t* buf)
 474:aes.c         **** {
 475:aes.c         ****   // The next function call decrypts the PlainText with the Key using AES algorithm.
 476:aes.c         ****   InvCipher((state_t*)buf, ctx->RoundKey);
 477:aes.c         **** }
 478:aes.c         **** 
 479:aes.c         **** 
 480:aes.c         **** #endif // #if defined(ECB) && (ECB == 1)
 481:aes.c         **** 
 482:aes.c         **** 
 483:aes.c         **** 
 484:aes.c         **** 
 485:aes.c         **** 
 486:aes.c         **** #if defined(CBC) && (CBC == 1)
 487:aes.c         **** 
 488:aes.c         **** 
 489:aes.c         **** static void XorWithIv(uint8_t* buf, const uint8_t* Iv)
 490:aes.c         **** {
 961              		.loc 1 490 0
 962              		.cfi_startproc
 963              		@ args = 0, pretend = 0, frame = 0
 964              		@ frame_needed = 0, uses_anonymous_args = 0
 965              		@ link register save eliminated.
 966              	.LVL124:
 967 0000 10B4     		push	{r4}
 968              		.cfi_def_cfa_offset 4
 969              		.cfi_offset 4, -4
 970              	.LVL125:
ARM GAS  C:\Users\bkettle\AppData\Local\Temp\ccqVNvP8.s 			page 27


 491:aes.c         ****   uint8_t i;
 492:aes.c         ****   for (i = 0; i < AES_BLOCKLEN; ++i) // The block in AES is always 128bit no matter the key size
 971              		.loc 1 492 0
 972 0002 0023     		movs	r3, #0
 973 0004 05E0     		b	.L52
 974              	.LVL126:
 975              	.L53:
 493:aes.c         ****   {
 494:aes.c         ****     buf[i] ^= Iv[i];
 976              		.loc 1 494 0 discriminator 3
 977 0006 CC5C     		ldrb	r4, [r1, r3]	@ zero_extendqisi2
 978 0008 C25C     		ldrb	r2, [r0, r3]	@ zero_extendqisi2
 979 000a 6240     		eors	r2, r2, r4
 980 000c C254     		strb	r2, [r0, r3]
 492:aes.c         ****   {
 981              		.loc 1 492 0 discriminator 3
 982 000e 0133     		adds	r3, r3, #1
 983              	.LVL127:
 984 0010 DBB2     		uxtb	r3, r3
 985              	.LVL128:
 986              	.L52:
 492:aes.c         ****   {
 987              		.loc 1 492 0 is_stmt 0 discriminator 1
 988 0012 0F2B     		cmp	r3, #15
 989 0014 F7D9     		bls	.L53
 495:aes.c         ****   }
 496:aes.c         **** }
 990              		.loc 1 496 0 is_stmt 1
 991 0016 10BC     		pop	{r4}
 992              		.cfi_restore 4
 993              		.cfi_def_cfa_offset 0
 994 0018 7047     		bx	lr
 995              		.cfi_endproc
 996              	.LFE16:
 997              		.size	XorWithIv, .-XorWithIv
 998 001a 00BF     		.section	.text.AES_init_ctx,"ax",%progbits
 999              		.align	2
 1000              		.global	AES_init_ctx
 1001              		.thumb
 1002              		.thumb_func
 1003              		.type	AES_init_ctx, %function
 1004              	AES_init_ctx:
 1005              	.LFB1:
 225:aes.c         ****   KeyExpansion(ctx->RoundKey, key);
 1006              		.loc 1 225 0
 1007              		.cfi_startproc
 1008              		@ args = 0, pretend = 0, frame = 0
 1009              		@ frame_needed = 0, uses_anonymous_args = 0
 1010              	.LVL129:
 1011 0000 08B5     		push	{r3, lr}
 1012              		.cfi_def_cfa_offset 8
 1013              		.cfi_offset 3, -8
 1014              		.cfi_offset 14, -4
 226:aes.c         **** }
 1015              		.loc 1 226 0
 1016 0002 FFF7FEFF 		bl	KeyExpansion
 1017              	.LVL130:
ARM GAS  C:\Users\bkettle\AppData\Local\Temp\ccqVNvP8.s 			page 28


 1018 0006 08BD     		pop	{r3, pc}
 1019              		.cfi_endproc
 1020              	.LFE1:
 1021              		.size	AES_init_ctx, .-AES_init_ctx
 1022              		.section	.text.AES_init_ctx_iv,"ax",%progbits
 1023              		.align	2
 1024              		.global	AES_init_ctx_iv
 1025              		.thumb
 1026              		.thumb_func
 1027              		.type	AES_init_ctx_iv, %function
 1028              	AES_init_ctx_iv:
 1029              	.LFB2:
 230:aes.c         ****   KeyExpansion(ctx->RoundKey, key);
 1030              		.loc 1 230 0
 1031              		.cfi_startproc
 1032              		@ args = 0, pretend = 0, frame = 0
 1033              		@ frame_needed = 0, uses_anonymous_args = 0
 1034              	.LVL131:
 1035 0000 70B5     		push	{r4, r5, r6, lr}
 1036              		.cfi_def_cfa_offset 16
 1037              		.cfi_offset 4, -16
 1038              		.cfi_offset 5, -12
 1039              		.cfi_offset 6, -8
 1040              		.cfi_offset 14, -4
 1041 0002 0546     		mov	r5, r0
 1042 0004 1446     		mov	r4, r2
 231:aes.c         ****   memcpy (ctx->Iv, iv, AES_BLOCKLEN);
 1043              		.loc 1 231 0
 1044 0006 FFF7FEFF 		bl	KeyExpansion
 1045              	.LVL132:
 232:aes.c         **** }
 1046              		.loc 1 232 0
 1047 000a 2668     		ldr	r6, [r4]	@ unaligned
 1048 000c 6068     		ldr	r0, [r4, #4]	@ unaligned
 1049 000e A168     		ldr	r1, [r4, #8]	@ unaligned
 1050 0010 E268     		ldr	r2, [r4, #12]	@ unaligned
 1051 0012 C5F8B060 		str	r6, [r5, #176]	@ unaligned
 1052 0016 C5F8B400 		str	r0, [r5, #180]	@ unaligned
 1053 001a C5F8B810 		str	r1, [r5, #184]	@ unaligned
 1054 001e C5F8BC20 		str	r2, [r5, #188]	@ unaligned
 1055 0022 70BD     		pop	{r4, r5, r6, pc}
 1056              		.cfi_endproc
 1057              	.LFE2:
 1058              		.size	AES_init_ctx_iv, .-AES_init_ctx_iv
 1059              		.section	.text.AES_ctx_set_iv,"ax",%progbits
 1060              		.align	2
 1061              		.global	AES_ctx_set_iv
 1062              		.thumb
 1063              		.thumb_func
 1064              		.type	AES_ctx_set_iv, %function
 1065              	AES_ctx_set_iv:
 1066              	.LFB3:
 235:aes.c         ****   memcpy (ctx->Iv, iv, AES_BLOCKLEN);
 1067              		.loc 1 235 0
 1068              		.cfi_startproc
 1069              		@ args = 0, pretend = 0, frame = 0
 1070              		@ frame_needed = 0, uses_anonymous_args = 0
ARM GAS  C:\Users\bkettle\AppData\Local\Temp\ccqVNvP8.s 			page 29


 1071              		@ link register save eliminated.
 1072              	.LVL133:
 1073 0000 70B4     		push	{r4, r5, r6}
 1074              		.cfi_def_cfa_offset 12
 1075              		.cfi_offset 4, -12
 1076              		.cfi_offset 5, -8
 1077              		.cfi_offset 6, -4
 236:aes.c         **** }
 1078              		.loc 1 236 0
 1079 0002 0E68     		ldr	r6, [r1]	@ unaligned
 1080 0004 4D68     		ldr	r5, [r1, #4]	@ unaligned
 1081 0006 8C68     		ldr	r4, [r1, #8]	@ unaligned
 1082 0008 CA68     		ldr	r2, [r1, #12]	@ unaligned
 1083 000a C0F8B060 		str	r6, [r0, #176]	@ unaligned
 1084 000e C0F8B450 		str	r5, [r0, #180]	@ unaligned
 1085 0012 C0F8B840 		str	r4, [r0, #184]	@ unaligned
 1086 0016 C0F8BC20 		str	r2, [r0, #188]	@ unaligned
 237:aes.c         **** #endif
 1087              		.loc 1 237 0
 1088 001a 70BC     		pop	{r4, r5, r6}
 1089              		.cfi_restore 6
 1090              		.cfi_restore 5
 1091              		.cfi_restore 4
 1092              		.cfi_def_cfa_offset 0
 1093 001c 7047     		bx	lr
 1094              		.cfi_endproc
 1095              	.LFE3:
 1096              		.size	AES_ctx_set_iv, .-AES_ctx_set_iv
 1097 001e 00BF     		.section	.text.AES_ECB_encrypt,"ax",%progbits
 1098              		.align	2
 1099              		.global	AES_ECB_encrypt
 1100              		.thumb
 1101              		.thumb_func
 1102              		.type	AES_ECB_encrypt, %function
 1103              	AES_ECB_encrypt:
 1104              	.LFB14:
 468:aes.c         ****   // The next function call encrypts the PlainText with the Key using AES algorithm.
 1105              		.loc 1 468 0
 1106              		.cfi_startproc
 1107              		@ args = 0, pretend = 0, frame = 0
 1108              		@ frame_needed = 0, uses_anonymous_args = 0
 1109              	.LVL134:
 1110 0000 08B5     		push	{r3, lr}
 1111              		.cfi_def_cfa_offset 8
 1112              		.cfi_offset 3, -8
 1113              		.cfi_offset 14, -4
 1114 0002 0B46     		mov	r3, r1
 470:aes.c         **** }
 1115              		.loc 1 470 0
 1116 0004 0146     		mov	r1, r0
 1117              	.LVL135:
 1118 0006 1846     		mov	r0, r3
 1119              	.LVL136:
 1120 0008 FFF7FEFF 		bl	Cipher
 1121              	.LVL137:
 1122 000c 08BD     		pop	{r3, pc}
 1123              		.cfi_endproc
ARM GAS  C:\Users\bkettle\AppData\Local\Temp\ccqVNvP8.s 			page 30


 1124              	.LFE14:
 1125              		.size	AES_ECB_encrypt, .-AES_ECB_encrypt
 1126 000e 00BF     		.section	.text.AES_ECB_decrypt,"ax",%progbits
 1127              		.align	2
 1128              		.global	AES_ECB_decrypt
 1129              		.thumb
 1130              		.thumb_func
 1131              		.type	AES_ECB_decrypt, %function
 1132              	AES_ECB_decrypt:
 1133              	.LFB15:
 474:aes.c         ****   // The next function call decrypts the PlainText with the Key using AES algorithm.
 1134              		.loc 1 474 0
 1135              		.cfi_startproc
 1136              		@ args = 0, pretend = 0, frame = 0
 1137              		@ frame_needed = 0, uses_anonymous_args = 0
 1138              	.LVL138:
 1139 0000 08B5     		push	{r3, lr}
 1140              		.cfi_def_cfa_offset 8
 1141              		.cfi_offset 3, -8
 1142              		.cfi_offset 14, -4
 1143 0002 0B46     		mov	r3, r1
 476:aes.c         **** }
 1144              		.loc 1 476 0
 1145 0004 0146     		mov	r1, r0
 1146              	.LVL139:
 1147 0006 1846     		mov	r0, r3
 1148              	.LVL140:
 1149 0008 FFF7FEFF 		bl	InvCipher
 1150              	.LVL141:
 1151 000c 08BD     		pop	{r3, pc}
 1152              		.cfi_endproc
 1153              	.LFE15:
 1154              		.size	AES_ECB_decrypt, .-AES_ECB_decrypt
 1155 000e 00BF     		.section	.text.AES_CBC_encrypt_buffer,"ax",%progbits
 1156              		.align	2
 1157              		.global	AES_CBC_encrypt_buffer
 1158              		.thumb
 1159              		.thumb_func
 1160              		.type	AES_CBC_encrypt_buffer, %function
 1161              	AES_CBC_encrypt_buffer:
 1162              	.LFB17:
 497:aes.c         **** 
 498:aes.c         **** void AES_CBC_encrypt_buffer(struct AES_ctx *ctx, uint8_t* buf, uint32_t length)
 499:aes.c         **** {
 1163              		.loc 1 499 0
 1164              		.cfi_startproc
 1165              		@ args = 0, pretend = 0, frame = 0
 1166              		@ frame_needed = 0, uses_anonymous_args = 0
 1167              	.LVL142:
 1168 0000 2DE9F041 		push	{r4, r5, r6, r7, r8, lr}
 1169              		.cfi_def_cfa_offset 24
 1170              		.cfi_offset 4, -24
 1171              		.cfi_offset 5, -20
 1172              		.cfi_offset 6, -16
 1173              		.cfi_offset 7, -12
 1174              		.cfi_offset 8, -8
 1175              		.cfi_offset 14, -4
ARM GAS  C:\Users\bkettle\AppData\Local\Temp\ccqVNvP8.s 			page 31


 1176 0004 0646     		mov	r6, r0
 1177 0006 0C46     		mov	r4, r1
 1178 0008 1746     		mov	r7, r2
 500:aes.c         ****   uintptr_t i;
 501:aes.c         ****   uint8_t *Iv = ctx->Iv;
 1179              		.loc 1 501 0
 1180 000a 00F1B008 		add	r8, r0, #176
 1181              	.LVL143:
 1182 000e 4146     		mov	r1, r8
 1183              	.LVL144:
 502:aes.c         ****   for (i = 0; i < length; i += AES_BLOCKLEN)
 1184              		.loc 1 502 0
 1185 0010 0025     		movs	r5, #0
 1186 0012 09E0     		b	.L66
 1187              	.LVL145:
 1188              	.L67:
 503:aes.c         ****   {
 504:aes.c         ****     XorWithIv(buf, Iv);
 1189              		.loc 1 504 0 discriminator 3
 1190 0014 2046     		mov	r0, r4
 1191 0016 FFF7FEFF 		bl	XorWithIv
 1192              	.LVL146:
 505:aes.c         ****     Cipher((state_t*)buf, ctx->RoundKey);
 1193              		.loc 1 505 0 discriminator 3
 1194 001a 3146     		mov	r1, r6
 1195 001c 2046     		mov	r0, r4
 1196 001e FFF7FEFF 		bl	Cipher
 1197              	.LVL147:
 502:aes.c         ****   for (i = 0; i < length; i += AES_BLOCKLEN)
 1198              		.loc 1 502 0 discriminator 3
 1199 0022 1035     		adds	r5, r5, #16
 1200              	.LVL148:
 506:aes.c         ****     Iv = buf;
 1201              		.loc 1 506 0 discriminator 3
 1202 0024 2146     		mov	r1, r4
 507:aes.c         ****     buf += AES_BLOCKLEN;
 1203              		.loc 1 507 0 discriminator 3
 1204 0026 1034     		adds	r4, r4, #16
 1205              	.LVL149:
 1206              	.L66:
 502:aes.c         ****   {
 1207              		.loc 1 502 0 discriminator 1
 1208 0028 BD42     		cmp	r5, r7
 1209 002a F3D3     		bcc	.L67
 508:aes.c         ****   }
 509:aes.c         ****   /* store Iv in ctx for next call */
 510:aes.c         ****   memcpy(ctx->Iv, Iv, AES_BLOCKLEN);
 1210              		.loc 1 510 0
 1211 002c 0C68     		ldr	r4, [r1]	@ unaligned
 1212              	.LVL150:
 1213 002e 4868     		ldr	r0, [r1, #4]	@ unaligned
 1214 0030 8A68     		ldr	r2, [r1, #8]	@ unaligned
 1215 0032 CB68     		ldr	r3, [r1, #12]	@ unaligned
 1216 0034 C6F8B040 		str	r4, [r6, #176]	@ unaligned
 1217 0038 C8F80400 		str	r0, [r8, #4]	@ unaligned
 1218 003c C8F80820 		str	r2, [r8, #8]	@ unaligned
 1219 0040 C8F80C30 		str	r3, [r8, #12]	@ unaligned
ARM GAS  C:\Users\bkettle\AppData\Local\Temp\ccqVNvP8.s 			page 32


 1220 0044 BDE8F081 		pop	{r4, r5, r6, r7, r8, pc}
 1221              		.cfi_endproc
 1222              	.LFE17:
 1223              		.size	AES_CBC_encrypt_buffer, .-AES_CBC_encrypt_buffer
 1224              		.section	.text.AES_CBC_decrypt_buffer,"ax",%progbits
 1225              		.align	2
 1226              		.global	AES_CBC_decrypt_buffer
 1227              		.thumb
 1228              		.thumb_func
 1229              		.type	AES_CBC_decrypt_buffer, %function
 1230              	AES_CBC_decrypt_buffer:
 1231              	.LFB18:
 511:aes.c         **** }
 512:aes.c         **** 
 513:aes.c         **** void AES_CBC_decrypt_buffer(struct AES_ctx* ctx, uint8_t* buf,  uint32_t length)
 514:aes.c         **** {
 1232              		.loc 1 514 0
 1233              		.cfi_startproc
 1234              		@ args = 0, pretend = 0, frame = 16
 1235              		@ frame_needed = 0, uses_anonymous_args = 0
 1236              	.LVL151:
 1237 0000 2DE9F043 		push	{r4, r5, r6, r7, r8, r9, lr}
 1238              		.cfi_def_cfa_offset 28
 1239              		.cfi_offset 4, -28
 1240              		.cfi_offset 5, -24
 1241              		.cfi_offset 6, -20
 1242              		.cfi_offset 7, -16
 1243              		.cfi_offset 8, -12
 1244              		.cfi_offset 9, -8
 1245              		.cfi_offset 14, -4
 1246 0004 85B0     		sub	sp, sp, #20
 1247              		.cfi_def_cfa_offset 48
 1248 0006 8046     		mov	r8, r0
 1249 0008 0C46     		mov	r4, r1
 1250 000a 9146     		mov	r9, r2
 1251              	.LVL152:
 515:aes.c         ****   uintptr_t i;
 516:aes.c         ****   uint8_t storeNextIv[AES_BLOCKLEN];
 517:aes.c         ****   for (i = 0; i < length; i += AES_BLOCKLEN)
 1252              		.loc 1 517 0
 1253 000c 0027     		movs	r7, #0
 1254 000e 1BE0     		b	.L70
 1255              	.LVL153:
 1256              	.L71:
 518:aes.c         ****   {
 519:aes.c         ****     memcpy(storeNextIv, buf, AES_BLOCKLEN);
 1257              		.loc 1 519 0 discriminator 3
 1258 0010 6D46     		mov	r5, sp
 1259 0012 2068     		ldr	r0, [r4]	@ unaligned
 1260 0014 6168     		ldr	r1, [r4, #4]	@ unaligned
 1261 0016 A268     		ldr	r2, [r4, #8]	@ unaligned
 1262 0018 E368     		ldr	r3, [r4, #12]	@ unaligned
 1263 001a 0FC5     		stmia	r5!, {r0, r1, r2, r3}
 520:aes.c         ****     InvCipher((state_t*)buf, ctx->RoundKey);
 1264              		.loc 1 520 0 discriminator 3
 1265 001c 4146     		mov	r1, r8
 1266 001e 2046     		mov	r0, r4
ARM GAS  C:\Users\bkettle\AppData\Local\Temp\ccqVNvP8.s 			page 33


 1267 0020 FFF7FEFF 		bl	InvCipher
 1268              	.LVL154:
 521:aes.c         ****     XorWithIv(buf, ctx->Iv);
 1269              		.loc 1 521 0 discriminator 3
 1270 0024 08F1B006 		add	r6, r8, #176
 1271 0028 3146     		mov	r1, r6
 1272 002a 2046     		mov	r0, r4
 1273 002c FFF7FEFF 		bl	XorWithIv
 1274              	.LVL155:
 522:aes.c         ****     memcpy(ctx->Iv, storeNextIv, AES_BLOCKLEN);
 1275              		.loc 1 522 0 discriminator 3
 1276 0030 6D46     		mov	r5, sp
 1277 0032 0FCD     		ldmia	r5!, {r0, r1, r2, r3}
 1278 0034 C8F8B000 		str	r0, [r8, #176]	@ unaligned
 1279 0038 C8F8B410 		str	r1, [r8, #180]	@ unaligned
 1280 003c C8F8B820 		str	r2, [r8, #184]	@ unaligned
 1281 0040 C8F8BC30 		str	r3, [r8, #188]	@ unaligned
 523:aes.c         ****     buf += AES_BLOCKLEN;
 1282              		.loc 1 523 0 discriminator 3
 1283 0044 1034     		adds	r4, r4, #16
 1284              	.LVL156:
 517:aes.c         ****   {
 1285              		.loc 1 517 0 discriminator 3
 1286 0046 1037     		adds	r7, r7, #16
 1287              	.LVL157:
 1288              	.L70:
 517:aes.c         ****   {
 1289              		.loc 1 517 0 is_stmt 0 discriminator 1
 1290 0048 4F45     		cmp	r7, r9
 1291 004a E1D3     		bcc	.L71
 524:aes.c         ****   }
 525:aes.c         **** 
 526:aes.c         **** }
 1292              		.loc 1 526 0 is_stmt 1
 1293 004c 05B0     		add	sp, sp, #20
 1294              		.cfi_def_cfa_offset 28
 1295              		@ sp needed
 1296 004e BDE8F083 		pop	{r4, r5, r6, r7, r8, r9, pc}
 1297              		.cfi_endproc
 1298              	.LFE18:
 1299              		.size	AES_CBC_decrypt_buffer, .-AES_CBC_decrypt_buffer
 1300 0052 00BF     		.section	.text.AES_CTR_xcrypt_buffer,"ax",%progbits
 1301              		.align	2
 1302              		.global	AES_CTR_xcrypt_buffer
 1303              		.thumb
 1304              		.thumb_func
 1305              		.type	AES_CTR_xcrypt_buffer, %function
 1306              	AES_CTR_xcrypt_buffer:
 1307              	.LFB19:
 527:aes.c         **** 
 528:aes.c         **** #endif // #if defined(CBC) && (CBC == 1)
 529:aes.c         **** 
 530:aes.c         **** 
 531:aes.c         **** 
 532:aes.c         **** #if defined(CTR) && (CTR == 1)
 533:aes.c         **** 
 534:aes.c         **** /* Symmetrical operation: same function for encrypting as for decrypting. Note any IV/nonce should 
ARM GAS  C:\Users\bkettle\AppData\Local\Temp\ccqVNvP8.s 			page 34


 535:aes.c         **** void AES_CTR_xcrypt_buffer(struct AES_ctx* ctx, uint8_t* buf, uint32_t length)
 536:aes.c         **** {
 1308              		.loc 1 536 0
 1309              		.cfi_startproc
 1310              		@ args = 0, pretend = 0, frame = 16
 1311              		@ frame_needed = 0, uses_anonymous_args = 0
 1312              	.LVL158:
 1313 0000 F0B5     		push	{r4, r5, r6, r7, lr}
 1314              		.cfi_def_cfa_offset 20
 1315              		.cfi_offset 4, -20
 1316              		.cfi_offset 5, -16
 1317              		.cfi_offset 6, -12
 1318              		.cfi_offset 7, -8
 1319              		.cfi_offset 14, -4
 1320 0002 85B0     		sub	sp, sp, #20
 1321              		.cfi_def_cfa_offset 40
 1322 0004 0746     		mov	r7, r0
 1323 0006 0D46     		mov	r5, r1
 1324 0008 1646     		mov	r6, r2
 1325              	.LVL159:
 537:aes.c         ****   uint8_t buffer[AES_BLOCKLEN];
 538:aes.c         ****   
 539:aes.c         ****   unsigned i;
 540:aes.c         ****   int bi;
 541:aes.c         ****   for (i = 0, bi = AES_BLOCKLEN; i < length; ++i, ++bi)
 1326              		.loc 1 541 0
 1327 000a 1023     		movs	r3, #16
 1328 000c 0024     		movs	r4, #0
 1329 000e 2DE0     		b	.L74
 1330              	.LVL160:
 1331              	.L79:
 542:aes.c         ****   {
 543:aes.c         ****     if (bi == AES_BLOCKLEN) /* we need to regen xor compliment in buffer */
 1332              		.loc 1 543 0
 1333 0010 102B     		cmp	r3, #16
 1334 0012 22D1     		bne	.L75
 544:aes.c         ****     {
 545:aes.c         ****       
 546:aes.c         ****       memcpy(buffer, ctx->Iv, AES_BLOCKLEN);
 1335              		.loc 1 546 0
 1336 0014 EE46     		mov	lr, sp
 1337 0016 3B46     		mov	r3, r7
 1338              	.LVL161:
 1339 0018 53F8B00F 		ldr	r0, [r3, #176]!	@ unaligned
 1340 001c 5968     		ldr	r1, [r3, #4]	@ unaligned
 1341 001e 9A68     		ldr	r2, [r3, #8]	@ unaligned
 1342 0020 DB68     		ldr	r3, [r3, #12]	@ unaligned
 1343 0022 AEE80F00 		stmia	lr!, {r0, r1, r2, r3}
 547:aes.c         ****       Cipher((state_t*)buffer,ctx->RoundKey);
 1344              		.loc 1 547 0
 1345 0026 3946     		mov	r1, r7
 1346 0028 6846     		mov	r0, sp
 1347 002a FFF7FEFF 		bl	Cipher
 1348              	.LVL162:
 548:aes.c         **** 
 549:aes.c         ****       /* Increment Iv and handle overflow */
 550:aes.c         ****       for (bi = (AES_BLOCKLEN - 1); bi >= 0; --bi)
ARM GAS  C:\Users\bkettle\AppData\Local\Temp\ccqVNvP8.s 			page 35


 1349              		.loc 1 550 0
 1350 002e 0F23     		movs	r3, #15
 1351 0030 10E0     		b	.L76
 1352              	.LVL163:
 1353              	.L78:
 551:aes.c         ****       {
 552:aes.c         **** 	/* inc will overflow */
 553:aes.c         ****         if (ctx->Iv[bi] == 255)
 1354              		.loc 1 553 0
 1355 0032 FA18     		adds	r2, r7, r3
 1356 0034 92F8B020 		ldrb	r2, [r2, #176]	@ zero_extendqisi2
 1357 0038 FF2A     		cmp	r2, #255
 1358 003a 05D1     		bne	.L77
 554:aes.c         **** 	{
 555:aes.c         ****           ctx->Iv[bi] = 0;
 1359              		.loc 1 555 0
 1360 003c FA18     		adds	r2, r7, r3
 1361 003e 0021     		movs	r1, #0
 1362 0040 82F8B010 		strb	r1, [r2, #176]
 550:aes.c         ****       {
 1363              		.loc 1 550 0
 1364 0044 013B     		subs	r3, r3, #1
 1365              	.LVL164:
 1366 0046 05E0     		b	.L76
 1367              	.L77:
 556:aes.c         ****           continue;
 557:aes.c         ****         } 
 558:aes.c         ****         ctx->Iv[bi] += 1;
 1368              		.loc 1 558 0
 1369 0048 3B44     		add	r3, r3, r7
 1370              	.LVL165:
 1371 004a 0132     		adds	r2, r2, #1
 1372 004c 83F8B020 		strb	r2, [r3, #176]
 559:aes.c         ****         break;   
 560:aes.c         ****       }
 561:aes.c         ****       bi = 0;
 1373              		.loc 1 561 0
 1374 0050 0023     		movs	r3, #0
 559:aes.c         ****         break;   
 1375              		.loc 1 559 0
 1376 0052 02E0     		b	.L75
 1377              	.L76:
 1378              	.LVL166:
 550:aes.c         ****       {
 1379              		.loc 1 550 0 discriminator 1
 1380 0054 002B     		cmp	r3, #0
 1381 0056 ECDA     		bge	.L78
 1382              		.loc 1 561 0
 1383 0058 0023     		movs	r3, #0
 1384              	.LVL167:
 1385              	.L75:
 562:aes.c         ****     }
 563:aes.c         **** 
 564:aes.c         ****     buf[i] = (buf[i] ^ buffer[bi]);
 1386              		.loc 1 564 0 discriminator 2
 1387 005a 295D     		ldrb	r1, [r5, r4]	@ zero_extendqisi2
 1388 005c 04AA     		add	r2, sp, #16
ARM GAS  C:\Users\bkettle\AppData\Local\Temp\ccqVNvP8.s 			page 36


 1389 005e 1A44     		add	r2, r2, r3
 1390 0060 12F8102C 		ldrb	r2, [r2, #-16]	@ zero_extendqisi2
 1391 0064 4A40     		eors	r2, r2, r1
 1392 0066 2A55     		strb	r2, [r5, r4]
 541:aes.c         ****   {
 1393              		.loc 1 541 0 discriminator 2
 1394 0068 0134     		adds	r4, r4, #1
 1395              	.LVL168:
 1396 006a 0133     		adds	r3, r3, #1
 1397              	.LVL169:
 1398              	.L74:
 541:aes.c         ****   {
 1399              		.loc 1 541 0 is_stmt 0 discriminator 1
 1400 006c B442     		cmp	r4, r6
 1401 006e CFD3     		bcc	.L79
 565:aes.c         ****   }
 566:aes.c         **** }
 1402              		.loc 1 566 0 is_stmt 1
 1403 0070 05B0     		add	sp, sp, #20
 1404              		.cfi_def_cfa_offset 20
 1405              		@ sp needed
 1406 0072 F0BD     		pop	{r4, r5, r6, r7, pc}
 1407              		.cfi_endproc
 1408              	.LFE19:
 1409              		.size	AES_CTR_xcrypt_buffer, .-AES_CTR_xcrypt_buffer
 1410              		.section	.rodata
 1411              		.align	2
 1412              		.set	.LANCHOR0,. + 0
 1413              		.type	sbox, %object
 1414              		.size	sbox, 256
 1415              	sbox:
 1416 0000 63       		.byte	99
 1417 0001 7C       		.byte	124
 1418 0002 77       		.byte	119
 1419 0003 7B       		.byte	123
 1420 0004 F2       		.byte	-14
 1421 0005 6B       		.byte	107
 1422 0006 6F       		.byte	111
 1423 0007 C5       		.byte	-59
 1424 0008 30       		.byte	48
 1425 0009 01       		.byte	1
 1426 000a 67       		.byte	103
 1427 000b 2B       		.byte	43
 1428 000c FE       		.byte	-2
 1429 000d D7       		.byte	-41
 1430 000e AB       		.byte	-85
 1431 000f 76       		.byte	118
 1432 0010 CA       		.byte	-54
 1433 0011 82       		.byte	-126
 1434 0012 C9       		.byte	-55
 1435 0013 7D       		.byte	125
 1436 0014 FA       		.byte	-6
 1437 0015 59       		.byte	89
 1438 0016 47       		.byte	71
 1439 0017 F0       		.byte	-16
 1440 0018 AD       		.byte	-83
 1441 0019 D4       		.byte	-44
ARM GAS  C:\Users\bkettle\AppData\Local\Temp\ccqVNvP8.s 			page 37


 1442 001a A2       		.byte	-94
 1443 001b AF       		.byte	-81
 1444 001c 9C       		.byte	-100
 1445 001d A4       		.byte	-92
 1446 001e 72       		.byte	114
 1447 001f C0       		.byte	-64
 1448 0020 B7       		.byte	-73
 1449 0021 FD       		.byte	-3
 1450 0022 93       		.byte	-109
 1451 0023 26       		.byte	38
 1452 0024 36       		.byte	54
 1453 0025 3F       		.byte	63
 1454 0026 F7       		.byte	-9
 1455 0027 CC       		.byte	-52
 1456 0028 34       		.byte	52
 1457 0029 A5       		.byte	-91
 1458 002a E5       		.byte	-27
 1459 002b F1       		.byte	-15
 1460 002c 71       		.byte	113
 1461 002d D8       		.byte	-40
 1462 002e 31       		.byte	49
 1463 002f 15       		.byte	21
 1464 0030 04       		.byte	4
 1465 0031 C7       		.byte	-57
 1466 0032 23       		.byte	35
 1467 0033 C3       		.byte	-61
 1468 0034 18       		.byte	24
 1469 0035 96       		.byte	-106
 1470 0036 05       		.byte	5
 1471 0037 9A       		.byte	-102
 1472 0038 07       		.byte	7
 1473 0039 12       		.byte	18
 1474 003a 80       		.byte	-128
 1475 003b E2       		.byte	-30
 1476 003c EB       		.byte	-21
 1477 003d 27       		.byte	39
 1478 003e B2       		.byte	-78
 1479 003f 75       		.byte	117
 1480 0040 09       		.byte	9
 1481 0041 83       		.byte	-125
 1482 0042 2C       		.byte	44
 1483 0043 1A       		.byte	26
 1484 0044 1B       		.byte	27
 1485 0045 6E       		.byte	110
 1486 0046 5A       		.byte	90
 1487 0047 A0       		.byte	-96
 1488 0048 52       		.byte	82
 1489 0049 3B       		.byte	59
 1490 004a D6       		.byte	-42
 1491 004b B3       		.byte	-77
 1492 004c 29       		.byte	41
 1493 004d E3       		.byte	-29
 1494 004e 2F       		.byte	47
 1495 004f 84       		.byte	-124
 1496 0050 53       		.byte	83
 1497 0051 D1       		.byte	-47
 1498 0052 00       		.byte	0
ARM GAS  C:\Users\bkettle\AppData\Local\Temp\ccqVNvP8.s 			page 38


 1499 0053 ED       		.byte	-19
 1500 0054 20       		.byte	32
 1501 0055 FC       		.byte	-4
 1502 0056 B1       		.byte	-79
 1503 0057 5B       		.byte	91
 1504 0058 6A       		.byte	106
 1505 0059 CB       		.byte	-53
 1506 005a BE       		.byte	-66
 1507 005b 39       		.byte	57
 1508 005c 4A       		.byte	74
 1509 005d 4C       		.byte	76
 1510 005e 58       		.byte	88
 1511 005f CF       		.byte	-49
 1512 0060 D0       		.byte	-48
 1513 0061 EF       		.byte	-17
 1514 0062 AA       		.byte	-86
 1515 0063 FB       		.byte	-5
 1516 0064 43       		.byte	67
 1517 0065 4D       		.byte	77
 1518 0066 33       		.byte	51
 1519 0067 85       		.byte	-123
 1520 0068 45       		.byte	69
 1521 0069 F9       		.byte	-7
 1522 006a 02       		.byte	2
 1523 006b 7F       		.byte	127
 1524 006c 50       		.byte	80
 1525 006d 3C       		.byte	60
 1526 006e 9F       		.byte	-97
 1527 006f A8       		.byte	-88
 1528 0070 51       		.byte	81
 1529 0071 A3       		.byte	-93
 1530 0072 40       		.byte	64
 1531 0073 8F       		.byte	-113
 1532 0074 92       		.byte	-110
 1533 0075 9D       		.byte	-99
 1534 0076 38       		.byte	56
 1535 0077 F5       		.byte	-11
 1536 0078 BC       		.byte	-68
 1537 0079 B6       		.byte	-74
 1538 007a DA       		.byte	-38
 1539 007b 21       		.byte	33
 1540 007c 10       		.byte	16
 1541 007d FF       		.byte	-1
 1542 007e F3       		.byte	-13
 1543 007f D2       		.byte	-46
 1544 0080 CD       		.byte	-51
 1545 0081 0C       		.byte	12
 1546 0082 13       		.byte	19
 1547 0083 EC       		.byte	-20
 1548 0084 5F       		.byte	95
 1549 0085 97       		.byte	-105
 1550 0086 44       		.byte	68
 1551 0087 17       		.byte	23
 1552 0088 C4       		.byte	-60
 1553 0089 A7       		.byte	-89
 1554 008a 7E       		.byte	126
 1555 008b 3D       		.byte	61
ARM GAS  C:\Users\bkettle\AppData\Local\Temp\ccqVNvP8.s 			page 39


 1556 008c 64       		.byte	100
 1557 008d 5D       		.byte	93
 1558 008e 19       		.byte	25
 1559 008f 73       		.byte	115
 1560 0090 60       		.byte	96
 1561 0091 81       		.byte	-127
 1562 0092 4F       		.byte	79
 1563 0093 DC       		.byte	-36
 1564 0094 22       		.byte	34
 1565 0095 2A       		.byte	42
 1566 0096 90       		.byte	-112
 1567 0097 88       		.byte	-120
 1568 0098 46       		.byte	70
 1569 0099 EE       		.byte	-18
 1570 009a B8       		.byte	-72
 1571 009b 14       		.byte	20
 1572 009c DE       		.byte	-34
 1573 009d 5E       		.byte	94
 1574 009e 0B       		.byte	11
 1575 009f DB       		.byte	-37
 1576 00a0 E0       		.byte	-32
 1577 00a1 32       		.byte	50
 1578 00a2 3A       		.byte	58
 1579 00a3 0A       		.byte	10
 1580 00a4 49       		.byte	73
 1581 00a5 06       		.byte	6
 1582 00a6 24       		.byte	36
 1583 00a7 5C       		.byte	92
 1584 00a8 C2       		.byte	-62
 1585 00a9 D3       		.byte	-45
 1586 00aa AC       		.byte	-84
 1587 00ab 62       		.byte	98
 1588 00ac 91       		.byte	-111
 1589 00ad 95       		.byte	-107
 1590 00ae E4       		.byte	-28
 1591 00af 79       		.byte	121
 1592 00b0 E7       		.byte	-25
 1593 00b1 C8       		.byte	-56
 1594 00b2 37       		.byte	55
 1595 00b3 6D       		.byte	109
 1596 00b4 8D       		.byte	-115
 1597 00b5 D5       		.byte	-43
 1598 00b6 4E       		.byte	78
 1599 00b7 A9       		.byte	-87
 1600 00b8 6C       		.byte	108
 1601 00b9 56       		.byte	86
 1602 00ba F4       		.byte	-12
 1603 00bb EA       		.byte	-22
 1604 00bc 65       		.byte	101
 1605 00bd 7A       		.byte	122
 1606 00be AE       		.byte	-82
 1607 00bf 08       		.byte	8
 1608 00c0 BA       		.byte	-70
 1609 00c1 78       		.byte	120
 1610 00c2 25       		.byte	37
 1611 00c3 2E       		.byte	46
 1612 00c4 1C       		.byte	28
ARM GAS  C:\Users\bkettle\AppData\Local\Temp\ccqVNvP8.s 			page 40


 1613 00c5 A6       		.byte	-90
 1614 00c6 B4       		.byte	-76
 1615 00c7 C6       		.byte	-58
 1616 00c8 E8       		.byte	-24
 1617 00c9 DD       		.byte	-35
 1618 00ca 74       		.byte	116
 1619 00cb 1F       		.byte	31
 1620 00cc 4B       		.byte	75
 1621 00cd BD       		.byte	-67
 1622 00ce 8B       		.byte	-117
 1623 00cf 8A       		.byte	-118
 1624 00d0 70       		.byte	112
 1625 00d1 3E       		.byte	62
 1626 00d2 B5       		.byte	-75
 1627 00d3 66       		.byte	102
 1628 00d4 48       		.byte	72
 1629 00d5 03       		.byte	3
 1630 00d6 F6       		.byte	-10
 1631 00d7 0E       		.byte	14
 1632 00d8 61       		.byte	97
 1633 00d9 35       		.byte	53
 1634 00da 57       		.byte	87
 1635 00db B9       		.byte	-71
 1636 00dc 86       		.byte	-122
 1637 00dd C1       		.byte	-63
 1638 00de 1D       		.byte	29
 1639 00df 9E       		.byte	-98
 1640 00e0 E1       		.byte	-31
 1641 00e1 F8       		.byte	-8
 1642 00e2 98       		.byte	-104
 1643 00e3 11       		.byte	17
 1644 00e4 69       		.byte	105
 1645 00e5 D9       		.byte	-39
 1646 00e6 8E       		.byte	-114
 1647 00e7 94       		.byte	-108
 1648 00e8 9B       		.byte	-101
 1649 00e9 1E       		.byte	30
 1650 00ea 87       		.byte	-121
 1651 00eb E9       		.byte	-23
 1652 00ec CE       		.byte	-50
 1653 00ed 55       		.byte	85
 1654 00ee 28       		.byte	40
 1655 00ef DF       		.byte	-33
 1656 00f0 8C       		.byte	-116
 1657 00f1 A1       		.byte	-95
 1658 00f2 89       		.byte	-119
 1659 00f3 0D       		.byte	13
 1660 00f4 BF       		.byte	-65
 1661 00f5 E6       		.byte	-26
 1662 00f6 42       		.byte	66
 1663 00f7 68       		.byte	104
 1664 00f8 41       		.byte	65
 1665 00f9 99       		.byte	-103
 1666 00fa 2D       		.byte	45
 1667 00fb 0F       		.byte	15
 1668 00fc B0       		.byte	-80
 1669 00fd 54       		.byte	84
ARM GAS  C:\Users\bkettle\AppData\Local\Temp\ccqVNvP8.s 			page 41


 1670 00fe BB       		.byte	-69
 1671 00ff 16       		.byte	22
 1672              		.type	Rcon, %object
 1673              		.size	Rcon, 11
 1674              	Rcon:
 1675 0100 8D       		.byte	-115
 1676 0101 01       		.byte	1
 1677 0102 02       		.byte	2
 1678 0103 04       		.byte	4
 1679 0104 08       		.byte	8
 1680 0105 10       		.byte	16
 1681 0106 20       		.byte	32
 1682 0107 40       		.byte	64
 1683 0108 80       		.byte	-128
 1684 0109 1B       		.byte	27
 1685 010a 36       		.byte	54
 1686 010b 00       		.space	1
 1687              		.type	rsbox, %object
 1688              		.size	rsbox, 256
 1689              	rsbox:
 1690 010c 52       		.byte	82
 1691 010d 09       		.byte	9
 1692 010e 6A       		.byte	106
 1693 010f D5       		.byte	-43
 1694 0110 30       		.byte	48
 1695 0111 36       		.byte	54
 1696 0112 A5       		.byte	-91
 1697 0113 38       		.byte	56
 1698 0114 BF       		.byte	-65
 1699 0115 40       		.byte	64
 1700 0116 A3       		.byte	-93
 1701 0117 9E       		.byte	-98
 1702 0118 81       		.byte	-127
 1703 0119 F3       		.byte	-13
 1704 011a D7       		.byte	-41
 1705 011b FB       		.byte	-5
 1706 011c 7C       		.byte	124
 1707 011d E3       		.byte	-29
 1708 011e 39       		.byte	57
 1709 011f 82       		.byte	-126
 1710 0120 9B       		.byte	-101
 1711 0121 2F       		.byte	47
 1712 0122 FF       		.byte	-1
 1713 0123 87       		.byte	-121
 1714 0124 34       		.byte	52
 1715 0125 8E       		.byte	-114
 1716 0126 43       		.byte	67
 1717 0127 44       		.byte	68
 1718 0128 C4       		.byte	-60
 1719 0129 DE       		.byte	-34
 1720 012a E9       		.byte	-23
 1721 012b CB       		.byte	-53
 1722 012c 54       		.byte	84
 1723 012d 7B       		.byte	123
 1724 012e 94       		.byte	-108
 1725 012f 32       		.byte	50
 1726 0130 A6       		.byte	-90
ARM GAS  C:\Users\bkettle\AppData\Local\Temp\ccqVNvP8.s 			page 42


 1727 0131 C2       		.byte	-62
 1728 0132 23       		.byte	35
 1729 0133 3D       		.byte	61
 1730 0134 EE       		.byte	-18
 1731 0135 4C       		.byte	76
 1732 0136 95       		.byte	-107
 1733 0137 0B       		.byte	11
 1734 0138 42       		.byte	66
 1735 0139 FA       		.byte	-6
 1736 013a C3       		.byte	-61
 1737 013b 4E       		.byte	78
 1738 013c 08       		.byte	8
 1739 013d 2E       		.byte	46
 1740 013e A1       		.byte	-95
 1741 013f 66       		.byte	102
 1742 0140 28       		.byte	40
 1743 0141 D9       		.byte	-39
 1744 0142 24       		.byte	36
 1745 0143 B2       		.byte	-78
 1746 0144 76       		.byte	118
 1747 0145 5B       		.byte	91
 1748 0146 A2       		.byte	-94
 1749 0147 49       		.byte	73
 1750 0148 6D       		.byte	109
 1751 0149 8B       		.byte	-117
 1752 014a D1       		.byte	-47
 1753 014b 25       		.byte	37
 1754 014c 72       		.byte	114
 1755 014d F8       		.byte	-8
 1756 014e F6       		.byte	-10
 1757 014f 64       		.byte	100
 1758 0150 86       		.byte	-122
 1759 0151 68       		.byte	104
 1760 0152 98       		.byte	-104
 1761 0153 16       		.byte	22
 1762 0154 D4       		.byte	-44
 1763 0155 A4       		.byte	-92
 1764 0156 5C       		.byte	92
 1765 0157 CC       		.byte	-52
 1766 0158 5D       		.byte	93
 1767 0159 65       		.byte	101
 1768 015a B6       		.byte	-74
 1769 015b 92       		.byte	-110
 1770 015c 6C       		.byte	108
 1771 015d 70       		.byte	112
 1772 015e 48       		.byte	72
 1773 015f 50       		.byte	80
 1774 0160 FD       		.byte	-3
 1775 0161 ED       		.byte	-19
 1776 0162 B9       		.byte	-71
 1777 0163 DA       		.byte	-38
 1778 0164 5E       		.byte	94
 1779 0165 15       		.byte	21
 1780 0166 46       		.byte	70
 1781 0167 57       		.byte	87
 1782 0168 A7       		.byte	-89
 1783 0169 8D       		.byte	-115
ARM GAS  C:\Users\bkettle\AppData\Local\Temp\ccqVNvP8.s 			page 43


 1784 016a 9D       		.byte	-99
 1785 016b 84       		.byte	-124
 1786 016c 90       		.byte	-112
 1787 016d D8       		.byte	-40
 1788 016e AB       		.byte	-85
 1789 016f 00       		.byte	0
 1790 0170 8C       		.byte	-116
 1791 0171 BC       		.byte	-68
 1792 0172 D3       		.byte	-45
 1793 0173 0A       		.byte	10
 1794 0174 F7       		.byte	-9
 1795 0175 E4       		.byte	-28
 1796 0176 58       		.byte	88
 1797 0177 05       		.byte	5
 1798 0178 B8       		.byte	-72
 1799 0179 B3       		.byte	-77
 1800 017a 45       		.byte	69
 1801 017b 06       		.byte	6
 1802 017c D0       		.byte	-48
 1803 017d 2C       		.byte	44
 1804 017e 1E       		.byte	30
 1805 017f 8F       		.byte	-113
 1806 0180 CA       		.byte	-54
 1807 0181 3F       		.byte	63
 1808 0182 0F       		.byte	15
 1809 0183 02       		.byte	2
 1810 0184 C1       		.byte	-63
 1811 0185 AF       		.byte	-81
 1812 0186 BD       		.byte	-67
 1813 0187 03       		.byte	3
 1814 0188 01       		.byte	1
 1815 0189 13       		.byte	19
 1816 018a 8A       		.byte	-118
 1817 018b 6B       		.byte	107
 1818 018c 3A       		.byte	58
 1819 018d 91       		.byte	-111
 1820 018e 11       		.byte	17
 1821 018f 41       		.byte	65
 1822 0190 4F       		.byte	79
 1823 0191 67       		.byte	103
 1824 0192 DC       		.byte	-36
 1825 0193 EA       		.byte	-22
 1826 0194 97       		.byte	-105
 1827 0195 F2       		.byte	-14
 1828 0196 CF       		.byte	-49
 1829 0197 CE       		.byte	-50
 1830 0198 F0       		.byte	-16
 1831 0199 B4       		.byte	-76
 1832 019a E6       		.byte	-26
 1833 019b 73       		.byte	115
 1834 019c 96       		.byte	-106
 1835 019d AC       		.byte	-84
 1836 019e 74       		.byte	116
 1837 019f 22       		.byte	34
 1838 01a0 E7       		.byte	-25
 1839 01a1 AD       		.byte	-83
 1840 01a2 35       		.byte	53
ARM GAS  C:\Users\bkettle\AppData\Local\Temp\ccqVNvP8.s 			page 44


 1841 01a3 85       		.byte	-123
 1842 01a4 E2       		.byte	-30
 1843 01a5 F9       		.byte	-7
 1844 01a6 37       		.byte	55
 1845 01a7 E8       		.byte	-24
 1846 01a8 1C       		.byte	28
 1847 01a9 75       		.byte	117
 1848 01aa DF       		.byte	-33
 1849 01ab 6E       		.byte	110
 1850 01ac 47       		.byte	71
 1851 01ad F1       		.byte	-15
 1852 01ae 1A       		.byte	26
 1853 01af 71       		.byte	113
 1854 01b0 1D       		.byte	29
 1855 01b1 29       		.byte	41
 1856 01b2 C5       		.byte	-59
 1857 01b3 89       		.byte	-119
 1858 01b4 6F       		.byte	111
 1859 01b5 B7       		.byte	-73
 1860 01b6 62       		.byte	98
 1861 01b7 0E       		.byte	14
 1862 01b8 AA       		.byte	-86
 1863 01b9 18       		.byte	24
 1864 01ba BE       		.byte	-66
 1865 01bb 1B       		.byte	27
 1866 01bc FC       		.byte	-4
 1867 01bd 56       		.byte	86
 1868 01be 3E       		.byte	62
 1869 01bf 4B       		.byte	75
 1870 01c0 C6       		.byte	-58
 1871 01c1 D2       		.byte	-46
 1872 01c2 79       		.byte	121
 1873 01c3 20       		.byte	32
 1874 01c4 9A       		.byte	-102
 1875 01c5 DB       		.byte	-37
 1876 01c6 C0       		.byte	-64
 1877 01c7 FE       		.byte	-2
 1878 01c8 78       		.byte	120
 1879 01c9 CD       		.byte	-51
 1880 01ca 5A       		.byte	90
 1881 01cb F4       		.byte	-12
 1882 01cc 1F       		.byte	31
 1883 01cd DD       		.byte	-35
 1884 01ce A8       		.byte	-88
 1885 01cf 33       		.byte	51
 1886 01d0 88       		.byte	-120
 1887 01d1 07       		.byte	7
 1888 01d2 C7       		.byte	-57
 1889 01d3 31       		.byte	49
 1890 01d4 B1       		.byte	-79
 1891 01d5 12       		.byte	18
 1892 01d6 10       		.byte	16
 1893 01d7 59       		.byte	89
 1894 01d8 27       		.byte	39
 1895 01d9 80       		.byte	-128
 1896 01da EC       		.byte	-20
 1897 01db 5F       		.byte	95
ARM GAS  C:\Users\bkettle\AppData\Local\Temp\ccqVNvP8.s 			page 45


 1898 01dc 60       		.byte	96
 1899 01dd 51       		.byte	81
 1900 01de 7F       		.byte	127
 1901 01df A9       		.byte	-87
 1902 01e0 19       		.byte	25
 1903 01e1 B5       		.byte	-75
 1904 01e2 4A       		.byte	74
 1905 01e3 0D       		.byte	13
 1906 01e4 2D       		.byte	45
 1907 01e5 E5       		.byte	-27
 1908 01e6 7A       		.byte	122
 1909 01e7 9F       		.byte	-97
 1910 01e8 93       		.byte	-109
 1911 01e9 C9       		.byte	-55
 1912 01ea 9C       		.byte	-100
 1913 01eb EF       		.byte	-17
 1914 01ec A0       		.byte	-96
 1915 01ed E0       		.byte	-32
 1916 01ee 3B       		.byte	59
 1917 01ef 4D       		.byte	77
 1918 01f0 AE       		.byte	-82
 1919 01f1 2A       		.byte	42
 1920 01f2 F5       		.byte	-11
 1921 01f3 B0       		.byte	-80
 1922 01f4 C8       		.byte	-56
 1923 01f5 EB       		.byte	-21
 1924 01f6 BB       		.byte	-69
 1925 01f7 3C       		.byte	60
 1926 01f8 83       		.byte	-125
 1927 01f9 53       		.byte	83
 1928 01fa 99       		.byte	-103
 1929 01fb 61       		.byte	97
 1930 01fc 17       		.byte	23
 1931 01fd 2B       		.byte	43
 1932 01fe 04       		.byte	4
 1933 01ff 7E       		.byte	126
 1934 0200 BA       		.byte	-70
 1935 0201 77       		.byte	119
 1936 0202 D6       		.byte	-42
 1937 0203 26       		.byte	38
 1938 0204 E1       		.byte	-31
 1939 0205 69       		.byte	105
 1940 0206 14       		.byte	20
 1941 0207 63       		.byte	99
 1942 0208 55       		.byte	85
 1943 0209 21       		.byte	33
 1944 020a 0C       		.byte	12
 1945 020b 7D       		.byte	125
 1946              		.text
 1947              	.Letext0:
 1948              		.file 2 "c:\\program files (x86)\\cypress\\psoc creator\\4.3\\psoc creator\\import\\gnu\\arm\\5.4.
 1949              		.file 3 "c:\\program files (x86)\\cypress\\psoc creator\\4.3\\psoc creator\\import\\gnu\\arm\\5.4.
 1950              		.file 4 "aes.h"