ARM GAS  C:\Users\bkettle\AppData\Local\Temp\ccyETIZM.s 			page 1


   1              		.syntax unified
   2              		.cpu cortex-m3
   3              		.fpu softvfp
   4              		.eabi_attribute 20, 1
   5              		.eabi_attribute 21, 1
   6              		.eabi_attribute 23, 3
   7              		.eabi_attribute 24, 1
   8              		.eabi_attribute 25, 1
   9              		.eabi_attribute 26, 1
  10              		.eabi_attribute 30, 1
  11              		.eabi_attribute 34, 1
  12              		.eabi_attribute 18, 4
  13              		.thumb
  14              		.syntax unified
  15              		.file	"main.c"
  16              		.text
  17              	.Ltext0:
  18              		.cfi_sections	.debug_frame
  19              		.section	.text.SW1_INT,"ax",%progbits
  20              		.align	2
  21              		.global	SW1_INT
  22              		.thumb
  23              		.thumb_func
  24              		.type	SW1_INT, %function
  25              	SW1_INT:
  26              	.LFB65:
  27              		.file 1 "main.c"
   1:main.c        **** /* ========================================
   2:main.c        ****  *
   3:main.c        ****  * Copyright YOUR COMPANY, THE YEAR
   4:main.c        ****  * All Rights Reserved
   5:main.c        ****  * UNPUBLISHED, LICENSED SOFTWARE.
   6:main.c        ****  *
   7:main.c        ****  * CONFIDENTIAL AND PROPRIETARY INFORMATION
   8:main.c        ****  * WHICH IS THE PROPERTY OF your company.
   9:main.c        ****  *
  10:main.c        ****  * ========================================
  11:main.c        **** */
  12:main.c        **** #include "project.h"
  13:main.c        **** #include <FS.h>
  14:main.c        **** #include <string.h>
  15:main.c        **** #include <Global.h>
  16:main.c        **** #include <stdbool.h>
  17:main.c        **** 
  18:main.c        **** #include <ds3231.h>
  19:main.c        **** #include <ssd1306.h>
  20:main.c        **** 
  21:main.c        **** #include <pk_record.h>
  22:main.c        **** #include <pk_sdrecorddb.h>
  23:main.c        **** #include <pk_serialfuncs.h>
  24:main.c        **** #include <pk_ui.h>
  25:main.c        **** 
  26:main.c        **** // flag for whether the dial's switch was pushed
  27:main.c        **** bool enc_sw_flag;
  28:main.c        **** bool sw1_flag; // flag for the onboard switch
  29:main.c        **** 
  30:main.c        **** CY_ISR(ENC_SW_INT) {
ARM GAS  C:\Users\bkettle\AppData\Local\Temp\ccyETIZM.s 			page 2


  31:main.c        ****     enc_sw_flag = true;
  32:main.c        ****     UART_1_PutString("enc pushed\n\r");
  33:main.c        **** }
  34:main.c        **** 
  35:main.c        **** CY_ISR(SW1_INT) {
  28              		.loc 1 35 0
  29              		.cfi_startproc
  30              		@ args = 0, pretend = 0, frame = 0
  31              		@ frame_needed = 0, uses_anonymous_args = 0
  32              		@ link register save eliminated.
  36:main.c        ****     // toggle flag
  37:main.c        ****     // this switch just used as debug
  38:main.c        ****     // toggle right now
  39:main.c        ****     sw1_flag = !sw1_flag;
  33              		.loc 1 39 0
  34 0000 024A     		ldr	r2, .L2
  35 0002 1378     		ldrb	r3, [r2]	@ zero_extendqisi2
  36 0004 83F00103 		eor	r3, r3, #1
  37 0008 1370     		strb	r3, [r2]
  38 000a 7047     		bx	lr
  39              	.L3:
  40              		.align	2
  41              	.L2:
  42 000c 00000000 		.word	sw1_flag
  43              		.cfi_endproc
  44              	.LFE65:
  45              		.size	SW1_INT, .-SW1_INT
  46              		.section	.text.ENC_SW_INT,"ax",%progbits
  47              		.align	2
  48              		.global	ENC_SW_INT
  49              		.thumb
  50              		.thumb_func
  51              		.type	ENC_SW_INT, %function
  52              	ENC_SW_INT:
  53              	.LFB64:
  30:main.c        ****     enc_sw_flag = true;
  54              		.loc 1 30 0
  55              		.cfi_startproc
  56              		@ args = 0, pretend = 0, frame = 0
  57              		@ frame_needed = 0, uses_anonymous_args = 0
  58 0000 08B5     		push	{r3, lr}
  59              		.cfi_def_cfa_offset 8
  60              		.cfi_offset 3, -8
  61              		.cfi_offset 14, -4
  31:main.c        ****     UART_1_PutString("enc pushed\n\r");
  62              		.loc 1 31 0
  63 0002 0122     		movs	r2, #1
  64 0004 024B     		ldr	r3, .L6
  65 0006 1A70     		strb	r2, [r3]
  32:main.c        **** }
  66              		.loc 1 32 0
  67 0008 0248     		ldr	r0, .L6+4
  68 000a FFF7FEFF 		bl	UART_1_PutString
  69              	.LVL0:
  70 000e 08BD     		pop	{r3, pc}
  71              	.L7:
  72              		.align	2
ARM GAS  C:\Users\bkettle\AppData\Local\Temp\ccyETIZM.s 			page 3


  73              	.L6:
  74 0010 00000000 		.word	enc_sw_flag
  75 0014 00000000 		.word	.LC0
  76              		.cfi_endproc
  77              	.LFE64:
  78              		.size	ENC_SW_INT, .-ENC_SW_INT
  79              		.section	.text.main,"ax",%progbits
  80              		.align	2
  81              		.global	main
  82              		.thumb
  83              		.thumb_func
  84              		.type	main, %function
  85              	main:
  86              	.LFB66:
  40:main.c        **** }
  41:main.c        **** 
  42:main.c        **** int main() {
  87              		.loc 1 42 0
  88              		.cfi_startproc
  89              		@ args = 0, pretend = 0, frame = 104
  90              		@ frame_needed = 0, uses_anonymous_args = 0
  91 0000 30B5     		push	{r4, r5, lr}
  92              		.cfi_def_cfa_offset 12
  93              		.cfi_offset 4, -12
  94              		.cfi_offset 5, -8
  95              		.cfi_offset 14, -4
  96 0002 9BB0     		sub	sp, sp, #108
  97              		.cfi_def_cfa_offset 120
  43:main.c        ****     
  44:main.c        ****     CyGlobalIntEnable; /* Enable global interrupts. */
  98              		.loc 1 44 0
  99              		.syntax unified
 100              	@ 44 "main.c" 1
 101 0004 62B6     		CPSIE   i
 102              	@ 0 "" 2
  45:main.c        ****     // this causes issues when plugged into the microusb, it gets phantom interrupts
  46:main.c        ****     // maybe we can enable it sometimes and disable other times
  47:main.c        ****     //rx_int_StartEx(RX_INT);  // start RX interrupt (look for CY_ISR with RX_INT address)
  48:main.c        ****     enc_sw_int_StartEx(ENC_SW_INT); // start encoder switch interrupt
 103              		.loc 1 48 0
 104              		.thumb
 105              		.syntax unified
 106 0006 2548     		ldr	r0, .L12
 107 0008 FFF7FEFF 		bl	enc_sw_int_StartEx
 108              	.LVL1:
  49:main.c        ****     sw1_int_StartEx(SW1_INT); // start encoder switch interrupt
 109              		.loc 1 49 0
 110 000c 2448     		ldr	r0, .L12+4
 111 000e FFF7FEFF 		bl	sw1_int_StartEx
 112              	.LVL2:
  50:main.c        ****     
  51:main.c        ****     /* Start LCD */
  52:main.c        ****     //LCD_Start();
  53:main.c        ****     UART_1_Start();
 113              		.loc 1 53 0
 114 0012 FFF7FEFF 		bl	UART_1_Start
 115              	.LVL3:
ARM GAS  C:\Users\bkettle\AppData\Local\Temp\ccyETIZM.s 			page 4


  54:main.c        ****     
  55:main.c        ****     /* Initialize file system */
  56:main.c        ****     FS_Init();
 116              		.loc 1 56 0
 117 0016 FFF7FEFF 		bl	FS_Init
 118              	.LVL4:
  57:main.c        ****     
  58:main.c        ****     Dial_Start();
 119              		.loc 1 58 0
 120 001a FFF7FEFF 		bl	Dial_Start
 121              	.LVL5:
  59:main.c        ****     s_main_state = S_STARTUP;
 122              		.loc 1 59 0
 123 001e 0022     		movs	r2, #0
 124 0020 204B     		ldr	r3, .L12+8
 125 0022 1A60     		str	r2, [r3]
  60:main.c        ****     
  61:main.c        ****     // to store the currently selected record
  62:main.c        ****     // for serial applications, its the record in progress
  63:main.c        ****     Record curr_record;
  64:main.c        **** 
  65:main.c        ****     // start the rtc communication over i2c
  66:main.c        ****     I2CRTC_Start();
 126              		.loc 1 66 0
 127 0024 FFF7FEFF 		bl	I2CRTC_Start
 128              	.LVL6:
  67:main.c        ****     I2CRTC_EnableInt();
 129              		.loc 1 67 0
 130 0028 1F4C     		ldr	r4, .L12+12
 131 002a 0125     		movs	r5, #1
 132 002c 2560     		str	r5, [r4]
  68:main.c        ****     
  69:main.c        ****     // start i2c connection w oled
  70:main.c        ****     I2COLED_Start();
 133              		.loc 1 70 0
 134 002e FFF7FEFF 		bl	I2COLED_Start
 135              	.LVL7:
  71:main.c        ****     I2COLED_EnableInt();
 136              		.loc 1 71 0
 137 0032 4FF40043 		mov	r3, #32768
 138 0036 2360     		str	r3, [r4]
  72:main.c        ****     display_init(DISPLAY_ADDRESS);
 139              		.loc 1 72 0
 140 0038 3C20     		movs	r0, #60
 141 003a FFF7FEFF 		bl	display_init
 142              	.LVL8:
  73:main.c        ****     
  74:main.c        ****     // get the current time
  75:main.c        ****     DateTime now = RTC_now();
 143              		.loc 1 75 0
 144 003e 6846     		mov	r0, sp
 145 0040 FFF7FEFF 		bl	RTC_now
 146              	.LVL9:
  76:main.c        ****     
  77:main.c        ****     // start generating random numbers
  78:main.c        ****     PRS_Start();
 147              		.loc 1 78 0
ARM GAS  C:\Users\bkettle\AppData\Local\Temp\ccyETIZM.s 			page 5


 148 0044 FFF7FEFF 		bl	PRS_Start
 149              	.LVL10:
  79:main.c        ****     PRS_WriteSeed(dt_getUnixtime(now));
 150              		.loc 1 79 0
 151 0048 9DE80300 		ldmia	sp, {r0, r1}
 152 004c FFF7FEFF 		bl	dt_getUnixtime
 153              	.LVL11:
 154 0050 80B2     		uxth	r0, r0
 155 0052 FFF7FEFF 		bl	PRS_WriteSeed
 156              	.LVL12:
  80:main.c        ****     
  81:main.c        ****     // format the sd card and create the db
  82:main.c        ****     //SD_createDB(false);
  83:main.c        ****     //Record new_rec = {"bbb", "bbbb", "bbbbb"};
  84:main.c        ****     //SD_addRecord(&new_rec);
  85:main.c        ****     serial_menu_init();
 157              		.loc 1 85 0
 158 0056 FFF7FEFF 		bl	serial_menu_init
 159              	.LVL13:
  86:main.c        ****     
  87:main.c        ****     // show startup message on display
  88:main.c        ****     gfx_setCursor(10,10);
 160              		.loc 1 88 0
 161 005a 0A21     		movs	r1, #10
 162 005c 0846     		mov	r0, r1
 163 005e FFF7FEFF 		bl	gfx_setCursor
 164              	.LVL14:
  89:main.c        ****     gfx_setTextSize(2);
 165              		.loc 1 89 0
 166 0062 0220     		movs	r0, #2
 167 0064 FFF7FEFF 		bl	gfx_setTextSize
 168              	.LVL15:
  90:main.c        ****     gfx_setTextColor(WHITE);
 169              		.loc 1 90 0
 170 0068 2846     		mov	r0, r5
 171 006a FFF7FEFF 		bl	gfx_setTextColor
 172              	.LVL16:
  91:main.c        ****     gfx_println("STARTUP");
 173              		.loc 1 91 0
 174 006e 0F48     		ldr	r0, .L12+16
 175 0070 FFF7FEFF 		bl	gfx_println
 176              	.LVL17:
  92:main.c        ****     display_update();
 177              		.loc 1 92 0
 178 0074 FFF7FEFF 		bl	display_update
 179              	.LVL18:
  93:main.c        ****     USB_Initialize();
 180              		.loc 1 93 0
 181 0078 FFF7FEFF 		bl	USB_Initialize
 182              	.LVL19:
  94:main.c        ****     
  95:main.c        ****     USB_print("STARTUP\n\r");
 183              		.loc 1 95 0
 184 007c 0C48     		ldr	r0, .L12+20
 185 007e FFF7FEFF 		bl	USB_print
 186              	.LVL20:
 187              	.L10:
ARM GAS  C:\Users\bkettle\AppData\Local\Temp\ccyETIZM.s 			page 6


  96:main.c        ****     
  97:main.c        ****     for(;;) {
  98:main.c        ****         // only do the serial things if serial is connected
  99:main.c        ****         // ie the user has putty open
 100:main.c        ****         if (USB_isReady()) serial_fsm(&curr_record);
 188              		.loc 1 100 0
 189 0082 FFF7FEFF 		bl	USB_isReady
 190              	.LVL21:
 191 0086 10B1     		cbz	r0, .L9
 192              		.loc 1 100 0 is_stmt 0 discriminator 1
 193 0088 02A8     		add	r0, sp, #8
 194 008a FFF7FEFF 		bl	serial_fsm
 195              	.LVL22:
 196              	.L9:
 101:main.c        ****         ui_fsm(&enc_sw_flag);
 197              		.loc 1 101 0 is_stmt 1
 198 008e 094C     		ldr	r4, .L12+24
 199 0090 2046     		mov	r0, r4
 200 0092 FFF7FEFF 		bl	ui_fsm
 201              	.LVL23:
 102:main.c        ****         enc_sw_flag = false; // ui fsm handled any encoder input        
 202              		.loc 1 102 0
 203 0096 0023     		movs	r3, #0
 204 0098 2370     		strb	r3, [r4]
 103:main.c        ****     }
 205              		.loc 1 103 0
 206 009a F2E7     		b	.L10
 207              	.L13:
 208              		.align	2
 209              	.L12:
 210 009c 00000000 		.word	ENC_SW_INT
 211 00a0 00000000 		.word	SW1_INT
 212 00a4 00000000 		.word	s_main_state
 213 00a8 00E100E0 		.word	-536813312
 214 00ac 10000000 		.word	.LC1
 215 00b0 18000000 		.word	.LC2
 216 00b4 00000000 		.word	enc_sw_flag
 217              		.cfi_endproc
 218              	.LFE66:
 219              		.size	main, .-main
 220              		.comm	sw1_flag,1,1
 221              		.comm	enc_sw_flag,1,1
 222              		.comm	prev_index,4,4
 223              		.comm	curr_record,96,4
 224              		.comm	record_buffer,1152,4
 225              		.comm	num_loaded,4,4
 226              		.comm	buff_size,4,4
 227              		.comm	buff_offset,4,4
 228              		.comm	detail_menu_left,4,4
 229              		.comm	detail_menu_top,4,4
 230              		.comm	detail_menu_items,100,4
 231              		.comm	detail_menu_size,4,4
 232              		.comm	display_state,1,1
 233              		.comm	ascii_to_hid,768,4
 234              		.comm	KB_Data,8,4
 235              		.comm	KB_Initialized,1,1
 236              		.comm	s_sec_state,4,4
ARM GAS  C:\Users\bkettle\AppData\Local\Temp\ccyETIZM.s 			page 7


 237              		.comm	s_main_state,4,4
 238              		.comm	new_record,96,4
 239              		.comm	pFile,4,4
 240              		.comm	sdVolName,10,4
 241              		.comm	sdFile,9,4
 242              		.comm	record_size,4,4
 243              		.section	.rodata.str1.4,"aMS",%progbits,1
 244              		.align	2
 245              	.LC0:
 246 0000 656E6320 		.ascii	"enc pushed\012\015\000"
 246      70757368 
 246      65640A0D 
 246      00
 247 000d 000000   		.space	3
 248              	.LC1:
 249 0010 53544152 		.ascii	"STARTUP\000"
 249      54555000 
 250              	.LC2:
 251 0018 53544152 		.ascii	"STARTUP\012\015\000"
 251      5455500A 
 251      0D00
 252              		.text
 253              	.Letext0:
 254              		.file 2 "c:\\program files (x86)\\cypress\\psoc creator\\4.3\\psoc creator\\import\\gnu\\arm\\5.4.
 255              		.file 3 "c:\\program files (x86)\\cypress\\psoc creator\\4.3\\psoc creator\\import\\gnu\\arm\\5.4.
 256              		.file 4 "Generated_Source\\PSoC5/cytypes.h"
 257              		.file 5 "..\\emFile_V322c\\Code\\Include\\PSoC5/FS_Types.h"
 258              		.file 6 "..\\..\\..\\..\\..\\..\\development\\hardware\\DS3231-PSoC/ds3231.h"
 259              		.file 7 "./pk_record.h"
 260              		.file 8 "./pk_usb.h"
 261              		.file 9 "Generated_Source\\PSoC5/core_cm3.h"
 262              		.file 10 "./pk_sdrecorddb.h"
 263              		.file 11 "./pk_serialfuncs.h"
 264              		.file 12 "./pk_ui.h"
 265              		.file 13 "Generated_Source\\PSoC5/UART_1.h"
 266              		.file 14 "Generated_Source\\PSoC5/enc_sw_int.h"
 267              		.file 15 "Generated_Source\\PSoC5/sw1_int.h"
 268              		.file 16 "..\\emFile_V322c\\Code\\Include\\PSoC5/FS.h"
 269              		.file 17 "Generated_Source\\PSoC5/Dial.h"
 270              		.file 18 "Generated_Source\\PSoC5/I2CRTC.h"
 271              		.file 19 "Generated_Source\\PSoC5/I2COLED.h"
 272              		.file 20 "./ssd1306.h"
 273              		.file 21 "Generated_Source\\PSoC5/PRS.h"