ARM GAS  C:\Users\bkettle\AppData\Local\Temp\cch29DKk.s 			page 1


   1              		.syntax unified
   2              		.cpu cortex-m3
   3              		.fpu softvfp
   4              		.eabi_attribute 20, 1
   5              		.eabi_attribute 21, 1
   6              		.eabi_attribute 23, 3
   7              		.eabi_attribute 24, 1
   8              		.eabi_attribute 25, 1
   9              		.eabi_attribute 26, 1
  10              		.eabi_attribute 30, 1
  11              		.eabi_attribute 34, 1
  12              		.eabi_attribute 18, 4
  13              		.thumb
  14              		.syntax unified
  15              		.file	"pk_sdrecorddb.c"
  16              		.text
  17              	.Ltext0:
  18              		.cfi_sections	.debug_frame
  19              		.section	.text.SD_createDB,"ax",%progbits
  20              		.align	2
  21              		.global	SD_createDB
  22              		.thumb
  23              		.thumb_func
  24              		.type	SD_createDB, %function
  25              	SD_createDB:
  26              	.LFB64:
  27              		.file 1 "pk_sdrecorddb.c"
   1:pk_sdrecorddb.c **** /* 
   2:pk_sdrecorddb.c ****     Defines functions for 
   3:pk_sdrecorddb.c ****     interfacing with the 
   4:pk_sdrecorddb.c ****     sd-card database
   5:pk_sdrecorddb.c **** */
   6:pk_sdrecorddb.c **** 
   7:pk_sdrecorddb.c **** #include <project.h>
   8:pk_sdrecorddb.c **** #include <pk_sdrecorddb.h>
   9:pk_sdrecorddb.c **** 
  10:pk_sdrecorddb.c **** Record example_record = {"example", "record", "this is an example"};
  11:pk_sdrecorddb.c **** 
  12:pk_sdrecorddb.c **** char sdFile[9] = "pwdb";
  13:pk_sdrecorddb.c **** 
  14:pk_sdrecorddb.c **** 
  15:pk_sdrecorddb.c **** void SD_createDB(bool write_example) {
  28              		.loc 1 15 0
  29              		.cfi_startproc
  30              		@ args = 0, pretend = 0, frame = 16
  31              		@ frame_needed = 0, uses_anonymous_args = 0
  32              	.LVL0:
  33 0000 10B5     		push	{r4, lr}
  34              		.cfi_def_cfa_offset 8
  35              		.cfi_offset 4, -8
  36              		.cfi_offset 14, -4
  37 0002 84B0     		sub	sp, sp, #16
  38              		.cfi_def_cfa_offset 24
  39 0004 0446     		mov	r4, r0
  16:pk_sdrecorddb.c ****     UART_1_PutString("\n\r SD card format");
  40              		.loc 1 16 0
  41 0006 3348     		ldr	r0, .L12
ARM GAS  C:\Users\bkettle\AppData\Local\Temp\cch29DKk.s 			page 2


  42              	.LVL1:
  43 0008 FFF7FEFF 		bl	UART_1_PutString
  44              	.LVL2:
  17:pk_sdrecorddb.c ****     
  18:pk_sdrecorddb.c ****     char sdVolName[10];     /* Buffer that will hold SD card Volume name */
  19:pk_sdrecorddb.c ****     
  20:pk_sdrecorddb.c ****     /* Get volume name of SD card #0 */
  21:pk_sdrecorddb.c ****     if(0 != FS_GetVolumeName(0u, &sdVolName[0], 9u))
  45              		.loc 1 21 0
  46 000c 0922     		movs	r2, #9
  47 000e 01A9     		add	r1, sp, #4
  48 0010 0020     		movs	r0, #0
  49 0012 FFF7FEFF 		bl	FS_GetVolumeName
  50              	.LVL3:
  51 0016 30B1     		cbz	r0, .L2
  22:pk_sdrecorddb.c ****     {
  23:pk_sdrecorddb.c ****         // display volume name
  24:pk_sdrecorddb.c ****         UART_1_PutString("\n\r SD card name:");
  52              		.loc 1 24 0
  53 0018 2F48     		ldr	r0, .L12+4
  54 001a FFF7FEFF 		bl	UART_1_PutString
  55              	.LVL4:
  25:pk_sdrecorddb.c ****         UART_1_PutString(sdVolName);
  56              		.loc 1 25 0
  57 001e 01A8     		add	r0, sp, #4
  58 0020 FFF7FEFF 		bl	UART_1_PutString
  59              	.LVL5:
  60 0024 05E0     		b	.L3
  61              	.L2:
  26:pk_sdrecorddb.c ****     }
  27:pk_sdrecorddb.c ****     else
  28:pk_sdrecorddb.c ****     {
  29:pk_sdrecorddb.c ****         // getting volume name failed
  30:pk_sdrecorddb.c ****         UART_1_PutString("\n\r Failed to get ");
  62              		.loc 1 30 0
  63 0026 2D48     		ldr	r0, .L12+8
  64 0028 FFF7FEFF 		bl	UART_1_PutString
  65              	.LVL6:
  31:pk_sdrecorddb.c ****         UART_1_PutString("SD card name");
  66              		.loc 1 31 0
  67 002c 2C48     		ldr	r0, .L12+12
  68 002e FFF7FEFF 		bl	UART_1_PutString
  69              	.LVL7:
  70              	.L3:
  32:pk_sdrecorddb.c ****     }
  33:pk_sdrecorddb.c ****     
  34:pk_sdrecorddb.c ****     if(0 == FS_FormatSD(sdVolName)) {
  71              		.loc 1 34 0
  72 0032 01A8     		add	r0, sp, #4
  73 0034 FFF7FEFF 		bl	FS_FormatSD
  74              	.LVL8:
  75 0038 18B9     		cbnz	r0, .L4
  35:pk_sdrecorddb.c ****         UART_1_PutString(" Succeeded");
  76              		.loc 1 35 0
  77 003a 2A48     		ldr	r0, .L12+16
  78 003c FFF7FEFF 		bl	UART_1_PutString
  79              	.LVL9:
ARM GAS  C:\Users\bkettle\AppData\Local\Temp\cch29DKk.s 			page 3


  80 0040 02E0     		b	.L5
  81              	.L4:
  36:pk_sdrecorddb.c ****     }
  37:pk_sdrecorddb.c ****     else {
  38:pk_sdrecorddb.c ****         UART_1_PutString(" Failed");
  82              		.loc 1 38 0
  83 0042 2948     		ldr	r0, .L12+20
  84 0044 FFF7FEFF 		bl	UART_1_PutString
  85              	.LVL10:
  86              	.L5:
  39:pk_sdrecorddb.c ****     }
  40:pk_sdrecorddb.c ****     
  41:pk_sdrecorddb.c ****     /* Create specific file for modification */
  42:pk_sdrecorddb.c ****     pFile = FS_FOpen(sdFile, "w");
  87              		.loc 1 42 0
  88 0048 2849     		ldr	r1, .L12+24
  89 004a 2948     		ldr	r0, .L12+28
  90 004c FFF7FEFF 		bl	FS_FOpen
  91              	.LVL11:
  92 0050 284B     		ldr	r3, .L12+32
  93 0052 1860     		str	r0, [r3]
  43:pk_sdrecorddb.c ****     
  44:pk_sdrecorddb.c ****     /* Check if file was created */
  45:pk_sdrecorddb.c ****     if(pFile) {
  94              		.loc 1 45 0
  95 0054 0028     		cmp	r0, #0
  96 0056 31D0     		beq	.L6
  46:pk_sdrecorddb.c ****         /* Indicate successful file creation message */
  47:pk_sdrecorddb.c ****         UART_1_PutString("\n\r File ");
  97              		.loc 1 47 0
  98 0058 2748     		ldr	r0, .L12+36
  99 005a FFF7FEFF 		bl	UART_1_PutString
 100              	.LVL12:
  48:pk_sdrecorddb.c ****         UART_1_PutString(sdFile);
 101              		.loc 1 48 0
 102 005e 2448     		ldr	r0, .L12+28
 103 0060 FFF7FEFF 		bl	UART_1_PutString
 104              	.LVL13:
  49:pk_sdrecorddb.c ****         UART_1_PutString(" was opened");
 105              		.loc 1 49 0
 106 0064 2548     		ldr	r0, .L12+40
 107 0066 FFF7FEFF 		bl	UART_1_PutString
 108              	.LVL14:
  50:pk_sdrecorddb.c ****         
  51:pk_sdrecorddb.c ****         // write example record to the file
  52:pk_sdrecorddb.c ****         if (write_example) {
 109              		.loc 1 52 0
 110 006a BCB1     		cbz	r4, .L7
  53:pk_sdrecorddb.c ****             if(0 != FS_Write(pFile, &example_record, record_size)) {
 111              		.loc 1 53 0
 112 006c 244B     		ldr	r3, .L12+44
 113 006e 1A68     		ldr	r2, [r3]
 114 0070 2449     		ldr	r1, .L12+48
 115 0072 204B     		ldr	r3, .L12+32
 116 0074 1868     		ldr	r0, [r3]
 117 0076 FFF7FEFF 		bl	FS_Write
 118              	.LVL15:
ARM GAS  C:\Users\bkettle\AppData\Local\Temp\cch29DKk.s 			page 4


 119 007a 48B1     		cbz	r0, .L8
  54:pk_sdrecorddb.c ****                 /* Inditate that data was written to a file */
  55:pk_sdrecorddb.c ****                 UART_1_PutString("\n\r\"0123456789\"");
 120              		.loc 1 55 0
 121 007c 2248     		ldr	r0, .L12+52
 122 007e FFF7FEFF 		bl	UART_1_PutString
 123              	.LVL16:
  56:pk_sdrecorddb.c ****                 UART_1_PutString(sdFile);
 124              		.loc 1 56 0
 125 0082 1B48     		ldr	r0, .L12+28
 126 0084 FFF7FEFF 		bl	UART_1_PutString
 127              	.LVL17:
  57:pk_sdrecorddb.c ****                 //LCD_Position(1u, 0u);
  58:pk_sdrecorddb.c ****                 UART_1_PutString(" written to file");
 128              		.loc 1 58 0
 129 0088 2048     		ldr	r0, .L12+56
 130 008a FFF7FEFF 		bl	UART_1_PutString
 131              	.LVL18:
 132 008e 05E0     		b	.L7
 133              	.L8:
  59:pk_sdrecorddb.c ****             }
  60:pk_sdrecorddb.c ****             else {
  61:pk_sdrecorddb.c ****                 UART_1_PutString("\n\r Failed to write");
 134              		.loc 1 61 0
 135 0090 1F48     		ldr	r0, .L12+60
 136 0092 FFF7FEFF 		bl	UART_1_PutString
 137              	.LVL19:
  62:pk_sdrecorddb.c ****                 //LCD_Position(1u, 0u);
  63:pk_sdrecorddb.c ****                 UART_1_PutString(" data to file");
 138              		.loc 1 63 0
 139 0096 1F48     		ldr	r0, .L12+64
 140 0098 FFF7FEFF 		bl	UART_1_PutString
 141              	.LVL20:
 142              	.L7:
  64:pk_sdrecorddb.c ****             }
  65:pk_sdrecorddb.c ****         }
  66:pk_sdrecorddb.c ****         
  67:pk_sdrecorddb.c ****         if(0 == FS_FClose(pFile)) {
 143              		.loc 1 67 0
 144 009c 154B     		ldr	r3, .L12+32
 145 009e 1868     		ldr	r0, [r3]
 146 00a0 FFF7FEFF 		bl	FS_FClose
 147              	.LVL21:
 148 00a4 18B9     		cbnz	r0, .L9
  68:pk_sdrecorddb.c ****             UART_1_PutString("\n\r File was closed");
 149              		.loc 1 68 0
 150 00a6 1C48     		ldr	r0, .L12+68
 151 00a8 FFF7FEFF 		bl	UART_1_PutString
 152              	.LVL22:
 153 00ac 0CE0     		b	.L10
 154              	.L9:
  69:pk_sdrecorddb.c ****         }
  70:pk_sdrecorddb.c ****         else {
  71:pk_sdrecorddb.c ****             UART_1_PutString("\n\r Failed to close");
 155              		.loc 1 71 0
 156 00ae 1B48     		ldr	r0, .L12+72
 157 00b0 FFF7FEFF 		bl	UART_1_PutString
ARM GAS  C:\Users\bkettle\AppData\Local\Temp\cch29DKk.s 			page 5


 158              	.LVL23:
  72:pk_sdrecorddb.c ****             UART_1_PutString("file");
 159              		.loc 1 72 0
 160 00b4 1A48     		ldr	r0, .L12+76
 161 00b6 FFF7FEFF 		bl	UART_1_PutString
 162              	.LVL24:
 163 00ba 05E0     		b	.L10
 164              	.L6:
  73:pk_sdrecorddb.c ****         }
  74:pk_sdrecorddb.c ****     }
  75:pk_sdrecorddb.c ****     else {
  76:pk_sdrecorddb.c ****         UART_1_PutString("\n\r Failed to create");
 165              		.loc 1 76 0
 166 00bc 1948     		ldr	r0, .L12+80
 167 00be FFF7FEFF 		bl	UART_1_PutString
 168              	.LVL25:
  77:pk_sdrecorddb.c ****         UART_1_PutString(" file");
 169              		.loc 1 77 0
 170 00c2 1948     		ldr	r0, .L12+84
 171 00c4 FFF7FEFF 		bl	UART_1_PutString
 172              	.LVL26:
 173              	.L10:
  78:pk_sdrecorddb.c ****     }
  79:pk_sdrecorddb.c ****     
  80:pk_sdrecorddb.c ****     UART_1_PutString("\n\r Format complete ");
 174              		.loc 1 80 0
 175 00c8 1848     		ldr	r0, .L12+88
 176 00ca FFF7FEFF 		bl	UART_1_PutString
 177              	.LVL27:
  81:pk_sdrecorddb.c **** }
 178              		.loc 1 81 0
 179 00ce 04B0     		add	sp, sp, #16
 180              		.cfi_def_cfa_offset 8
 181              		@ sp needed
 182 00d0 10BD     		pop	{r4, pc}
 183              	.L13:
 184 00d2 00BF     		.align	2
 185              	.L12:
 186 00d4 00000000 		.word	.LC0
 187 00d8 14000000 		.word	.LC1
 188 00dc 28000000 		.word	.LC2
 189 00e0 3C000000 		.word	.LC3
 190 00e4 4C000000 		.word	.LC4
 191 00e8 58000000 		.word	.LC5
 192 00ec 60000000 		.word	.LC6
 193 00f0 00000000 		.word	.LANCHOR0
 194 00f4 00000000 		.word	pFile
 195 00f8 64000000 		.word	.LC7
 196 00fc 70000000 		.word	.LC8
 197 0100 00000000 		.word	record_size
 198 0104 0C000000 		.word	.LANCHOR0+12
 199 0108 7C000000 		.word	.LC9
 200 010c 8C000000 		.word	.LC10
 201 0110 A0000000 		.word	.LC11
 202 0114 B4000000 		.word	.LC12
 203 0118 C4000000 		.word	.LC13
 204 011c D8000000 		.word	.LC14
ARM GAS  C:\Users\bkettle\AppData\Local\Temp\cch29DKk.s 			page 6


 205 0120 EC000000 		.word	.LC15
 206 0124 F4000000 		.word	.LC16
 207 0128 08010000 		.word	.LC17
 208 012c 10010000 		.word	.LC18
 209              		.cfi_endproc
 210              	.LFE64:
 211              		.size	SD_createDB, .-SD_createDB
 212              		.section	.text.SD_readRecords,"ax",%progbits
 213              		.align	2
 214              		.global	SD_readRecords
 215              		.thumb
 216              		.thumb_func
 217              		.type	SD_readRecords, %function
 218              	SD_readRecords:
 219              	.LFB65:
  82:pk_sdrecorddb.c **** 
  83:pk_sdrecorddb.c **** bool SD_readRecords(int rec_index, int num_records, Record * out) {
 220              		.loc 1 83 0
 221              		.cfi_startproc
 222              		@ args = 0, pretend = 0, frame = 0
 223              		@ frame_needed = 0, uses_anonymous_args = 0
 224              	.LVL28:
 225 0000 70B5     		push	{r4, r5, r6, lr}
 226              		.cfi_def_cfa_offset 16
 227              		.cfi_offset 4, -16
 228              		.cfi_offset 5, -12
 229              		.cfi_offset 6, -8
 230              		.cfi_offset 14, -4
 231 0002 0446     		mov	r4, r0
 232 0004 0D46     		mov	r5, r1
 233 0006 1646     		mov	r6, r2
  84:pk_sdrecorddb.c ****     /* reads records from card at the 
  85:pk_sdrecorddb.c ****         specified index, and copies it to the location
  86:pk_sdrecorddb.c ****         given by the out pointer.
  87:pk_sdrecorddb.c ****     
  88:pk_sdrecorddb.c ****         returns true if successful, false if not
  89:pk_sdrecorddb.c ****     */
  90:pk_sdrecorddb.c ****     // open the db file
  91:pk_sdrecorddb.c ****     pFile = FS_FOpen(sdFile, "r");
 234              		.loc 1 91 0
 235 0008 1849     		ldr	r1, .L19
 236              	.LVL29:
 237 000a 1948     		ldr	r0, .L19+4
 238              	.LVL30:
 239 000c FFF7FEFF 		bl	FS_FOpen
 240              	.LVL31:
 241 0010 184B     		ldr	r3, .L19+8
 242 0012 1860     		str	r0, [r3]
  92:pk_sdrecorddb.c ****     
  93:pk_sdrecorddb.c ****     if (pFile) {
 243              		.loc 1 93 0
 244 0014 40B3     		cbz	r0, .L15
 245              	.LBB2:
  94:pk_sdrecorddb.c ****         // should first check that the file is long enough
  95:pk_sdrecorddb.c ****         // to hold all the records the person asked for
  96:pk_sdrecorddb.c ****         int db_size = FS_GetFileSize(pFile);
 246              		.loc 1 96 0
ARM GAS  C:\Users\bkettle\AppData\Local\Temp\cch29DKk.s 			page 7


 247 0016 FFF7FEFF 		bl	FS_GetFileSize
 248              	.LVL32:
  97:pk_sdrecorddb.c ****         if (db_size < (rec_index + num_records)*record_size) {
 249              		.loc 1 97 0
 250 001a 6319     		adds	r3, r4, r5
 251 001c 164A     		ldr	r2, .L19+12
 252 001e 1168     		ldr	r1, [r2]
 253 0020 01FB03F3 		mul	r3, r1, r3
 254 0024 9842     		cmp	r0, r3
 255 0026 03DA     		bge	.L16
  98:pk_sdrecorddb.c ****             // not enough records in db, abort
  99:pk_sdrecorddb.c ****             UART_1_PutString("\n\r !! Requested records outside range!");
 256              		.loc 1 99 0
 257 0028 1448     		ldr	r0, .L19+16
 258              	.LVL33:
 259 002a FFF7FEFF 		bl	UART_1_PutString
 260              	.LVL34:
 100:pk_sdrecorddb.c ****             return false;
 261              		.loc 1 100 0
 262 002e 1BE0     		b	.L15
 263              	.LVL35:
 264              	.L16:
 101:pk_sdrecorddb.c ****         }
 102:pk_sdrecorddb.c ****         
 103:pk_sdrecorddb.c ****         
 104:pk_sdrecorddb.c ****         // move the cursor to the start of the record we want
 105:pk_sdrecorddb.c ****         // this record should be located at rec_index * record_size
 106:pk_sdrecorddb.c ****         if (0 != FS_FSeek(pFile, rec_index*record_size, FS_SEEK_CUR)) {
 265              		.loc 1 106 0
 266 0030 0122     		movs	r2, #1
 267 0032 01FB04F1 		mul	r1, r1, r4
 268 0036 0F4B     		ldr	r3, .L19+8
 269 0038 1868     		ldr	r0, [r3]
 270              	.LVL36:
 271 003a FFF7FEFF 		bl	FS_FSeek
 272              	.LVL37:
 273 003e 18B1     		cbz	r0, .L17
 107:pk_sdrecorddb.c ****             // seek failed, abort
 108:pk_sdrecorddb.c ****             UART_1_PutString("\n\r !! Failed to move cursor!");
 274              		.loc 1 108 0
 275 0040 0F48     		ldr	r0, .L19+20
 276 0042 FFF7FEFF 		bl	UART_1_PutString
 277              	.LVL38:
 109:pk_sdrecorddb.c ****             return false;
 278              		.loc 1 109 0
 279 0046 0FE0     		b	.L15
 280              	.L17:
 110:pk_sdrecorddb.c ****         }
 111:pk_sdrecorddb.c ****         
 112:pk_sdrecorddb.c ****         FS_Read(pFile, out, record_size*num_records);
 281              		.loc 1 112 0
 282 0048 0B4B     		ldr	r3, .L19+12
 283 004a 1A68     		ldr	r2, [r3]
 284 004c 094C     		ldr	r4, .L19+8
 285              	.LVL39:
 286 004e 02FB05F2 		mul	r2, r2, r5
 287 0052 3146     		mov	r1, r6
ARM GAS  C:\Users\bkettle\AppData\Local\Temp\cch29DKk.s 			page 8


 288 0054 2068     		ldr	r0, [r4]
 289 0056 FFF7FEFF 		bl	FS_Read
 290              	.LVL40:
 113:pk_sdrecorddb.c ****         
 114:pk_sdrecorddb.c ****         if (0 != FS_FClose(pFile)) {
 291              		.loc 1 114 0
 292 005a 2068     		ldr	r0, [r4]
 293 005c FFF7FEFF 		bl	FS_FClose
 294              	.LVL41:
 295 0060 10B1     		cbz	r0, .L15
 115:pk_sdrecorddb.c ****             // failed to close file
 116:pk_sdrecorddb.c ****             UART_1_PutString("\n\r !! Failed to close file!");
 296              		.loc 1 116 0
 297 0062 0848     		ldr	r0, .L19+24
 298 0064 FFF7FEFF 		bl	UART_1_PutString
 299              	.LVL42:
 300              	.L15:
 301              	.LBE2:
 117:pk_sdrecorddb.c ****             return false;
 118:pk_sdrecorddb.c ****         }
 119:pk_sdrecorddb.c ****     }
 120:pk_sdrecorddb.c ****     
 121:pk_sdrecorddb.c ****     return false;
 122:pk_sdrecorddb.c **** }
 302              		.loc 1 122 0
 303 0068 0020     		movs	r0, #0
 304 006a 70BD     		pop	{r4, r5, r6, pc}
 305              	.LVL43:
 306              	.L20:
 307              		.align	2
 308              	.L19:
 309 006c 24010000 		.word	.LC19
 310 0070 00000000 		.word	.LANCHOR0
 311 0074 00000000 		.word	pFile
 312 0078 00000000 		.word	record_size
 313 007c 28010000 		.word	.LC20
 314 0080 50010000 		.word	.LC21
 315 0084 70010000 		.word	.LC22
 316              		.cfi_endproc
 317              	.LFE65:
 318              		.size	SD_readRecords, .-SD_readRecords
 319              		.section	.text.SD_addRecord,"ax",%progbits
 320              		.align	2
 321              		.global	SD_addRecord
 322              		.thumb
 323              		.thumb_func
 324              		.type	SD_addRecord, %function
 325              	SD_addRecord:
 326              	.LFB66:
 123:pk_sdrecorddb.c **** 
 124:pk_sdrecorddb.c **** bool SD_addRecord(Record * to_add) {
 327              		.loc 1 124 0
 328              		.cfi_startproc
 329              		@ args = 0, pretend = 0, frame = 0
 330              		@ frame_needed = 0, uses_anonymous_args = 0
 331              	.LVL44:
 332 0000 10B5     		push	{r4, lr}
ARM GAS  C:\Users\bkettle\AppData\Local\Temp\cch29DKk.s 			page 9


 333              		.cfi_def_cfa_offset 8
 334              		.cfi_offset 4, -8
 335              		.cfi_offset 14, -4
 336 0002 0446     		mov	r4, r0
 125:pk_sdrecorddb.c ****     /* writes the record at the address given by to_add
 126:pk_sdrecorddb.c ****         to the SD card at the end of the db.
 127:pk_sdrecorddb.c ****     
 128:pk_sdrecorddb.c ****         returns true if successful, false if not
 129:pk_sdrecorddb.c ****     */
 130:pk_sdrecorddb.c ****     // open the db file for APPENDING (a)
 131:pk_sdrecorddb.c ****     pFile = FS_FOpen(sdFile, "a");
 337              		.loc 1 131 0
 338 0004 0C49     		ldr	r1, .L25
 339 0006 0D48     		ldr	r0, .L25+4
 340              	.LVL45:
 341 0008 FFF7FEFF 		bl	FS_FOpen
 342              	.LVL46:
 343 000c 0C4B     		ldr	r3, .L25+8
 344 000e 1860     		str	r0, [r3]
 132:pk_sdrecorddb.c ****     
 133:pk_sdrecorddb.c ****     if (pFile) {
 345              		.loc 1 133 0
 346 0010 80B1     		cbz	r0, .L22
 134:pk_sdrecorddb.c ****         // cursor should be at the end of the file, bc appending
 135:pk_sdrecorddb.c ****         
 136:pk_sdrecorddb.c ****         // write the record in to_add to the file at the cursor pos
 137:pk_sdrecorddb.c ****         // should be record_size long (I hope)
 138:pk_sdrecorddb.c ****         FS_Write(pFile, to_add, record_size);
 347              		.loc 1 138 0
 348 0012 0C4B     		ldr	r3, .L25+12
 349 0014 1A68     		ldr	r2, [r3]
 350 0016 2146     		mov	r1, r4
 351 0018 FFF7FEFF 		bl	FS_Write
 352              	.LVL47:
 139:pk_sdrecorddb.c ****         
 140:pk_sdrecorddb.c ****         if (0 != FS_FClose(pFile)) {
 353              		.loc 1 140 0
 354 001c 084B     		ldr	r3, .L25+8
 355 001e 1868     		ldr	r0, [r3]
 356 0020 FFF7FEFF 		bl	FS_FClose
 357              	.LVL48:
 358 0024 18B1     		cbz	r0, .L23
 141:pk_sdrecorddb.c ****             // failed to close file
 142:pk_sdrecorddb.c ****             UART_1_PutString("\n\r !! Failed to close file!");
 359              		.loc 1 142 0
 360 0026 0848     		ldr	r0, .L25+16
 361 0028 FFF7FEFF 		bl	UART_1_PutString
 362              	.LVL49:
 143:pk_sdrecorddb.c ****             return false;
 363              		.loc 1 143 0
 364 002c 02E0     		b	.L22
 365              	.L23:
 144:pk_sdrecorddb.c ****         }
 145:pk_sdrecorddb.c ****         UART_1_PutString("\n\r Record added successfully!");
 366              		.loc 1 145 0
 367 002e 0748     		ldr	r0, .L25+20
 368 0030 FFF7FEFF 		bl	UART_1_PutString
ARM GAS  C:\Users\bkettle\AppData\Local\Temp\cch29DKk.s 			page 10


 369              	.LVL50:
 370              	.L22:
 146:pk_sdrecorddb.c ****     }
 147:pk_sdrecorddb.c ****     
 148:pk_sdrecorddb.c ****     return false;
 149:pk_sdrecorddb.c **** }
 371              		.loc 1 149 0
 372 0034 0020     		movs	r0, #0
 373 0036 10BD     		pop	{r4, pc}
 374              	.LVL51:
 375              	.L26:
 376              		.align	2
 377              	.L25:
 378 0038 8C010000 		.word	.LC23
 379 003c 00000000 		.word	.LANCHOR0
 380 0040 00000000 		.word	pFile
 381 0044 00000000 		.word	record_size
 382 0048 70010000 		.word	.LC22
 383 004c 90010000 		.word	.LC24
 384              		.cfi_endproc
 385              	.LFE66:
 386              		.size	SD_addRecord, .-SD_addRecord
 387              		.section	.text.SD_getNumRecords,"ax",%progbits
 388              		.align	2
 389              		.global	SD_getNumRecords
 390              		.thumb
 391              		.thumb_func
 392              		.type	SD_getNumRecords, %function
 393              	SD_getNumRecords:
 394              	.LFB67:
 150:pk_sdrecorddb.c **** 
 151:pk_sdrecorddb.c **** int SD_getNumRecords() {
 395              		.loc 1 151 0
 396              		.cfi_startproc
 397              		@ args = 0, pretend = 0, frame = 16
 398              		@ frame_needed = 0, uses_anonymous_args = 0
 399 0000 10B5     		push	{r4, lr}
 400              		.cfi_def_cfa_offset 8
 401              		.cfi_offset 4, -8
 402              		.cfi_offset 14, -4
 403 0002 84B0     		sub	sp, sp, #16
 404              		.cfi_def_cfa_offset 24
 152:pk_sdrecorddb.c ****     pFile = FS_FOpen(sdFile, "r");
 405              		.loc 1 152 0
 406 0004 0C49     		ldr	r1, .L31
 407 0006 0D48     		ldr	r0, .L31+4
 408 0008 FFF7FEFF 		bl	FS_FOpen
 409              	.LVL52:
 410 000c 0C4B     		ldr	r3, .L31+8
 411 000e 1860     		str	r0, [r3]
 412              	.LVL53:
 153:pk_sdrecorddb.c ****     
 154:pk_sdrecorddb.c ****     int db_size = 0;
 155:pk_sdrecorddb.c ****     
 156:pk_sdrecorddb.c ****     if (pFile) {
 413              		.loc 1 156 0
 414 0010 18B1     		cbz	r0, .L29
ARM GAS  C:\Users\bkettle\AppData\Local\Temp\cch29DKk.s 			page 11


 157:pk_sdrecorddb.c ****         // should first check that the file is long enough
 158:pk_sdrecorddb.c ****         // to hold all the records the person asked for
 159:pk_sdrecorddb.c ****         db_size = FS_GetFileSize(pFile);
 415              		.loc 1 159 0
 416 0012 FFF7FEFF 		bl	FS_GetFileSize
 417              	.LVL54:
 418 0016 0446     		mov	r4, r0
 419              	.LVL55:
 420 0018 00E0     		b	.L28
 421              	.LVL56:
 422              	.L29:
 154:pk_sdrecorddb.c ****     
 423              		.loc 1 154 0
 424 001a 0024     		movs	r4, #0
 425              	.LVL57:
 426              	.L28:
 160:pk_sdrecorddb.c ****     }
 161:pk_sdrecorddb.c ****     
 162:pk_sdrecorddb.c ****     char to_print[10];
 163:pk_sdrecorddb.c ****     sprintf(to_print, "%d", db_size);
 427              		.loc 1 163 0
 428 001c 2246     		mov	r2, r4
 429 001e 0949     		ldr	r1, .L31+12
 430 0020 01A8     		add	r0, sp, #4
 431 0022 FFF7FEFF 		bl	sprintf
 432              	.LVL58:
 164:pk_sdrecorddb.c ****     UART_1_PutString(to_print);
 433              		.loc 1 164 0
 434 0026 01A8     		add	r0, sp, #4
 435 0028 FFF7FEFF 		bl	UART_1_PutString
 436              	.LVL59:
 165:pk_sdrecorddb.c ****     return (db_size/record_size);
 437              		.loc 1 165 0
 438 002c 064B     		ldr	r3, .L31+16
 439 002e 1868     		ldr	r0, [r3]
 166:pk_sdrecorddb.c **** }
 440              		.loc 1 166 0
 441 0030 94FBF0F0 		sdiv	r0, r4, r0
 442 0034 04B0     		add	sp, sp, #16
 443              		.cfi_def_cfa_offset 8
 444              		@ sp needed
 445 0036 10BD     		pop	{r4, pc}
 446              	.LVL60:
 447              	.L32:
 448              		.align	2
 449              	.L31:
 450 0038 24010000 		.word	.LC19
 451 003c 00000000 		.word	.LANCHOR0
 452 0040 00000000 		.word	pFile
 453 0044 B0010000 		.word	.LC25
 454 0048 00000000 		.word	record_size
 455              		.cfi_endproc
 456              	.LFE67:
 457              		.size	SD_getNumRecords, .-SD_getNumRecords
 458              		.global	example_record
 459              		.comm	pFile,4,4
 460              		.comm	sdVolName,10,4
ARM GAS  C:\Users\bkettle\AppData\Local\Temp\cch29DKk.s 			page 12


 461              		.global	sdFile
 462              		.comm	record_size,4,4
 463              		.data
 464              		.align	2
 465              		.set	.LANCHOR0,. + 0
 466              		.type	sdFile, %object
 467              		.size	sdFile, 9
 468              	sdFile:
 469 0000 70776462 		.ascii	"pwdb\000"
 469      00
 470 0005 00000000 		.space	4
 471 0009 000000   		.space	3
 472              		.type	example_record, %object
 473              		.size	example_record, 64
 474              	example_record:
 475 000c 6578616D 		.ascii	"example\000"
 475      706C6500 
 476 0014 0000     		.space	2
 477 0016 7265636F 		.ascii	"record\000"
 477      726400
 478 001d 00000000 		.space	28
 478      00000000 
 478      00000000 
 478      00000000 
 478      00000000 
 479 0039 74686973 		.ascii	"this is an example\000"
 479      20697320 
 479      616E2065 
 479      78616D70 
 479      6C6500
 480              		.section	.rodata.str1.4,"aMS",%progbits,1
 481              		.align	2
 482              	.LC0:
 483 0000 0A0D2053 		.ascii	"\012\015 SD card format\000"
 483      44206361 
 483      72642066 
 483      6F726D61 
 483      7400
 484 0012 0000     		.space	2
 485              	.LC1:
 486 0014 0A0D2053 		.ascii	"\012\015 SD card name:\000"
 486      44206361 
 486      7264206E 
 486      616D653A 
 486      00
 487 0025 000000   		.space	3
 488              	.LC2:
 489 0028 0A0D2046 		.ascii	"\012\015 Failed to get \000"
 489      61696C65 
 489      6420746F 
 489      20676574 
 489      2000
 490 003a 0000     		.space	2
 491              	.LC3:
 492 003c 53442063 		.ascii	"SD card name\000"
 492      61726420 
 492      6E616D65 
ARM GAS  C:\Users\bkettle\AppData\Local\Temp\cch29DKk.s 			page 13


 492      00
 493 0049 000000   		.space	3
 494              	.LC4:
 495 004c 20537563 		.ascii	" Succeeded\000"
 495      63656564 
 495      656400
 496 0057 00       		.space	1
 497              	.LC5:
 498 0058 20466169 		.ascii	" Failed\000"
 498      6C656400 
 499              	.LC6:
 500 0060 7700     		.ascii	"w\000"
 501 0062 0000     		.space	2
 502              	.LC7:
 503 0064 0A0D2046 		.ascii	"\012\015 File \000"
 503      696C6520 
 503      00
 504 006d 000000   		.space	3
 505              	.LC8:
 506 0070 20776173 		.ascii	" was opened\000"
 506      206F7065 
 506      6E656400 
 507              	.LC9:
 508 007c 0A0D2230 		.ascii	"\012\015\"0123456789\"\000"
 508      31323334 
 508      35363738 
 508      392200
 509 008b 00       		.space	1
 510              	.LC10:
 511 008c 20777269 		.ascii	" written to file\000"
 511      7474656E 
 511      20746F20 
 511      66696C65 
 511      00
 512 009d 000000   		.space	3
 513              	.LC11:
 514 00a0 0A0D2046 		.ascii	"\012\015 Failed to write\000"
 514      61696C65 
 514      6420746F 
 514      20777269 
 514      746500
 515 00b3 00       		.space	1
 516              	.LC12:
 517 00b4 20646174 		.ascii	" data to file\000"
 517      6120746F 
 517      2066696C 
 517      6500
 518 00c2 0000     		.space	2
 519              	.LC13:
 520 00c4 0A0D2046 		.ascii	"\012\015 File was closed\000"
 520      696C6520 
 520      77617320 
 520      636C6F73 
 520      656400
 521 00d7 00       		.space	1
 522              	.LC14:
 523 00d8 0A0D2046 		.ascii	"\012\015 Failed to close\000"
ARM GAS  C:\Users\bkettle\AppData\Local\Temp\cch29DKk.s 			page 14


 523      61696C65 
 523      6420746F 
 523      20636C6F 
 523      736500
 524 00eb 00       		.space	1
 525              	.LC15:
 526 00ec 66696C65 		.ascii	"file\000"
 526      00
 527 00f1 000000   		.space	3
 528              	.LC16:
 529 00f4 0A0D2046 		.ascii	"\012\015 Failed to create\000"
 529      61696C65 
 529      6420746F 
 529      20637265 
 529      61746500 
 530              	.LC17:
 531 0108 2066696C 		.ascii	" file\000"
 531      6500
 532 010e 0000     		.space	2
 533              	.LC18:
 534 0110 0A0D2046 		.ascii	"\012\015 Format complete \000"
 534      6F726D61 
 534      7420636F 
 534      6D706C65 
 534      74652000 
 535              	.LC19:
 536 0124 7200     		.ascii	"r\000"
 537 0126 0000     		.space	2
 538              	.LC20:
 539 0128 0A0D2021 		.ascii	"\012\015 !! Requested records outside range!\000"
 539      21205265 
 539      71756573 
 539      74656420 
 539      7265636F 
 540 014f 00       		.space	1
 541              	.LC21:
 542 0150 0A0D2021 		.ascii	"\012\015 !! Failed to move cursor!\000"
 542      21204661 
 542      696C6564 
 542      20746F20 
 542      6D6F7665 
 543 016d 000000   		.space	3
 544              	.LC22:
 545 0170 0A0D2021 		.ascii	"\012\015 !! Failed to close file!\000"
 545      21204661 
 545      696C6564 
 545      20746F20 
 545      636C6F73 
 546              	.LC23:
 547 018c 6100     		.ascii	"a\000"
 548 018e 0000     		.space	2
 549              	.LC24:
 550 0190 0A0D2052 		.ascii	"\012\015 Record added successfully!\000"
 550      65636F72 
 550      64206164 
 550      64656420 
 550      73756363 
ARM GAS  C:\Users\bkettle\AppData\Local\Temp\cch29DKk.s 			page 15


 551 01ae 0000     		.space	2
 552              	.LC25:
 553 01b0 256400   		.ascii	"%d\000"
 554              		.text
 555              	.Letext0:
 556              		.file 2 "c:\\program files (x86)\\cypress\\psoc creator\\4.3\\psoc creator\\import\\gnu\\arm\\5.4.
 557              		.file 3 "c:\\program files (x86)\\cypress\\psoc creator\\4.3\\psoc creator\\import\\gnu\\arm\\5.4.
 558              		.file 4 "..\\emFile_V322c\\Code\\Include\\PSoC5/FS_Types.h"
 559              		.file 5 "./pk_record.h"
 560              		.file 6 "Generated_Source\\PSoC5/core_cm3.h"
 561              		.file 7 "./pk_sdrecorddb.h"
 562              		.file 8 "Generated_Source\\PSoC5/UART_1.h"
 563              		.file 9 "..\\emFile_V322c\\Code\\Include\\PSoC5/FS.h"
 564              		.file 10 "c:\\program files (x86)\\cypress\\psoc creator\\4.3\\psoc creator\\import\\gnu\\arm\\5.4