ARM GAS  C:\Users\bkettle\AppData\Local\Temp\ccgGow7g.s 			page 1


   1              		.syntax unified
   2              		.cpu cortex-m3
   3              		.fpu softvfp
   4              		.eabi_attribute 20, 1
   5              		.eabi_attribute 21, 1
   6              		.eabi_attribute 23, 3
   7              		.eabi_attribute 24, 1
   8              		.eabi_attribute 25, 1
   9              		.eabi_attribute 26, 1
  10              		.eabi_attribute 30, 1
  11              		.eabi_attribute 34, 1
  12              		.eabi_attribute 18, 4
  13              		.thumb
  14              		.syntax unified
  15              		.file	"pk_serialfuncs.c"
  16              		.text
  17              	.Ltext0:
  18              		.cfi_sections	.debug_frame
  19              		.section	.text.clr_last_serial_cmd,"ax",%progbits
  20              		.align	2
  21              		.global	clr_last_serial_cmd
  22              		.thumb
  23              		.thumb_func
  24              		.type	clr_last_serial_cmd, %function
  25              	clr_last_serial_cmd:
  26              	.LFB64:
  27              		.file 1 "pk_serialfuncs.c"
   1:pk_serialfuncs.c **** /* defines functions
   2:pk_serialfuncs.c ****     for interfacing with the user
   3:pk_serialfuncs.c ****     over serial.
   4:pk_serialfuncs.c **** */
   5:pk_serialfuncs.c ****     
   6:pk_serialfuncs.c **** #include <pk_serialfuncs.h>
   7:pk_serialfuncs.c **** #include <pk_sdrecorddb.h>
   8:pk_serialfuncs.c **** #include <pk_usb.h>
   9:pk_serialfuncs.c **** 
  10:pk_serialfuncs.c **** /*******************************
  11:pk_serialfuncs.c **** *       UART STUFF             *
  12:pk_serialfuncs.c **** *******************************/
  13:pk_serialfuncs.c **** 
  14:pk_serialfuncs.c **** 
  15:pk_serialfuncs.c **** // last serial command holds the previous command
  16:pk_serialfuncs.c **** // while rx_buffer holds the one currently being
  17:pk_serialfuncs.c **** // typed. last serial command is updated on enter
  18:pk_serialfuncs.c **** char rx_buffer[30];
  19:pk_serialfuncs.c **** int rx_buff_length;
  20:pk_serialfuncs.c **** char last_serial_cmd[30];
  21:pk_serialfuncs.c **** int last_serial_cmd_length = 30;
  22:pk_serialfuncs.c **** //void clr_rx_buffer(){ 
  23:pk_serialfuncs.c **** //    memset(rx_buffer, 0, 30); 
  24:pk_serialfuncs.c **** //    rx_buff_length = 0;
  25:pk_serialfuncs.c **** //};
  26:pk_serialfuncs.c **** void clr_last_serial_cmd(){ 
  28              		.loc 1 26 0
  29              		.cfi_startproc
  30              		@ args = 0, pretend = 0, frame = 0
  31              		@ frame_needed = 0, uses_anonymous_args = 0
ARM GAS  C:\Users\bkettle\AppData\Local\Temp\ccgGow7g.s 			page 2


  32 0000 08B5     		push	{r3, lr}
  33              		.cfi_def_cfa_offset 8
  34              		.cfi_offset 3, -8
  35              		.cfi_offset 14, -4
  27:pk_serialfuncs.c ****     memset(last_serial_cmd, 0, last_serial_cmd_length); 
  36              		.loc 1 27 0
  37 0002 034B     		ldr	r3, .L3
  38 0004 1A68     		ldr	r2, [r3]
  39 0006 0021     		movs	r1, #0
  40 0008 0248     		ldr	r0, .L3+4
  41 000a FFF7FEFF 		bl	memset
  42              	.LVL0:
  43 000e 08BD     		pop	{r3, pc}
  44              	.L4:
  45              		.align	2
  46              	.L3:
  47 0010 00000000 		.word	.LANCHOR0
  48 0014 00000000 		.word	last_serial_cmd
  49              		.cfi_endproc
  50              	.LFE64:
  51              		.size	clr_last_serial_cmd, .-clr_last_serial_cmd
  52              		.section	.text.update_rx_buffer,"ax",%progbits
  53              		.align	2
  54              		.global	update_rx_buffer
  55              		.thumb
  56              		.thumb_func
  57              		.type	update_rx_buffer, %function
  58              	update_rx_buffer:
  59              	.LFB65:
  28:pk_serialfuncs.c **** }
  29:pk_serialfuncs.c **** 
  30:pk_serialfuncs.c **** Record new_record = {"","",""};
  31:pk_serialfuncs.c **** 
  32:pk_serialfuncs.c **** // Serial Main Menu
  33:pk_serialfuncs.c **** SerialMenu main_menu = {
  34:pk_serialfuncs.c ****     3,
  35:pk_serialfuncs.c ****     "Main Menu",
  36:pk_serialfuncs.c ****     {
  37:pk_serialfuncs.c ****         "Add new record",
  38:pk_serialfuncs.c ****         "View all records",
  39:pk_serialfuncs.c ****         "Clear Password DB"
  40:pk_serialfuncs.c ****     }
  41:pk_serialfuncs.c **** };
  42:pk_serialfuncs.c **** 
  43:pk_serialfuncs.c **** // password creation menu
  44:pk_serialfuncs.c **** SerialMenu pass_menu = {
  45:pk_serialfuncs.c ****     2,
  46:pk_serialfuncs.c ****     "Password Menu",
  47:pk_serialfuncs.c ****     {
  48:pk_serialfuncs.c ****         "Enter Password",
  49:pk_serialfuncs.c ****         "Generate Password"
  50:pk_serialfuncs.c ****     }
  51:pk_serialfuncs.c **** };
  52:pk_serialfuncs.c **** 
  53:pk_serialfuncs.c **** void update_rx_buffer(char to_add) {
  60              		.loc 1 53 0
  61              		.cfi_startproc
ARM GAS  C:\Users\bkettle\AppData\Local\Temp\ccgGow7g.s 			page 3


  62              		@ args = 0, pretend = 0, frame = 8
  63              		@ frame_needed = 0, uses_anonymous_args = 0
  64              	.LVL1:
  65 0000 00B5     		push	{lr}
  66              		.cfi_def_cfa_offset 4
  67              		.cfi_offset 14, -4
  68 0002 83B0     		sub	sp, sp, #12
  69              		.cfi_def_cfa_offset 16
  54:pk_serialfuncs.c ****     char str_to_add[2] = {to_add, 0};
  70              		.loc 1 54 0
  71 0004 8DF80400 		strb	r0, [sp, #4]
  72 0008 0023     		movs	r3, #0
  73 000a 8DF80530 		strb	r3, [sp, #5]
  55:pk_serialfuncs.c ****     strcat(rx_buffer, str_to_add);
  74              		.loc 1 55 0
  75 000e 01A9     		add	r1, sp, #4
  76 0010 0248     		ldr	r0, .L7
  77              	.LVL2:
  78 0012 FFF7FEFF 		bl	strcat
  79              	.LVL3:
  56:pk_serialfuncs.c **** }
  80              		.loc 1 56 0
  81 0016 03B0     		add	sp, sp, #12
  82              		.cfi_def_cfa_offset 4
  83              		@ sp needed
  84 0018 5DF804FB 		ldr	pc, [sp], #4
  85              	.L8:
  86              		.align	2
  87              	.L7:
  88 001c 00000000 		.word	rx_buffer
  89              		.cfi_endproc
  90              	.LFE65:
  91              		.size	update_rx_buffer, .-update_rx_buffer
  92              		.section	.text.serial_print_menu,"ax",%progbits
  93              		.align	2
  94              		.global	serial_print_menu
  95              		.thumb
  96              		.thumb_func
  97              		.type	serial_print_menu, %function
  98              	serial_print_menu:
  99              	.LFB66:
  57:pk_serialfuncs.c **** 
  58:pk_serialfuncs.c **** void serial_print_menu(SerialMenu menu) {
 100              		.loc 1 58 0
 101              		.cfi_startproc
 102              		@ args = 224, pretend = 16, frame = 8
 103              		@ frame_needed = 0, uses_anonymous_args = 0
 104 0000 84B0     		sub	sp, sp, #16
 105              		.cfi_def_cfa_offset 16
 106 0002 10B5     		push	{r4, lr}
 107              		.cfi_def_cfa_offset 24
 108              		.cfi_offset 4, -24
 109              		.cfi_offset 14, -20
 110 0004 82B0     		sub	sp, sp, #8
 111              		.cfi_def_cfa_offset 32
 112 0006 04AC     		add	r4, sp, #16
 113 0008 84E80F00 		stmia	r4, {r0, r1, r2, r3}
ARM GAS  C:\Users\bkettle\AppData\Local\Temp\ccgGow7g.s 			page 4


  59:pk_serialfuncs.c ****     USB_print("\n\r");
 114              		.loc 1 59 0
 115 000c 1748     		ldr	r0, .L13
 116 000e FFF7FEFF 		bl	USB_print
 117              	.LVL4:
  60:pk_serialfuncs.c ****     USB_print(menu.title);
 118              		.loc 1 60 0
 119 0012 05A8     		add	r0, sp, #20
 120 0014 FFF7FEFF 		bl	USB_print
 121              	.LVL5:
  61:pk_serialfuncs.c ****     USB_print(":\n\r");
 122              		.loc 1 61 0
 123 0018 1548     		ldr	r0, .L13+4
 124 001a FFF7FEFF 		bl	USB_print
 125              	.LVL6:
 126              	.LBB2:
  62:pk_serialfuncs.c ****     for (int i = 0; i<menu.size; i++) {
 127              		.loc 1 62 0
 128 001e 0024     		movs	r4, #0
 129 0020 18E0     		b	.L10
 130              	.LVL7:
 131              	.L11:
 132              	.LBB3:
  63:pk_serialfuncs.c ****         // print item number (max of 9 items)
  64:pk_serialfuncs.c ****         // just does it by ascii conversion
  65:pk_serialfuncs.c ****         char itemnum[2] = {(char) (i + 0x31), 0};
 133              		.loc 1 65 0 discriminator 3
 134 0022 04F13103 		add	r3, r4, #49
 135 0026 8DF80430 		strb	r3, [sp, #4]
 136 002a 0023     		movs	r3, #0
 137 002c 8DF80530 		strb	r3, [sp, #5]
  66:pk_serialfuncs.c ****         USB_print(itemnum);
 138              		.loc 1 66 0 discriminator 3
 139 0030 01A8     		add	r0, sp, #4
 140 0032 FFF7FEFF 		bl	USB_print
 141              	.LVL8:
  67:pk_serialfuncs.c ****         USB_print(". ");
 142              		.loc 1 67 0 discriminator 3
 143 0036 0F48     		ldr	r0, .L13+8
 144 0038 FFF7FEFF 		bl	USB_print
 145              	.LVL9:
  68:pk_serialfuncs.c ****         USB_print(menu.items[i]);
 146              		.loc 1 68 0 discriminator 3
 147 003c 04EB8403 		add	r3, r4, r4, lsl #2
 148 0040 9800     		lsls	r0, r3, #2
 149 0042 1830     		adds	r0, r0, #24
 150 0044 04AB     		add	r3, sp, #16
 151 0046 1844     		add	r0, r0, r3
 152 0048 FFF7FEFF 		bl	USB_print
 153              	.LVL10:
  69:pk_serialfuncs.c ****         USB_print("\n\r");
 154              		.loc 1 69 0 discriminator 3
 155 004c 0748     		ldr	r0, .L13
 156 004e FFF7FEFF 		bl	USB_print
 157              	.LVL11:
 158              	.LBE3:
  62:pk_serialfuncs.c ****         // print item number (max of 9 items)
ARM GAS  C:\Users\bkettle\AppData\Local\Temp\ccgGow7g.s 			page 5


 159              		.loc 1 62 0 discriminator 3
 160 0052 0134     		adds	r4, r4, #1
 161              	.LVL12:
 162              	.L10:
  62:pk_serialfuncs.c ****         // print item number (max of 9 items)
 163              		.loc 1 62 0 is_stmt 0 discriminator 1
 164 0054 049B     		ldr	r3, [sp, #16]
 165 0056 9C42     		cmp	r4, r3
 166 0058 E3DB     		blt	.L11
 167              	.LBE2:
  70:pk_serialfuncs.c ****     }
  71:pk_serialfuncs.c ****     USB_print("\n\rEnter the choice you want: ");
 168              		.loc 1 71 0 is_stmt 1
 169 005a 0748     		ldr	r0, .L13+12
 170 005c FFF7FEFF 		bl	USB_print
 171              	.LVL13:
  72:pk_serialfuncs.c **** }
 172              		.loc 1 72 0
 173 0060 02B0     		add	sp, sp, #8
 174              		.cfi_def_cfa_offset 24
 175              		@ sp needed
 176 0062 BDE81040 		pop	{r4, lr}
 177              		.cfi_restore 14
 178              		.cfi_restore 4
 179              		.cfi_def_cfa_offset 16
 180              	.LVL14:
 181 0066 04B0     		add	sp, sp, #16
 182              		.cfi_def_cfa_offset 0
 183 0068 7047     		bx	lr
 184              	.L14:
 185 006a 00BF     		.align	2
 186              	.L13:
 187 006c 00000000 		.word	.LC1
 188 0070 04000000 		.word	.LC2
 189 0074 08000000 		.word	.LC3
 190 0078 0C000000 		.word	.LC4
 191              		.cfi_endproc
 192              	.LFE66:
 193              		.size	serial_print_menu, .-serial_print_menu
 194              		.section	.text.serial_print_record,"ax",%progbits
 195              		.align	2
 196              		.global	serial_print_record
 197              		.thumb
 198              		.thumb_func
 199              		.type	serial_print_record, %function
 200              	serial_print_record:
 201              	.LFB67:
  73:pk_serialfuncs.c **** 
  74:pk_serialfuncs.c **** void serial_print_record(Record record) {
 202              		.loc 1 74 0
 203              		.cfi_startproc
 204              		@ args = 96, pretend = 16, frame = 32
 205              		@ frame_needed = 0, uses_anonymous_args = 0
 206 0000 84B0     		sub	sp, sp, #16
 207              		.cfi_def_cfa_offset 16
 208 0002 00B5     		push	{lr}
 209              		.cfi_def_cfa_offset 20
ARM GAS  C:\Users\bkettle\AppData\Local\Temp\ccgGow7g.s 			page 6


 210              		.cfi_offset 14, -20
 211 0004 89B0     		sub	sp, sp, #36
 212              		.cfi_def_cfa_offset 56
 213 0006 0DF1280E 		add	lr, sp, #40
 214 000a 8EE80F00 		stmia	lr, {r0, r1, r2, r3}
  75:pk_serialfuncs.c ****     // prints a record's info to the serial monitor in a nice way
  76:pk_serialfuncs.c ****     USB_print("\n\r\n\r   ");
 215              		.loc 1 76 0
 216 000e 1B48     		ldr	r0, .L19
 217 0010 FFF7FEFF 		bl	USB_print
 218              	.LVL15:
  77:pk_serialfuncs.c ****     char star_line[30] = {0};
 219              		.loc 1 77 0
 220 0014 1E22     		movs	r2, #30
 221 0016 0021     		movs	r1, #0
 222 0018 6846     		mov	r0, sp
 223 001a FFF7FEFF 		bl	memset
 224              	.LVL16:
 225              	.LBB4:
  78:pk_serialfuncs.c ****     for (int i=0; i<29; i++) {
 226              		.loc 1 78 0
 227 001e 0023     		movs	r3, #0
 228 0020 05E0     		b	.L16
 229              	.LVL17:
 230              	.L17:
  79:pk_serialfuncs.c ****         star_line[i] = '*';
 231              		.loc 1 79 0 discriminator 3
 232 0022 08AA     		add	r2, sp, #32
 233 0024 1A44     		add	r2, r2, r3
 234 0026 2A21     		movs	r1, #42
 235 0028 02F8201C 		strb	r1, [r2, #-32]
  78:pk_serialfuncs.c ****     for (int i=0; i<29; i++) {
 236              		.loc 1 78 0 discriminator 3
 237 002c 0133     		adds	r3, r3, #1
 238              	.LVL18:
 239              	.L16:
  78:pk_serialfuncs.c ****     for (int i=0; i<29; i++) {
 240              		.loc 1 78 0 is_stmt 0 discriminator 1
 241 002e 1C2B     		cmp	r3, #28
 242 0030 F7DD     		ble	.L17
 243              	.LBE4:
  80:pk_serialfuncs.c ****     }
  81:pk_serialfuncs.c ****     star_line[29] = 0;
 244              		.loc 1 81 0 is_stmt 1
 245 0032 0023     		movs	r3, #0
 246              	.LVL19:
 247 0034 8DF81D30 		strb	r3, [sp, #29]
  82:pk_serialfuncs.c ****     USB_print(star_line);
 248              		.loc 1 82 0
 249 0038 6846     		mov	r0, sp
 250 003a FFF7FEFF 		bl	USB_print
 251              	.LVL20:
  83:pk_serialfuncs.c ****     USB_print("\n\r   * Title: ");
 252              		.loc 1 83 0
 253 003e 1048     		ldr	r0, .L19+4
 254 0040 FFF7FEFF 		bl	USB_print
 255              	.LVL21:
ARM GAS  C:\Users\bkettle\AppData\Local\Temp\ccgGow7g.s 			page 7


  84:pk_serialfuncs.c ****     USB_print(record.title);
 256              		.loc 1 84 0
 257 0044 0AA8     		add	r0, sp, #40
 258 0046 FFF7FEFF 		bl	USB_print
 259              	.LVL22:
  85:pk_serialfuncs.c ****     USB_print("\n\r   * Username: ");
 260              		.loc 1 85 0
 261 004a 0E48     		ldr	r0, .L19+8
 262 004c FFF7FEFF 		bl	USB_print
 263              	.LVL23:
  86:pk_serialfuncs.c ****     USB_print(record.username);
 264              		.loc 1 86 0
 265 0050 0DF13200 		add	r0, sp, #50
 266 0054 FFF7FEFF 		bl	USB_print
 267              	.LVL24:
  87:pk_serialfuncs.c ****     USB_print("\n\r   * Password: ");
 268              		.loc 1 87 0
 269 0058 0B48     		ldr	r0, .L19+12
 270 005a FFF7FEFF 		bl	USB_print
 271              	.LVL25:
  88:pk_serialfuncs.c ****     USB_print(record.password);
 272              		.loc 1 88 0
 273 005e 0DF15A00 		add	r0, sp, #90
 274 0062 FFF7FEFF 		bl	USB_print
 275              	.LVL26:
  89:pk_serialfuncs.c ****     USB_print("\n\r   ");
 276              		.loc 1 89 0
 277 0066 0948     		ldr	r0, .L19+16
 278 0068 FFF7FEFF 		bl	USB_print
 279              	.LVL27:
  90:pk_serialfuncs.c ****     USB_print(star_line);
 280              		.loc 1 90 0
 281 006c 6846     		mov	r0, sp
 282 006e FFF7FEFF 		bl	USB_print
 283              	.LVL28:
  91:pk_serialfuncs.c **** }
 284              		.loc 1 91 0
 285 0072 09B0     		add	sp, sp, #36
 286              		.cfi_def_cfa_offset 20
 287              		@ sp needed
 288 0074 5DF804EB 		ldr	lr, [sp], #4
 289              		.cfi_restore 14
 290              		.cfi_def_cfa_offset 16
 291 0078 04B0     		add	sp, sp, #16
 292              		.cfi_def_cfa_offset 0
 293 007a 7047     		bx	lr
 294              	.L20:
 295              		.align	2
 296              	.L19:
 297 007c 2C000000 		.word	.LC5
 298 0080 34000000 		.word	.LC6
 299 0084 44000000 		.word	.LC7
 300 0088 58000000 		.word	.LC8
 301 008c 6C000000 		.word	.LC9
 302              		.cfi_endproc
 303              	.LFE67:
 304              		.size	serial_print_record, .-serial_print_record
ARM GAS  C:\Users\bkettle\AppData\Local\Temp\ccgGow7g.s 			page 8


 305              		.section	.text.serial_printAllRecords,"ax",%progbits
 306              		.align	2
 307              		.global	serial_printAllRecords
 308              		.thumb
 309              		.thumb_func
 310              		.type	serial_printAllRecords, %function
 311              	serial_printAllRecords:
 312              	.LFB68:
  92:pk_serialfuncs.c **** 
  93:pk_serialfuncs.c **** void serial_printAllRecords() {
 313              		.loc 1 93 0
 314              		.cfi_startproc
 315              		@ args = 0, pretend = 0, frame = 96
 316              		@ frame_needed = 0, uses_anonymous_args = 0
 317 0000 70B5     		push	{r4, r5, r6, lr}
 318              		.cfi_def_cfa_offset 16
 319              		.cfi_offset 4, -16
 320              		.cfi_offset 5, -12
 321              		.cfi_offset 6, -8
 322              		.cfi_offset 14, -4
 323 0002 ACB0     		sub	sp, sp, #176
 324              		.cfi_def_cfa_offset 192
  94:pk_serialfuncs.c ****     // prints all records on the sd card
  95:pk_serialfuncs.c ****     int sd_size = SD_getNumRecords();
 325              		.loc 1 95 0
 326 0004 FFF7FEFF 		bl	SD_getNumRecords
 327              	.LVL29:
 328 0008 0646     		mov	r6, r0
 329              	.LVL30:
 330              	.LBB5:
  96:pk_serialfuncs.c ****     Record curr; // holds the current record to be printed
  97:pk_serialfuncs.c ****     for (int i=0; i<sd_size; i++) {
 331              		.loc 1 97 0
 332 000a 0025     		movs	r5, #0
 333 000c 0FE0     		b	.L22
 334              	.LVL31:
 335              	.L23:
  98:pk_serialfuncs.c ****         SD_readRecords(i, 1, &curr);
 336              		.loc 1 98 0 discriminator 3
 337 000e 14AC     		add	r4, sp, #80
 338 0010 2246     		mov	r2, r4
 339 0012 0121     		movs	r1, #1
 340 0014 2846     		mov	r0, r5
 341 0016 FFF7FEFF 		bl	SD_readRecords
 342              	.LVL32:
  99:pk_serialfuncs.c ****         serial_print_record(curr);
 343              		.loc 1 99 0 discriminator 3
 344 001a 5022     		movs	r2, #80
 345 001c 18A9     		add	r1, sp, #96
 346 001e 6846     		mov	r0, sp
 347 0020 FFF7FEFF 		bl	memcpy
 348              	.LVL33:
 349 0024 94E80F00 		ldmia	r4, {r0, r1, r2, r3}
 350 0028 FFF7FEFF 		bl	serial_print_record
 351              	.LVL34:
  97:pk_serialfuncs.c ****         SD_readRecords(i, 1, &curr);
 352              		.loc 1 97 0 discriminator 3
ARM GAS  C:\Users\bkettle\AppData\Local\Temp\ccgGow7g.s 			page 9


 353 002c 0135     		adds	r5, r5, #1
 354              	.LVL35:
 355              	.L22:
  97:pk_serialfuncs.c ****         SD_readRecords(i, 1, &curr);
 356              		.loc 1 97 0 is_stmt 0 discriminator 1
 357 002e B542     		cmp	r5, r6
 358 0030 EDDB     		blt	.L23
 359              	.LBE5:
 100:pk_serialfuncs.c ****     }
 101:pk_serialfuncs.c **** }
 360              		.loc 1 101 0 is_stmt 1
 361 0032 2CB0     		add	sp, sp, #176
 362              		.cfi_def_cfa_offset 16
 363              		@ sp needed
 364 0034 70BD     		pop	{r4, r5, r6, pc}
 365              		.cfi_endproc
 366              	.LFE68:
 367              		.size	serial_printAllRecords, .-serial_printAllRecords
 368 0036 00BF     		.section	.text.serial_inv_cmd,"ax",%progbits
 369              		.align	2
 370              		.global	serial_inv_cmd
 371              		.thumb
 372              		.thumb_func
 373              		.type	serial_inv_cmd, %function
 374              	serial_inv_cmd:
 375              	.LFB69:
 102:pk_serialfuncs.c **** 
 103:pk_serialfuncs.c **** void serial_inv_cmd() {
 376              		.loc 1 103 0
 377              		.cfi_startproc
 378              		@ args = 0, pretend = 0, frame = 0
 379              		@ frame_needed = 0, uses_anonymous_args = 0
 380 0000 08B5     		push	{r3, lr}
 381              		.cfi_def_cfa_offset 8
 382              		.cfi_offset 3, -8
 383              		.cfi_offset 14, -4
 104:pk_serialfuncs.c ****     USB_print("\n\rInvalid Command!");
 384              		.loc 1 104 0
 385 0002 0248     		ldr	r0, .L27
 386 0004 FFF7FEFF 		bl	USB_print
 387              	.LVL36:
 388 0008 08BD     		pop	{r3, pc}
 389              	.L28:
 390 000a 00BF     		.align	2
 391              	.L27:
 392 000c 74000000 		.word	.LC10
 393              		.cfi_endproc
 394              	.LFE69:
 395              		.size	serial_inv_cmd, .-serial_inv_cmd
 396              		.section	.text.serial_printHex,"ax",%progbits
 397              		.align	2
 398              		.global	serial_printHex
 399              		.thumb
 400              		.thumb_func
 401              		.type	serial_printHex, %function
 402              	serial_printHex:
 403              	.LFB70:
ARM GAS  C:\Users\bkettle\AppData\Local\Temp\ccgGow7g.s 			page 10


 105:pk_serialfuncs.c **** }
 106:pk_serialfuncs.c **** 
 107:pk_serialfuncs.c **** // print hex of a char array
 108:pk_serialfuncs.c **** void serial_printHex(unsigned char * arr, size_t size) {
 404              		.loc 1 108 0
 405              		.cfi_startproc
 406              		@ args = 0, pretend = 0, frame = 8
 407              		@ frame_needed = 0, uses_anonymous_args = 0
 408              	.LVL37:
 409 0000 70B5     		push	{r4, r5, r6, lr}
 410              		.cfi_def_cfa_offset 16
 411              		.cfi_offset 4, -16
 412              		.cfi_offset 5, -12
 413              		.cfi_offset 6, -8
 414              		.cfi_offset 14, -4
 415 0002 82B0     		sub	sp, sp, #8
 416              		.cfi_def_cfa_offset 24
 417 0004 0646     		mov	r6, r0
 418 0006 0D46     		mov	r5, r1
 109:pk_serialfuncs.c ****     char tp[3]; //holds things to be printed
 110:pk_serialfuncs.c ****     USB_print("0x");
 419              		.loc 1 110 0
 420 0008 0A48     		ldr	r0, .L33
 421              	.LVL38:
 422 000a FFF7FEFF 		bl	USB_print
 423              	.LVL39:
 424              	.LBB6:
 111:pk_serialfuncs.c ****     for (uint i=0; i<size; i++) {
 425              		.loc 1 111 0
 426 000e 0024     		movs	r4, #0
 427 0010 08E0     		b	.L30
 428              	.LVL40:
 429              	.L31:
 112:pk_serialfuncs.c ****         sprintf(tp, "%X", arr[i]);
 430              		.loc 1 112 0 discriminator 3
 431 0012 325D     		ldrb	r2, [r6, r4]	@ zero_extendqisi2
 432 0014 0849     		ldr	r1, .L33+4
 433 0016 01A8     		add	r0, sp, #4
 434 0018 FFF7FEFF 		bl	sprintf
 435              	.LVL41:
 113:pk_serialfuncs.c ****         USB_print(tp);
 436              		.loc 1 113 0 discriminator 3
 437 001c 01A8     		add	r0, sp, #4
 438 001e FFF7FEFF 		bl	USB_print
 439              	.LVL42:
 111:pk_serialfuncs.c ****     for (uint i=0; i<size; i++) {
 440              		.loc 1 111 0 discriminator 3
 441 0022 0134     		adds	r4, r4, #1
 442              	.LVL43:
 443              	.L30:
 111:pk_serialfuncs.c ****     for (uint i=0; i<size; i++) {
 444              		.loc 1 111 0 is_stmt 0 discriminator 1
 445 0024 AC42     		cmp	r4, r5
 446 0026 F4D3     		bcc	.L31
 447              	.LBE6:
 114:pk_serialfuncs.c ****     }
 115:pk_serialfuncs.c ****     USB_print(" ");
ARM GAS  C:\Users\bkettle\AppData\Local\Temp\ccgGow7g.s 			page 11


 448              		.loc 1 115 0 is_stmt 1
 449 0028 0448     		ldr	r0, .L33+8
 450 002a FFF7FEFF 		bl	USB_print
 451              	.LVL44:
 116:pk_serialfuncs.c **** }
 452              		.loc 1 116 0
 453 002e 02B0     		add	sp, sp, #8
 454              		.cfi_def_cfa_offset 16
 455              		@ sp needed
 456 0030 70BD     		pop	{r4, r5, r6, pc}
 457              	.LVL45:
 458              	.L34:
 459 0032 00BF     		.align	2
 460              	.L33:
 461 0034 88000000 		.word	.LC11
 462 0038 8C000000 		.word	.LC12
 463 003c 90000000 		.word	.LC13
 464              		.cfi_endproc
 465              	.LFE70:
 466              		.size	serial_printHex, .-serial_printHex
 467              		.section	.text.generate_password,"ax",%progbits
 468              		.align	2
 469              		.global	generate_password
 470              		.thumb
 471              		.thumb_func
 472              		.type	generate_password, %function
 473              	generate_password:
 474              	.LFB71:
 117:pk_serialfuncs.c **** 
 118:pk_serialfuncs.c **** // generate a password
 119:pk_serialfuncs.c **** void generate_password(char* out) {
 475              		.loc 1 119 0
 476              		.cfi_startproc
 477              		@ args = 0, pretend = 0, frame = 0
 478              		@ frame_needed = 0, uses_anonymous_args = 0
 479              	.LVL46:
 480 0000 38B5     		push	{r3, r4, r5, lr}
 481              		.cfi_def_cfa_offset 16
 482              		.cfi_offset 3, -16
 483              		.cfi_offset 4, -12
 484              		.cfi_offset 5, -8
 485              		.cfi_offset 14, -4
 486 0002 0546     		mov	r5, r0
 487              	.LVL47:
 488              	.LBB7:
 120:pk_serialfuncs.c ****     /* generate a 16-character ascii
 121:pk_serialfuncs.c ****         password using the PRS component
 122:pk_serialfuncs.c ****     */
 123:pk_serialfuncs.c ****     char current_char = 0;
 124:pk_serialfuncs.c ****     for (int i = 0; i<16; i++) {
 489              		.loc 1 124 0
 490 0004 0024     		movs	r4, #0
 491 0006 11E0     		b	.L36
 492              	.LVL48:
 493              	.L39:
 125:pk_serialfuncs.c ****         current_char = (char) PRS_Read();
 494              		.loc 1 125 0
ARM GAS  C:\Users\bkettle\AppData\Local\Temp\ccgGow7g.s 			page 12


 495 0008 FFF7FEFF 		bl	PRS_Read
 496              	.LVL49:
 497 000c C0B2     		uxtb	r0, r0
 498              	.LVL50:
 126:pk_serialfuncs.c ****         while ((int) current_char < 33 || (int) current_char > 126) {
 499              		.loc 1 126 0
 500 000e 04E0     		b	.L37
 501              	.L38:
 127:pk_serialfuncs.c ****             // if outside of valid range of characters, generate new character
 128:pk_serialfuncs.c ****             // spaces are not allowed, to include them change 33 to 32
 129:pk_serialfuncs.c ****             PRS_Step();
 502              		.loc 1 129 0
 503 0010 FFF7FEFF 		bl	PRS_Step
 504              	.LVL51:
 130:pk_serialfuncs.c ****             current_char = (char) PRS_Read();
 505              		.loc 1 130 0
 506 0014 FFF7FEFF 		bl	PRS_Read
 507              	.LVL52:
 508 0018 C0B2     		uxtb	r0, r0
 509              	.LVL53:
 510              	.L37:
 126:pk_serialfuncs.c ****         while ((int) current_char < 33 || (int) current_char > 126) {
 511              		.loc 1 126 0
 512 001a A0F12103 		sub	r3, r0, #33
 513 001e DBB2     		uxtb	r3, r3
 514 0020 5D2B     		cmp	r3, #93
 515 0022 F5D8     		bhi	.L38
 131:pk_serialfuncs.c ****         }
 132:pk_serialfuncs.c ****         out[i] = current_char;
 516              		.loc 1 132 0 discriminator 2
 517 0024 2855     		strb	r0, [r5, r4]
 133:pk_serialfuncs.c ****         // move to next PRS value
 134:pk_serialfuncs.c ****         PRS_Step();
 518              		.loc 1 134 0 discriminator 2
 519 0026 FFF7FEFF 		bl	PRS_Step
 520              	.LVL54:
 124:pk_serialfuncs.c ****         current_char = (char) PRS_Read();
 521              		.loc 1 124 0 discriminator 2
 522 002a 0134     		adds	r4, r4, #1
 523              	.LVL55:
 524              	.L36:
 124:pk_serialfuncs.c ****         current_char = (char) PRS_Read();
 525              		.loc 1 124 0 is_stmt 0 discriminator 1
 526 002c 0F2C     		cmp	r4, #15
 527 002e EBDD     		ble	.L39
 528              	.LBE7:
 135:pk_serialfuncs.c ****     }
 136:pk_serialfuncs.c ****     out[16] = 0; // null terminate password
 529              		.loc 1 136 0 is_stmt 1
 530 0030 0023     		movs	r3, #0
 531 0032 2B74     		strb	r3, [r5, #16]
 532 0034 38BD     		pop	{r3, r4, r5, pc}
 533              		.cfi_endproc
 534              	.LFE71:
 535              		.size	generate_password, .-generate_password
 536 0036 00BF     		.section	.text.serial_print_dt,"ax",%progbits
 537              		.align	2
ARM GAS  C:\Users\bkettle\AppData\Local\Temp\ccgGow7g.s 			page 13


 538              		.global	serial_print_dt
 539              		.thumb
 540              		.thumb_func
 541              		.type	serial_print_dt, %function
 542              	serial_print_dt:
 543              	.LFB72:
 137:pk_serialfuncs.c **** }
 138:pk_serialfuncs.c **** 
 139:pk_serialfuncs.c **** // for the rtc, just debugging stuff
 140:pk_serialfuncs.c **** void serial_print_dt(DateTime dt) {
 544              		.loc 1 140 0
 545              		.cfi_startproc
 546              		@ args = 0, pretend = 0, frame = 48
 547              		@ frame_needed = 0, uses_anonymous_args = 0
 548 0000 2DE9F047 		push	{r4, r5, r6, r7, r8, r9, r10, lr}
 549              		.cfi_def_cfa_offset 32
 550              		.cfi_offset 4, -32
 551              		.cfi_offset 5, -28
 552              		.cfi_offset 6, -24
 553              		.cfi_offset 7, -20
 554              		.cfi_offset 8, -16
 555              		.cfi_offset 9, -12
 556              		.cfi_offset 10, -8
 557              		.cfi_offset 14, -4
 558 0004 92B0     		sub	sp, sp, #72
 559              		.cfi_def_cfa_offset 104
 560 0006 06AC     		add	r4, sp, #24
 561 0008 84E80300 		stmia	r4, {r0, r1}
 141:pk_serialfuncs.c ****     USB_print("\n\rdatetime: ");
 562              		.loc 1 141 0
 563 000c 1C48     		ldr	r0, .L43
 564 000e FFF7FEFF 		bl	USB_print
 565              	.LVL56:
 142:pk_serialfuncs.c ****     char to_send[40];
 143:pk_serialfuncs.c ****     sprintf(to_send, "%d-%d-%d %d:%d:%2.0d unix: %d", dt_getYear(dt), \
 566              		.loc 1 143 0
 567 0012 94E80300 		ldmia	r4, {r0, r1}
 568 0016 FFF7FEFF 		bl	dt_getYear
 569              	.LVL57:
 570 001a 0546     		mov	r5, r0
 144:pk_serialfuncs.c ****         dt_getMonth(dt), dt_getDay(dt), dt_getHour(dt), \
 571              		.loc 1 144 0
 572 001c 94E80300 		ldmia	r4, {r0, r1}
 573 0020 FFF7FEFF 		bl	dt_getMonth
 574              	.LVL58:
 575 0024 0646     		mov	r6, r0
 576 0026 94E80300 		ldmia	r4, {r0, r1}
 577 002a FFF7FEFF 		bl	dt_getDay
 578              	.LVL59:
 579 002e 0746     		mov	r7, r0
 580 0030 94E80300 		ldmia	r4, {r0, r1}
 581 0034 FFF7FEFF 		bl	dt_getHour
 582              	.LVL60:
 583 0038 8046     		mov	r8, r0
 145:pk_serialfuncs.c ****         dt_getMinute(dt), dt_getSecond(dt), dt_getUnixtime(dt));
 584              		.loc 1 145 0
 585 003a 94E80300 		ldmia	r4, {r0, r1}
ARM GAS  C:\Users\bkettle\AppData\Local\Temp\ccgGow7g.s 			page 14


 586 003e FFF7FEFF 		bl	dt_getMinute
 587              	.LVL61:
 588 0042 8146     		mov	r9, r0
 589 0044 94E80300 		ldmia	r4, {r0, r1}
 590 0048 FFF7FEFF 		bl	dt_getSecond
 591              	.LVL62:
 592 004c 8246     		mov	r10, r0
 143:pk_serialfuncs.c ****         dt_getMonth(dt), dt_getDay(dt), dt_getHour(dt), \
 593              		.loc 1 143 0
 594 004e 94E80300 		ldmia	r4, {r0, r1}
 595 0052 FFF7FEFF 		bl	dt_getUnixtime
 596              	.LVL63:
 597 0056 0490     		str	r0, [sp, #16]
 598 0058 CDF80CA0 		str	r10, [sp, #12]
 599 005c CDF80890 		str	r9, [sp, #8]
 600 0060 CDF80480 		str	r8, [sp, #4]
 601 0064 0097     		str	r7, [sp]
 602 0066 3346     		mov	r3, r6
 603 0068 2A46     		mov	r2, r5
 604 006a 0649     		ldr	r1, .L43+4
 605 006c 08A8     		add	r0, sp, #32
 606 006e FFF7FEFF 		bl	sprintf
 607              	.LVL64:
 146:pk_serialfuncs.c ****     USB_print(to_send);
 608              		.loc 1 146 0
 609 0072 08A8     		add	r0, sp, #32
 610 0074 FFF7FEFF 		bl	USB_print
 611              	.LVL65:
 147:pk_serialfuncs.c **** }
 612              		.loc 1 147 0
 613 0078 12B0     		add	sp, sp, #72
 614              		.cfi_def_cfa_offset 32
 615              		@ sp needed
 616 007a BDE8F087 		pop	{r4, r5, r6, r7, r8, r9, r10, pc}
 617              	.L44:
 618 007e 00BF     		.align	2
 619              	.L43:
 620 0080 94000000 		.word	.LC14
 621 0084 A4000000 		.word	.LC15
 622              		.cfi_endproc
 623              	.LFE72:
 624              		.size	serial_print_dt, .-serial_print_dt
 625              		.section	.text.serial_menu_init,"ax",%progbits
 626              		.align	2
 627              		.global	serial_menu_init
 628              		.thumb
 629              		.thumb_func
 630              		.type	serial_menu_init, %function
 631              	serial_menu_init:
 632              	.LFB73:
 148:pk_serialfuncs.c **** 
 149:pk_serialfuncs.c **** // this ISR is unnecessary because we don't use the UART
 150:pk_serialfuncs.c **** // anymore. Need to handle USB Serial commands another way
 151:pk_serialfuncs.c **** // though.
 152:pk_serialfuncs.c **** // Input is now handled by pk_usb USB_handleInput,
 153:pk_serialfuncs.c **** // this is just here for fun
 154:pk_serialfuncs.c **** //CY_ISR(RX_INT) {
ARM GAS  C:\Users\bkettle\AppData\Local\Temp\ccgGow7g.s 			page 15


 155:pk_serialfuncs.c **** //    char rec_char = UART_1_ReadRxData();
 156:pk_serialfuncs.c **** //    if (rec_char == 0xD) {
 157:pk_serialfuncs.c **** //        // move buffer into last_serial_cmd on enter
 158:pk_serialfuncs.c **** //        strcpy(last_serial_cmd, rx_buffer);
 159:pk_serialfuncs.c **** //        clr_rx_buffer();
 160:pk_serialfuncs.c **** //    }       
 161:pk_serialfuncs.c **** //    else {
 162:pk_serialfuncs.c **** //        UART_1_PutChar(rec_char);    // echo recieved character
 163:pk_serialfuncs.c **** //        // add non-enter characters to rx buffer
 164:pk_serialfuncs.c **** //        rx_buffer[rx_buff_length] = rec_char;
 165:pk_serialfuncs.c **** //        rx_buffer[rx_buff_length + 1] = 0;
 166:pk_serialfuncs.c **** //        rx_buff_length += 1;
 167:pk_serialfuncs.c **** //    }
 168:pk_serialfuncs.c **** //}
 169:pk_serialfuncs.c **** 
 170:pk_serialfuncs.c **** /****************************************
 171:pk_serialfuncs.c **** *         SERIAL MENU FSM               *
 172:pk_serialfuncs.c **** ****************************************/
 173:pk_serialfuncs.c **** 
 174:pk_serialfuncs.c **** // Serial state variables
 175:pk_serialfuncs.c **** int s_main_state = S_MAIN_MENU;
 176:pk_serialfuncs.c **** int s_sec_state = 0; // secondary state
 177:pk_serialfuncs.c **** 
 178:pk_serialfuncs.c **** void serial_menu_init() {
 633              		.loc 1 178 0
 634              		.cfi_startproc
 635              		@ args = 0, pretend = 0, frame = 0
 636              		@ frame_needed = 0, uses_anonymous_args = 0
 637              		@ link register save eliminated.
 179:pk_serialfuncs.c ****     //rx_buff_length = 0;
 180:pk_serialfuncs.c ****     s_main_state = S_STARTUP;
 638              		.loc 1 180 0
 639 0000 0022     		movs	r2, #0
 640 0002 014B     		ldr	r3, .L46
 641 0004 5A60     		str	r2, [r3, #4]
 642 0006 7047     		bx	lr
 643              	.L47:
 644              		.align	2
 645              	.L46:
 646 0008 00000000 		.word	.LANCHOR0
 647              		.cfi_endproc
 648              	.LFE73:
 649              		.size	serial_menu_init, .-serial_menu_init
 650              		.section	.text.serial_fsm,"ax",%progbits
 651              		.align	2
 652              		.global	serial_fsm
 653              		.thumb
 654              		.thumb_func
 655              		.type	serial_fsm, %function
 656              	serial_fsm:
 657              	.LFB74:
 181:pk_serialfuncs.c **** }
 182:pk_serialfuncs.c **** 
 183:pk_serialfuncs.c **** void serial_fsm() {
 658              		.loc 1 183 0
 659              		.cfi_startproc
 660              		@ args = 0, pretend = 0, frame = 24
ARM GAS  C:\Users\bkettle\AppData\Local\Temp\ccgGow7g.s 			page 16


 661              		@ frame_needed = 0, uses_anonymous_args = 0
 662 0000 70B5     		push	{r4, r5, r6, lr}
 663              		.cfi_def_cfa_offset 16
 664              		.cfi_offset 4, -16
 665              		.cfi_offset 5, -12
 666              		.cfi_offset 6, -8
 667              		.cfi_offset 14, -4
 668 0002 BAB0     		sub	sp, sp, #232
 669              		.cfi_def_cfa_offset 248
 184:pk_serialfuncs.c ****     // step to the next random value
 185:pk_serialfuncs.c ****     PRS_Step();
 670              		.loc 1 185 0
 671 0004 FFF7FEFF 		bl	PRS_Step
 672              	.LVL66:
 186:pk_serialfuncs.c ****     // update last_serial_cmd based on input
 187:pk_serialfuncs.c ****     USB_handleInput(last_serial_cmd);
 673              		.loc 1 187 0
 674 0008 AB4C     		ldr	r4, .L77
 675 000a 2046     		mov	r0, r4
 676 000c FFF7FEFF 		bl	USB_handleInput
 677              	.LVL67:
 188:pk_serialfuncs.c ****     
 189:pk_serialfuncs.c ****     LED_Write(last_serial_cmd[0] != 0);
 678              		.loc 1 189 0
 679 0010 2078     		ldrb	r0, [r4]	@ zero_extendqisi2
 680 0012 0030     		adds	r0, r0, #0
 681 0014 18BF     		it	ne
 682 0016 0120     		movne	r0, #1
 683 0018 FFF7FEFF 		bl	LED_Write
 684              	.LVL68:
 190:pk_serialfuncs.c ****     switch (s_main_state) {
 685              		.loc 1 190 0
 686 001c A74B     		ldr	r3, .L77+4
 687 001e 5B68     		ldr	r3, [r3, #4]
 688 0020 032B     		cmp	r3, #3
 689 0022 00F2A481 		bhi	.L48
 690 0026 DFE813F0 		tbh	[pc, r3, lsl #1]
 691              	.L51:
 692 002a 0400     		.2byte	(.L50-.L51)/2
 693 002c 1300     		.2byte	(.L52-.L51)/2
 694 002e 6F00     		.2byte	(.L53-.L51)/2
 695 0030 8701     		.2byte	(.L54-.L51)/2
 696              		.p2align 1
 697              	.L50:
 191:pk_serialfuncs.c ****         case S_WAIT:
 192:pk_serialfuncs.c ****         break;
 193:pk_serialfuncs.c ****         case S_STARTUP:
 194:pk_serialfuncs.c ****             serial_print_menu(main_menu);
 698              		.loc 1 194 0
 699 0032 A24C     		ldr	r4, .L77+4
 700 0034 D022     		movs	r2, #208
 701 0036 04F11801 		add	r1, r4, #24
 702 003a 6846     		mov	r0, sp
 703 003c FFF7FEFF 		bl	memcpy
 704              	.LVL69:
 705 0040 04F10803 		add	r3, r4, #8
 706 0044 0FCB     		ldmia	r3, {r0, r1, r2, r3}
ARM GAS  C:\Users\bkettle\AppData\Local\Temp\ccgGow7g.s 			page 17


 707 0046 FFF7FEFF 		bl	serial_print_menu
 708              	.LVL70:
 195:pk_serialfuncs.c ****             s_main_state = S_MAIN_MENU;
 709              		.loc 1 195 0
 710 004a 0123     		movs	r3, #1
 711 004c 6360     		str	r3, [r4, #4]
 196:pk_serialfuncs.c ****         break;
 712              		.loc 1 196 0
 713 004e 8EE1     		b	.L48
 714              	.L52:
 197:pk_serialfuncs.c ****         case S_MAIN_MENU:
 198:pk_serialfuncs.c ****             if (last_serial_cmd[0] != 0) {
 715              		.loc 1 198 0
 716 0050 994B     		ldr	r3, .L77
 717 0052 1B78     		ldrb	r3, [r3]	@ zero_extendqisi2
 718 0054 002B     		cmp	r3, #0
 719 0056 00F08A81 		beq	.L48
 720              	.LBB8:
 199:pk_serialfuncs.c ****                 int cmd = atoi(last_serial_cmd);
 721              		.loc 1 199 0
 722 005a 9748     		ldr	r0, .L77
 723 005c FFF7FEFF 		bl	atoi
 724              	.LVL71:
 725 0060 0446     		mov	r4, r0
 726              	.LVL72:
 200:pk_serialfuncs.c ****                 switch(cmd) {
 727              		.loc 1 200 0
 728 0062 0328     		cmp	r0, #3
 729 0064 35D8     		bhi	.L55
 730 0066 DFE800F0 		tbb	[pc, r0]
 731              	.L57:
 732 006a 02       		.byte	(.L56-.L57)/2
 733 006b 11       		.byte	(.L58-.L57)/2
 734 006c 1B       		.byte	(.L59-.L57)/2
 735 006d 24       		.byte	(.L60-.L57)/2
 736              		.p2align 1
 737              	.L56:
 201:pk_serialfuncs.c ****                     // first case is if atoi returned 0
 202:pk_serialfuncs.c ****                     // ie letters, etc
 203:pk_serialfuncs.c ****                     case INVALID_CMD:
 204:pk_serialfuncs.c ****                         serial_inv_cmd();
 738              		.loc 1 204 0
 739 006e FFF7FEFF 		bl	serial_inv_cmd
 740              	.LVL73:
 205:pk_serialfuncs.c ****                         serial_print_menu(main_menu);
 741              		.loc 1 205 0
 742 0072 924C     		ldr	r4, .L77+4
 743              	.LVL74:
 744 0074 D022     		movs	r2, #208
 745 0076 04F11801 		add	r1, r4, #24
 746 007a 6846     		mov	r0, sp
 747 007c FFF7FEFF 		bl	memcpy
 748              	.LVL75:
 749 0080 04F10803 		add	r3, r4, #8
 750 0084 0FCB     		ldmia	r3, {r0, r1, r2, r3}
 751 0086 FFF7FEFF 		bl	serial_print_menu
 752              	.LVL76:
ARM GAS  C:\Users\bkettle\AppData\Local\Temp\ccgGow7g.s 			page 18


 206:pk_serialfuncs.c ****                     break;
 753              		.loc 1 206 0
 754 008a 3AE0     		b	.L61
 755              	.LVL77:
 756              	.L58:
 207:pk_serialfuncs.c ****                     case S_MAIN_ADD:
 208:pk_serialfuncs.c ****                         s_main_state = S_ADD_RECORD;
 757              		.loc 1 208 0
 758 008c 0222     		movs	r2, #2
 759 008e 8B4B     		ldr	r3, .L77+4
 760 0090 5A60     		str	r2, [r3, #4]
 209:pk_serialfuncs.c ****                         s_sec_state = ADD_REC_START;
 761              		.loc 1 209 0
 762 0092 0022     		movs	r2, #0
 763 0094 8A4B     		ldr	r3, .L77+8
 764 0096 1A60     		str	r2, [r3]
 210:pk_serialfuncs.c ****                         USB_print("\n\rAdd record...");
 765              		.loc 1 210 0
 766 0098 8A48     		ldr	r0, .L77+12
 767              	.LVL78:
 768 009a FFF7FEFF 		bl	USB_print
 769              	.LVL79:
 211:pk_serialfuncs.c ****                     break;
 770              		.loc 1 211 0
 771 009e 30E0     		b	.L61
 772              	.LVL80:
 773              	.L59:
 212:pk_serialfuncs.c ****                     case S_MAIN_VIEW:
 213:pk_serialfuncs.c ****                         s_main_state = S_STARTUP;
 774              		.loc 1 213 0
 775 00a0 0022     		movs	r2, #0
 776 00a2 864B     		ldr	r3, .L77+4
 777 00a4 5A60     		str	r2, [r3, #4]
 214:pk_serialfuncs.c ****                         USB_print("\n\rView All Records...");
 778              		.loc 1 214 0
 779 00a6 8848     		ldr	r0, .L77+16
 780              	.LVL81:
 781 00a8 FFF7FEFF 		bl	USB_print
 782              	.LVL82:
 215:pk_serialfuncs.c ****                         serial_printAllRecords();
 783              		.loc 1 215 0
 784 00ac FFF7FEFF 		bl	serial_printAllRecords
 785              	.LVL83:
 216:pk_serialfuncs.c ****                     break;
 786              		.loc 1 216 0
 787 00b0 27E0     		b	.L61
 788              	.LVL84:
 789              	.L60:
 217:pk_serialfuncs.c ****                     case S_MAIN_FORMAT:
 218:pk_serialfuncs.c ****                         USB_print("\n\rWARNING: FORMATTING SD CARD");
 790              		.loc 1 218 0
 791 00b2 8648     		ldr	r0, .L77+20
 792              	.LVL85:
 793 00b4 FFF7FEFF 		bl	USB_print
 794              	.LVL86:
 219:pk_serialfuncs.c ****                         USB_print("\n\rDo you really want to format the SD card?");
 795              		.loc 1 219 0
ARM GAS  C:\Users\bkettle\AppData\Local\Temp\ccgGow7g.s 			page 19


 796 00b8 8548     		ldr	r0, .L77+24
 797 00ba FFF7FEFF 		bl	USB_print
 798              	.LVL87:
 220:pk_serialfuncs.c ****                         USB_print("\n\rTo cancel, type n and press enter");
 799              		.loc 1 220 0
 800 00be 8548     		ldr	r0, .L77+28
 801 00c0 FFF7FEFF 		bl	USB_print
 802              	.LVL88:
 221:pk_serialfuncs.c ****                         USB_print("\n\rType \"yes, delete all records\" to continue: ");
 803              		.loc 1 221 0
 804 00c4 8448     		ldr	r0, .L77+32
 805 00c6 FFF7FEFF 		bl	USB_print
 806              	.LVL89:
 222:pk_serialfuncs.c ****                         s_main_state = S_FORMAT_SD;
 807              		.loc 1 222 0
 808 00ca 0322     		movs	r2, #3
 809 00cc 7B4B     		ldr	r3, .L77+4
 810 00ce 5A60     		str	r2, [r3, #4]
 223:pk_serialfuncs.c ****                     break;
 811              		.loc 1 223 0
 812 00d0 17E0     		b	.L61
 813              	.LVL90:
 814              	.L55:
 815              	.LBB9:
 224:pk_serialfuncs.c ****                     default:
 225:pk_serialfuncs.c ****                         {
 226:pk_serialfuncs.c ****                         USB_print("\n\rGot Command: ");
 816              		.loc 1 226 0
 817 00d2 8248     		ldr	r0, .L77+36
 818              	.LVL91:
 819 00d4 FFF7FEFF 		bl	USB_print
 820              	.LVL92:
 227:pk_serialfuncs.c ****                         char to_send[5];
 228:pk_serialfuncs.c ****                         sprintf(to_send, "%d %s", cmd, last_serial_cmd);
 821              		.loc 1 228 0
 822 00d8 774B     		ldr	r3, .L77
 823 00da 2246     		mov	r2, r4
 824 00dc 8049     		ldr	r1, .L77+40
 825 00de 35A8     		add	r0, sp, #212
 826 00e0 FFF7FEFF 		bl	sprintf
 827              	.LVL93:
 229:pk_serialfuncs.c ****                         USB_print(to_send);
 828              		.loc 1 229 0
 829 00e4 35A8     		add	r0, sp, #212
 830 00e6 FFF7FEFF 		bl	USB_print
 831              	.LVL94:
 230:pk_serialfuncs.c ****                         serial_print_menu(main_menu);
 832              		.loc 1 230 0
 833 00ea 744C     		ldr	r4, .L77+4
 834              	.LVL95:
 835 00ec D022     		movs	r2, #208
 836 00ee 04F11801 		add	r1, r4, #24
 837 00f2 6846     		mov	r0, sp
 838 00f4 FFF7FEFF 		bl	memcpy
 839              	.LVL96:
 840 00f8 04F10803 		add	r3, r4, #8
 841 00fc 0FCB     		ldmia	r3, {r0, r1, r2, r3}
ARM GAS  C:\Users\bkettle\AppData\Local\Temp\ccgGow7g.s 			page 20


 842 00fe FFF7FEFF 		bl	serial_print_menu
 843              	.LVL97:
 844              	.L61:
 845              	.LBE9:
 231:pk_serialfuncs.c ****                         }
 232:pk_serialfuncs.c ****                     break;
 233:pk_serialfuncs.c ****                 }
 234:pk_serialfuncs.c ****                 // always reset last_serial_cmd
 235:pk_serialfuncs.c ****                 // after handling an inputted command
 236:pk_serialfuncs.c ****                 //last_serial_cmd[0] = 0;
 237:pk_serialfuncs.c ****                 clr_last_serial_cmd();
 846              		.loc 1 237 0
 847 0102 FFF7FEFF 		bl	clr_last_serial_cmd
 848              	.LVL98:
 849 0106 32E1     		b	.L48
 850              	.L53:
 851              	.LBE8:
 238:pk_serialfuncs.c ****             };
 239:pk_serialfuncs.c ****         break;
 240:pk_serialfuncs.c ****         case S_ADD_RECORD:
 241:pk_serialfuncs.c ****             switch(s_sec_state) {
 852              		.loc 1 241 0
 853 0108 6D4B     		ldr	r3, .L77+8
 854 010a 1B68     		ldr	r3, [r3]
 855 010c 052B     		cmp	r3, #5
 856 010e 00F22E81 		bhi	.L48
 857 0112 DFE803F0 		tbb	[pc, r3]
 858              	.L63:
 859 0116 03       		.byte	(.L62-.L63)/2
 860 0117 12       		.byte	(.L64-.L63)/2
 861 0118 2B       		.byte	(.L65-.L63)/2
 862 0119 51       		.byte	(.L66-.L63)/2
 863 011a A9       		.byte	(.L67-.L63)/2
 864 011b C6       		.byte	(.L68-.L63)/2
 865              		.p2align 1
 866              	.L62:
 242:pk_serialfuncs.c ****                 case ADD_REC_START:
 243:pk_serialfuncs.c ****                     // clear the current record
 244:pk_serialfuncs.c ****                     new_record = (Record){"","","",""};
 867              		.loc 1 244 0
 868 011c 684C     		ldr	r4, .L77+8
 869 011e 6022     		movs	r2, #96
 870 0120 7049     		ldr	r1, .L77+44
 871 0122 201D     		adds	r0, r4, #4
 872 0124 FFF7FEFF 		bl	memcpy
 873              	.LVL99:
 245:pk_serialfuncs.c ****                     USB_print("\n\rNOTE: Backspace not Supported yet!");
 874              		.loc 1 245 0
 875 0128 6F48     		ldr	r0, .L77+48
 876 012a FFF7FEFF 		bl	USB_print
 877              	.LVL100:
 246:pk_serialfuncs.c ****                     USB_print("\n\rEnter Record Title: ");
 878              		.loc 1 246 0
 879 012e 6F48     		ldr	r0, .L77+52
 880 0130 FFF7FEFF 		bl	USB_print
 881              	.LVL101:
 247:pk_serialfuncs.c ****                     s_sec_state = ADD_REC_TITLE;
ARM GAS  C:\Users\bkettle\AppData\Local\Temp\ccgGow7g.s 			page 21


 882              		.loc 1 247 0
 883 0134 0123     		movs	r3, #1
 884 0136 2360     		str	r3, [r4]
 248:pk_serialfuncs.c ****                 break;
 885              		.loc 1 248 0
 886 0138 19E1     		b	.L48
 887              	.L64:
 249:pk_serialfuncs.c ****                 case ADD_REC_TITLE:
 250:pk_serialfuncs.c ****                     // once something has been entered
 251:pk_serialfuncs.c ****                     if (last_serial_cmd[0] != 0) {
 888              		.loc 1 251 0
 889 013a 5F4B     		ldr	r3, .L77
 890 013c 1B78     		ldrb	r3, [r3]	@ zero_extendqisi2
 891 013e 002B     		cmp	r3, #0
 892 0140 00F01581 		beq	.L48
 252:pk_serialfuncs.c ****                         // update curr record with title
 253:pk_serialfuncs.c ****                         strcpy(new_record.title, last_serial_cmd);
 893              		.loc 1 253 0
 894 0144 5E4C     		ldr	r4, .L77+8
 895 0146 251D     		adds	r5, r4, #4
 896 0148 5B49     		ldr	r1, .L77
 897 014a 2846     		mov	r0, r5
 898 014c FFF7FEFF 		bl	strcpy
 899              	.LVL102:
 254:pk_serialfuncs.c ****                         clr_last_serial_cmd();
 900              		.loc 1 254 0
 901 0150 FFF7FEFF 		bl	clr_last_serial_cmd
 902              	.LVL103:
 255:pk_serialfuncs.c ****                         // set up for username entry
 256:pk_serialfuncs.c ****                         USB_print("\n\rEnter username for ");
 903              		.loc 1 256 0
 904 0154 6648     		ldr	r0, .L77+56
 905 0156 FFF7FEFF 		bl	USB_print
 906              	.LVL104:
 257:pk_serialfuncs.c ****                         USB_print(new_record.title);
 907              		.loc 1 257 0
 908 015a 2846     		mov	r0, r5
 909 015c FFF7FEFF 		bl	USB_print
 910              	.LVL105:
 258:pk_serialfuncs.c ****                         USB_print(": ");
 911              		.loc 1 258 0
 912 0160 6448     		ldr	r0, .L77+60
 913 0162 FFF7FEFF 		bl	USB_print
 914              	.LVL106:
 259:pk_serialfuncs.c ****                         s_sec_state = ADD_REC_UNAME;
 915              		.loc 1 259 0
 916 0166 0223     		movs	r3, #2
 917 0168 2360     		str	r3, [r4]
 918 016a 00E1     		b	.L48
 919              	.L65:
 260:pk_serialfuncs.c ****                     }
 261:pk_serialfuncs.c ****                 break;
 262:pk_serialfuncs.c ****                 case ADD_REC_UNAME:
 263:pk_serialfuncs.c ****                     // once a title has been entered
 264:pk_serialfuncs.c ****                     if (last_serial_cmd[0] != 0) {
 920              		.loc 1 264 0
 921 016c 524B     		ldr	r3, .L77
ARM GAS  C:\Users\bkettle\AppData\Local\Temp\ccgGow7g.s 			page 22


 922 016e 1B78     		ldrb	r3, [r3]	@ zero_extendqisi2
 923 0170 002B     		cmp	r3, #0
 924 0172 00F0FC80 		beq	.L48
 265:pk_serialfuncs.c ****                         // update curr record with username
 266:pk_serialfuncs.c ****                         strcpy(new_record.username, last_serial_cmd);
 925              		.loc 1 266 0
 926 0176 524D     		ldr	r5, .L77+8
 927 0178 05F10E04 		add	r4, r5, #14
 928 017c 4E49     		ldr	r1, .L77
 929 017e 2046     		mov	r0, r4
 930 0180 FFF7FEFF 		bl	strcpy
 931              	.LVL107:
 267:pk_serialfuncs.c ****                         clr_last_serial_cmd();
 932              		.loc 1 267 0
 933 0184 FFF7FEFF 		bl	clr_last_serial_cmd
 934              	.LVL108:
 268:pk_serialfuncs.c ****                         // set up for pw entry
 269:pk_serialfuncs.c ****                         USB_print("\n\rPassword for user ");
 935              		.loc 1 269 0
 936 0188 5B48     		ldr	r0, .L77+64
 937 018a FFF7FEFF 		bl	USB_print
 938              	.LVL109:
 270:pk_serialfuncs.c ****                         USB_print(new_record.username);
 939              		.loc 1 270 0
 940 018e 2046     		mov	r0, r4
 941 0190 FFF7FEFF 		bl	USB_print
 942              	.LVL110:
 271:pk_serialfuncs.c ****                         USB_print(": ");
 943              		.loc 1 271 0
 944 0194 5748     		ldr	r0, .L77+60
 945 0196 FFF7FEFF 		bl	USB_print
 946              	.LVL111:
 272:pk_serialfuncs.c ****                         serial_print_menu(pass_menu);
 947              		.loc 1 272 0
 948 019a 484C     		ldr	r4, .L77+4
 949 019c D022     		movs	r2, #208
 950 019e 04F1F801 		add	r1, r4, #248
 951 01a2 6846     		mov	r0, sp
 952 01a4 FFF7FEFF 		bl	memcpy
 953              	.LVL112:
 954 01a8 04F1E803 		add	r3, r4, #232
 955 01ac 0FCB     		ldmia	r3, {r0, r1, r2, r3}
 956 01ae FFF7FEFF 		bl	serial_print_menu
 957              	.LVL113:
 273:pk_serialfuncs.c ****                         s_sec_state = ADD_REC_PASS_MENU;
 958              		.loc 1 273 0
 959 01b2 0323     		movs	r3, #3
 960 01b4 2B60     		str	r3, [r5]
 961 01b6 DAE0     		b	.L48
 962              	.L66:
 274:pk_serialfuncs.c ****                     }
 275:pk_serialfuncs.c ****                 break;
 276:pk_serialfuncs.c ****                 case ADD_REC_PASS_MENU:
 277:pk_serialfuncs.c ****                     if (last_serial_cmd[0] != 0) {
 963              		.loc 1 277 0
 964 01b8 3F4B     		ldr	r3, .L77
 965 01ba 1B78     		ldrb	r3, [r3]	@ zero_extendqisi2
ARM GAS  C:\Users\bkettle\AppData\Local\Temp\ccgGow7g.s 			page 23


 966 01bc 002B     		cmp	r3, #0
 967 01be 00F0D680 		beq	.L48
 968              	.LBB10:
 278:pk_serialfuncs.c ****                         // listen for menu entry
 279:pk_serialfuncs.c ****                         int cmd = atoi(last_serial_cmd);
 969              		.loc 1 279 0
 970 01c2 3D48     		ldr	r0, .L77
 971 01c4 FFF7FEFF 		bl	atoi
 972              	.LVL114:
 280:pk_serialfuncs.c ****                         switch(cmd) {
 973              		.loc 1 280 0
 974 01c8 0128     		cmp	r0, #1
 975 01ca 12D0     		beq	.L70
 976 01cc 0228     		cmp	r0, #2
 977 01ce 1ED0     		beq	.L71
 978 01d0 0028     		cmp	r0, #0
 979 01d2 46D1     		bne	.L69
 281:pk_serialfuncs.c ****                             // first case is if atoi returned 0
 282:pk_serialfuncs.c ****                             // ie letters, etc
 283:pk_serialfuncs.c ****                             case INVALID_CMD:
 284:pk_serialfuncs.c ****                                 serial_inv_cmd();
 980              		.loc 1 284 0
 981 01d4 FFF7FEFF 		bl	serial_inv_cmd
 982              	.LVL115:
 285:pk_serialfuncs.c ****                                 serial_print_menu(pass_menu);
 983              		.loc 1 285 0
 984 01d8 384C     		ldr	r4, .L77+4
 985 01da D022     		movs	r2, #208
 986 01dc 04F1F801 		add	r1, r4, #248
 987 01e0 6846     		mov	r0, sp
 988 01e2 FFF7FEFF 		bl	memcpy
 989              	.LVL116:
 990 01e6 04F1E803 		add	r3, r4, #232
 991 01ea 0FCB     		ldmia	r3, {r0, r1, r2, r3}
 992 01ec FFF7FEFF 		bl	serial_print_menu
 993              	.LVL117:
 286:pk_serialfuncs.c ****                             break;
 994              		.loc 1 286 0
 995 01f0 37E0     		b	.L69
 996              	.LVL118:
 997              	.L70:
 287:pk_serialfuncs.c ****                             case PASS_MENU_ENTER:
 288:pk_serialfuncs.c ****                                 USB_print("\n\rEnter Password for user ");
 998              		.loc 1 288 0
 999 01f2 4248     		ldr	r0, .L77+68
 1000              	.LVL119:
 1001 01f4 FFF7FEFF 		bl	USB_print
 1002              	.LVL120:
 289:pk_serialfuncs.c ****                                 USB_print(new_record.username);
 1003              		.loc 1 289 0
 1004 01f8 314C     		ldr	r4, .L77+8
 1005 01fa 04F10E00 		add	r0, r4, #14
 1006 01fe FFF7FEFF 		bl	USB_print
 1007              	.LVL121:
 290:pk_serialfuncs.c ****                                 USB_print(": ");
 1008              		.loc 1 290 0
 1009 0202 3C48     		ldr	r0, .L77+60
ARM GAS  C:\Users\bkettle\AppData\Local\Temp\ccgGow7g.s 			page 24


 1010 0204 FFF7FEFF 		bl	USB_print
 1011              	.LVL122:
 291:pk_serialfuncs.c ****                                 s_sec_state = ADD_REC_PASS_ENTRY;
 1012              		.loc 1 291 0
 1013 0208 0423     		movs	r3, #4
 1014 020a 2360     		str	r3, [r4]
 292:pk_serialfuncs.c ****                             break;
 1015              		.loc 1 292 0
 1016 020c 29E0     		b	.L69
 1017              	.LVL123:
 1018              	.L71:
 1019              	.LBB11:
 293:pk_serialfuncs.c ****                             case PASS_MENU_GEN:
 294:pk_serialfuncs.c ****                                 {
 295:pk_serialfuncs.c ****                                 USB_print("\n\rGenerating password! ");
 1020              		.loc 1 295 0
 1021 020e 3C48     		ldr	r0, .L77+72
 1022              	.LVL124:
 1023 0210 FFF7FEFF 		bl	USB_print
 1024              	.LVL125:
 296:pk_serialfuncs.c ****                                 
 297:pk_serialfuncs.c ****                                 // generate password
 298:pk_serialfuncs.c ****                                 char pass[17];
 299:pk_serialfuncs.c ****                                 generate_password(pass);
 1025              		.loc 1 299 0
 1026 0214 35A8     		add	r0, sp, #212
 1027 0216 FFF7FEFF 		bl	generate_password
 1028              	.LVL126:
 300:pk_serialfuncs.c ****                                 strcpy(new_record.password, pass);
 1029              		.loc 1 300 0
 1030 021a 294C     		ldr	r4, .L77+8
 1031 021c 251D     		adds	r5, r4, #4
 1032 021e 04F13606 		add	r6, r4, #54
 1033 0222 35A9     		add	r1, sp, #212
 1034 0224 3046     		mov	r0, r6
 1035 0226 FFF7FEFF 		bl	strcpy
 1036              	.LVL127:
 301:pk_serialfuncs.c ****                                 USB_print("\n\rGenerated Password for user ");
 1037              		.loc 1 301 0
 1038 022a 3648     		ldr	r0, .L77+76
 1039 022c FFF7FEFF 		bl	USB_print
 1040              	.LVL128:
 302:pk_serialfuncs.c ****                                 USB_print(new_record.username);
 1041              		.loc 1 302 0
 1042 0230 04F10E00 		add	r0, r4, #14
 1043 0234 FFF7FEFF 		bl	USB_print
 1044              	.LVL129:
 303:pk_serialfuncs.c ****                                 USB_print(": ");
 1045              		.loc 1 303 0
 1046 0238 2E48     		ldr	r0, .L77+60
 1047 023a FFF7FEFF 		bl	USB_print
 1048              	.LVL130:
 304:pk_serialfuncs.c ****                                 USB_print(new_record.password);
 1049              		.loc 1 304 0
 1050 023e 3046     		mov	r0, r6
 1051 0240 FFF7FEFF 		bl	USB_print
 1052              	.LVL131:
ARM GAS  C:\Users\bkettle\AppData\Local\Temp\ccgGow7g.s 			page 25


 305:pk_serialfuncs.c ****                                 serial_print_record(new_record);
 1053              		.loc 1 305 0
 1054 0244 5022     		movs	r2, #80
 1055 0246 04F11401 		add	r1, r4, #20
 1056 024a 6846     		mov	r0, sp
 1057 024c FFF7FEFF 		bl	memcpy
 1058              	.LVL132:
 1059 0250 95E80F00 		ldmia	r5, {r0, r1, r2, r3}
 1060 0254 FFF7FEFF 		bl	serial_print_record
 1061              	.LVL133:
 306:pk_serialfuncs.c ****                                 USB_print("\n\r\n\rEnter 'y' to confirm, anything else to cancel.")
 1062              		.loc 1 306 0
 1063 0258 2B48     		ldr	r0, .L77+80
 1064 025a FFF7FEFF 		bl	USB_print
 1065              	.LVL134:
 307:pk_serialfuncs.c ****                                 s_sec_state = ADD_REC_CONFIRM;
 1066              		.loc 1 307 0
 1067 025e 0523     		movs	r3, #5
 1068 0260 2360     		str	r3, [r4]
 1069              	.L69:
 1070              	.LBE11:
 308:pk_serialfuncs.c ****                                 }
 309:pk_serialfuncs.c ****                             break;
 310:pk_serialfuncs.c ****                         }
 311:pk_serialfuncs.c ****                         clr_last_serial_cmd();
 1071              		.loc 1 311 0
 1072 0262 FFF7FEFF 		bl	clr_last_serial_cmd
 1073              	.LVL135:
 1074 0266 82E0     		b	.L48
 1075              	.L67:
 1076              	.LBE10:
 312:pk_serialfuncs.c ****                     }
 313:pk_serialfuncs.c ****                 break;
 314:pk_serialfuncs.c ****                 case ADD_REC_PASS_ENTRY:
 315:pk_serialfuncs.c ****                     // password entry option, password entered
 316:pk_serialfuncs.c ****                     if (last_serial_cmd[0] != 0) {
 1077              		.loc 1 316 0
 1078 0268 134B     		ldr	r3, .L77
 1079 026a 1B78     		ldrb	r3, [r3]	@ zero_extendqisi2
 1080 026c 002B     		cmp	r3, #0
 1081 026e 7ED0     		beq	.L48
 317:pk_serialfuncs.c ****                         // update curr record with username
 318:pk_serialfuncs.c ****                         strcpy(new_record.password, last_serial_cmd);
 1082              		.loc 1 318 0
 1083 0270 134C     		ldr	r4, .L77+8
 1084 0272 251D     		adds	r5, r4, #4
 1085 0274 1049     		ldr	r1, .L77
 1086 0276 04F13600 		add	r0, r4, #54
 1087 027a FFF7FEFF 		bl	strcpy
 1088              	.LVL136:
 319:pk_serialfuncs.c ****                         clr_last_serial_cmd();
 1089              		.loc 1 319 0
 1090 027e FFF7FEFF 		bl	clr_last_serial_cmd
 1091              	.LVL137:
 320:pk_serialfuncs.c ****                         // echo full record and prompt user to confirm
 321:pk_serialfuncs.c ****                         serial_print_record(new_record);
 1092              		.loc 1 321 0
ARM GAS  C:\Users\bkettle\AppData\Local\Temp\ccgGow7g.s 			page 26


 1093 0282 5022     		movs	r2, #80
 1094 0284 04F11401 		add	r1, r4, #20
 1095 0288 6846     		mov	r0, sp
 1096 028a FFF7FEFF 		bl	memcpy
 1097              	.LVL138:
 1098 028e 95E80F00 		ldmia	r5, {r0, r1, r2, r3}
 1099 0292 FFF7FEFF 		bl	serial_print_record
 1100              	.LVL139:
 322:pk_serialfuncs.c ****                         USB_print("\n\r\n\rEnter 'y' to confirm, anything else to cancel.");
 1101              		.loc 1 322 0
 1102 0296 1C48     		ldr	r0, .L77+80
 1103 0298 FFF7FEFF 		bl	USB_print
 1104              	.LVL140:
 323:pk_serialfuncs.c ****                         s_sec_state = ADD_REC_CONFIRM;
 1105              		.loc 1 323 0
 1106 029c 0523     		movs	r3, #5
 1107 029e 2360     		str	r3, [r4]
 1108 02a0 65E0     		b	.L48
 1109              	.L68:
 324:pk_serialfuncs.c ****                     }
 325:pk_serialfuncs.c ****                 break;
 326:pk_serialfuncs.c ****                 case ADD_REC_CONFIRM:
 327:pk_serialfuncs.c ****                     // once a password is entered, confirm
 328:pk_serialfuncs.c ****                     if (last_serial_cmd[0] != 0) {
 1110              		.loc 1 328 0
 1111 02a2 054B     		ldr	r3, .L77
 1112 02a4 1B78     		ldrb	r3, [r3]	@ zero_extendqisi2
 1113 02a6 002B     		cmp	r3, #0
 1114 02a8 61D0     		beq	.L48
 329:pk_serialfuncs.c ****                         if (last_serial_cmd[0] == 'y') {
 1115              		.loc 1 329 0
 1116 02aa 792B     		cmp	r3, #121
 1117 02ac 30D1     		bne	.L73
 330:pk_serialfuncs.c ****                             // new_record should be complete
 331:pk_serialfuncs.c ****                             // save the new record to sd
 332:pk_serialfuncs.c ****                             SD_addRecord(&new_record);
 1118              		.loc 1 332 0
 1119 02ae 1748     		ldr	r0, .L77+84
 1120 02b0 FFF7FEFF 		bl	SD_addRecord
 1121              	.LVL141:
 1122 02b4 2FE0     		b	.L74
 1123              	.L78:
 1124 02b6 00BF     		.align	2
 1125              	.L77:
 1126 02b8 00000000 		.word	last_serial_cmd
 1127 02bc 00000000 		.word	.LANCHOR0
 1128 02c0 00000000 		.word	.LANCHOR1
 1129 02c4 C4000000 		.word	.LC16
 1130 02c8 D4000000 		.word	.LC17
 1131 02cc EC000000 		.word	.LC18
 1132 02d0 0C010000 		.word	.LC19
 1133 02d4 38010000 		.word	.LC20
 1134 02d8 5C010000 		.word	.LC21
 1135 02dc 8C010000 		.word	.LC22
 1136 02e0 9C010000 		.word	.LC23
 1137 02e4 00000000 		.word	.LANCHOR2
 1138 02e8 A4010000 		.word	.LC24
ARM GAS  C:\Users\bkettle\AppData\Local\Temp\ccgGow7g.s 			page 27


 1139 02ec CC010000 		.word	.LC25
 1140 02f0 E4010000 		.word	.LC26
 1141 02f4 FC010000 		.word	.LC27
 1142 02f8 00020000 		.word	.LC28
 1143 02fc 18020000 		.word	.LC29
 1144 0300 34020000 		.word	.LC30
 1145 0304 4C020000 		.word	.LC31
 1146 0308 6C020000 		.word	.LC32
 1147 030c 04000000 		.word	.LANCHOR1+4
 1148              	.L73:
 333:pk_serialfuncs.c ****                         } else {
 334:pk_serialfuncs.c ****                             USB_print("\n\rCancelling!");
 1149              		.loc 1 334 0
 1150 0310 1848     		ldr	r0, .L79
 1151 0312 FFF7FEFF 		bl	USB_print
 1152              	.LVL142:
 1153              	.L74:
 335:pk_serialfuncs.c ****                         }
 336:pk_serialfuncs.c ****                         clr_last_serial_cmd();
 1154              		.loc 1 336 0
 1155 0316 FFF7FEFF 		bl	clr_last_serial_cmd
 1156              	.LVL143:
 337:pk_serialfuncs.c ****                         s_main_state = S_MAIN_MENU;
 1157              		.loc 1 337 0
 1158 031a 174C     		ldr	r4, .L79+4
 1159 031c 0123     		movs	r3, #1
 1160 031e 6360     		str	r3, [r4, #4]
 338:pk_serialfuncs.c ****                         serial_print_menu(main_menu);
 1161              		.loc 1 338 0
 1162 0320 D022     		movs	r2, #208
 1163 0322 04F11801 		add	r1, r4, #24
 1164 0326 6846     		mov	r0, sp
 1165 0328 FFF7FEFF 		bl	memcpy
 1166              	.LVL144:
 1167 032c 04F10803 		add	r3, r4, #8
 1168 0330 0FCB     		ldmia	r3, {r0, r1, r2, r3}
 1169 0332 FFF7FEFF 		bl	serial_print_menu
 1170              	.LVL145:
 1171 0336 1AE0     		b	.L48
 1172              	.L54:
 339:pk_serialfuncs.c ****                     }
 340:pk_serialfuncs.c ****                 break;
 341:pk_serialfuncs.c ****             }
 342:pk_serialfuncs.c ****         break;
 343:pk_serialfuncs.c ****         case S_FORMAT_SD:
 344:pk_serialfuncs.c ****             // check if user inputted "yes, delete all records"
 345:pk_serialfuncs.c ****             if (last_serial_cmd[0] != 0) {
 1173              		.loc 1 345 0
 1174 0338 104B     		ldr	r3, .L79+8
 1175 033a 1B78     		ldrb	r3, [r3]	@ zero_extendqisi2
 1176 033c BBB1     		cbz	r3, .L48
 346:pk_serialfuncs.c ****                 if (!strcmp(last_serial_cmd, "yes, delete all records")) {
 1177              		.loc 1 346 0
 1178 033e 1049     		ldr	r1, .L79+12
 1179 0340 0E48     		ldr	r0, .L79+8
 1180 0342 FFF7FEFF 		bl	strcmp
 1181              	.LVL146:
ARM GAS  C:\Users\bkettle\AppData\Local\Temp\ccgGow7g.s 			page 28


 1182 0346 60B9     		cbnz	r0, .L75
 347:pk_serialfuncs.c ****                     // this will format the SD card and recreate the db file
 348:pk_serialfuncs.c ****                     USB_print("\n\rFormatting SD... ");
 1183              		.loc 1 348 0
 1184 0348 0E48     		ldr	r0, .L79+16
 1185 034a FFF7FEFF 		bl	USB_print
 1186              	.LVL147:
 349:pk_serialfuncs.c ****                     SD_createDB(false);
 1187              		.loc 1 349 0
 1188 034e 0020     		movs	r0, #0
 1189 0350 FFF7FEFF 		bl	SD_createDB
 1190              	.LVL148:
 350:pk_serialfuncs.c ****                     USB_print("SD card formatted successfully.");
 1191              		.loc 1 350 0
 1192 0354 0C48     		ldr	r0, .L79+20
 1193 0356 FFF7FEFF 		bl	USB_print
 1194              	.LVL149:
 351:pk_serialfuncs.c ****                     s_main_state = S_STARTUP;
 1195              		.loc 1 351 0
 1196 035a 0022     		movs	r2, #0
 1197 035c 064B     		ldr	r3, .L79+4
 1198 035e 5A60     		str	r2, [r3, #4]
 1199 0360 05E0     		b	.L48
 1200              	.L75:
 352:pk_serialfuncs.c ****                 } else {
 353:pk_serialfuncs.c ****                     // that command was not entered, cancel
 354:pk_serialfuncs.c ****                     USB_print("\n\rCancelling, not modifying records");
 1201              		.loc 1 354 0
 1202 0362 0A48     		ldr	r0, .L79+24
 1203 0364 FFF7FEFF 		bl	USB_print
 1204              	.LVL150:
 355:pk_serialfuncs.c ****                     s_main_state = S_STARTUP;
 1205              		.loc 1 355 0
 1206 0368 0022     		movs	r2, #0
 1207 036a 034B     		ldr	r3, .L79+4
 1208 036c 5A60     		str	r2, [r3, #4]
 1209              	.L48:
 356:pk_serialfuncs.c ****                 }
 357:pk_serialfuncs.c ****             }
 358:pk_serialfuncs.c ****         break;
 359:pk_serialfuncs.c ****     }
 360:pk_serialfuncs.c **** }
 1210              		.loc 1 360 0
 1211 036e 3AB0     		add	sp, sp, #232
 1212              		.cfi_def_cfa_offset 16
 1213              		@ sp needed
 1214 0370 70BD     		pop	{r4, r5, r6, pc}
 1215              	.L80:
 1216 0372 00BF     		.align	2
 1217              	.L79:
 1218 0374 A0020000 		.word	.LC33
 1219 0378 00000000 		.word	.LANCHOR0
 1220 037c 00000000 		.word	last_serial_cmd
 1221 0380 B0020000 		.word	.LC34
 1222 0384 C8020000 		.word	.LC35
 1223 0388 DC020000 		.word	.LC36
 1224 038c FC020000 		.word	.LC37
ARM GAS  C:\Users\bkettle\AppData\Local\Temp\ccgGow7g.s 			page 29


 1225              		.cfi_endproc
 1226              	.LFE74:
 1227              		.size	serial_fsm, .-serial_fsm
 1228              		.global	pass_menu
 1229              		.global	main_menu
 1230              		.global	last_serial_cmd_length
 1231              		.comm	last_serial_cmd,30,4
 1232              		.comm	rx_buff_length,4,4
 1233              		.comm	rx_buffer,30,4
 1234              		.comm	ascii_to_hid,768,4
 1235              		.comm	KB_Data,8,4
 1236              		.comm	KB_Initialized,1,1
 1237              		.comm	pFile,4,4
 1238              		.comm	sdVolName,10,4
 1239              		.comm	sdFile,9,4
 1240              		.global	s_sec_state
 1241              		.global	s_main_state
 1242              		.global	new_record
 1243              		.comm	record_size,4,4
 1244              		.section	.rodata
 1245              		.align	2
 1246              		.set	.LANCHOR2,. + 0
 1247              	.LC0:
 1248 0000 00       		.ascii	"\000"
 1249 0001 00000000 		.space	9
 1249      00000000 
 1249      00
 1250 000a 00       		.ascii	"\000"
 1251 000b 00000000 		.space	39
 1251      00000000 
 1251      00000000 
 1251      00000000 
 1251      00000000 
 1252 0032 00       		.ascii	"\000"
 1253 0033 00000000 		.space	25
 1253      00000000 
 1253      00000000 
 1253      00000000 
 1253      00000000 
 1254 004c 00       		.ascii	"\000"
 1255 004d 00000000 		.space	19
 1255      00000000 
 1255      00000000 
 1255      00000000 
 1255      000000
 1256              		.data
 1257              		.align	2
 1258              		.set	.LANCHOR0,. + 0
 1259              		.type	last_serial_cmd_length, %object
 1260              		.size	last_serial_cmd_length, 4
 1261              	last_serial_cmd_length:
 1262 0000 1E000000 		.word	30
 1263              		.type	s_main_state, %object
 1264              		.size	s_main_state, 4
 1265              	s_main_state:
 1266 0004 01000000 		.word	1
 1267              		.type	main_menu, %object
ARM GAS  C:\Users\bkettle\AppData\Local\Temp\ccgGow7g.s 			page 30


 1268              		.size	main_menu, 224
 1269              	main_menu:
 1270 0008 03000000 		.word	3
 1271 000c 4D61696E 		.ascii	"Main Menu\000"
 1271      204D656E 
 1271      7500
 1272 0016 00000000 		.space	10
 1272      00000000 
 1272      0000
 1273 0020 41646420 		.ascii	"Add new record\000"
 1273      6E657720 
 1273      7265636F 
 1273      726400
 1274 002f 00000000 		.space	5
 1274      00
 1275 0034 56696577 		.ascii	"View all records\000"
 1275      20616C6C 
 1275      20726563 
 1275      6F726473 
 1275      00
 1276 0045 000000   		.space	3
 1277 0048 436C6561 		.ascii	"Clear Password DB\000"
 1277      72205061 
 1277      7373776F 
 1277      72642044 
 1277      4200
 1278 005a 0000     		.space	2
 1279 005c 00000000 		.space	140
 1279      00000000 
 1279      00000000 
 1279      00000000 
 1279      00000000 
 1280              		.type	pass_menu, %object
 1281              		.size	pass_menu, 224
 1282              	pass_menu:
 1283 00e8 02000000 		.word	2
 1284 00ec 50617373 		.ascii	"Password Menu\000"
 1284      776F7264 
 1284      204D656E 
 1284      7500
 1285 00fa 00000000 		.space	6
 1285      0000
 1286 0100 456E7465 		.ascii	"Enter Password\000"
 1286      72205061 
 1286      7373776F 
 1286      726400
 1287 010f 00000000 		.space	5
 1287      00
 1288 0114 47656E65 		.ascii	"Generate Password\000"
 1288      72617465 
 1288      20506173 
 1288      73776F72 
 1288      6400
 1289 0126 0000     		.space	2
 1290 0128 00000000 		.space	160
 1290      00000000 
 1290      00000000 
ARM GAS  C:\Users\bkettle\AppData\Local\Temp\ccgGow7g.s 			page 31


 1290      00000000 
 1290      00000000 
 1291              		.section	.rodata.str1.4,"aMS",%progbits,1
 1292              		.align	2
 1293              	.LC1:
 1294 0000 0A0D00   		.ascii	"\012\015\000"
 1295 0003 00       		.space	1
 1296              	.LC2:
 1297 0004 3A0A0D00 		.ascii	":\012\015\000"
 1298              	.LC3:
 1299 0008 2E2000   		.ascii	". \000"
 1300 000b 00       		.space	1
 1301              	.LC4:
 1302 000c 0A0D456E 		.ascii	"\012\015Enter the choice you want: \000"
 1302      74657220 
 1302      74686520 
 1302      63686F69 
 1302      63652079 
 1303 002a 0000     		.space	2
 1304              	.LC5:
 1305 002c 0A0D0A0D 		.ascii	"\012\015\012\015   \000"
 1305      20202000 
 1306              	.LC6:
 1307 0034 0A0D2020 		.ascii	"\012\015   * Title: \000"
 1307      202A2054 
 1307      69746C65 
 1307      3A2000
 1308 0043 00       		.space	1
 1309              	.LC7:
 1310 0044 0A0D2020 		.ascii	"\012\015   * Username: \000"
 1310      202A2055 
 1310      7365726E 
 1310      616D653A 
 1310      2000
 1311 0056 0000     		.space	2
 1312              	.LC8:
 1313 0058 0A0D2020 		.ascii	"\012\015   * Password: \000"
 1313      202A2050 
 1313      61737377 
 1313      6F72643A 
 1313      2000
 1314 006a 0000     		.space	2
 1315              	.LC9:
 1316 006c 0A0D2020 		.ascii	"\012\015   \000"
 1316      2000
 1317 0072 0000     		.space	2
 1318              	.LC10:
 1319 0074 0A0D496E 		.ascii	"\012\015Invalid Command!\000"
 1319      76616C69 
 1319      6420436F 
 1319      6D6D616E 
 1319      642100
 1320 0087 00       		.space	1
 1321              	.LC11:
 1322 0088 307800   		.ascii	"0x\000"
 1323 008b 00       		.space	1
 1324              	.LC12:
ARM GAS  C:\Users\bkettle\AppData\Local\Temp\ccgGow7g.s 			page 32


 1325 008c 255800   		.ascii	"%X\000"
 1326 008f 00       		.space	1
 1327              	.LC13:
 1328 0090 2000     		.ascii	" \000"
 1329 0092 0000     		.space	2
 1330              	.LC14:
 1331 0094 0A0D6461 		.ascii	"\012\015datetime: \000"
 1331      74657469 
 1331      6D653A20 
 1331      00
 1332 00a1 000000   		.space	3
 1333              	.LC15:
 1334 00a4 25642D25 		.ascii	"%d-%d-%d %d:%d:%2.0d unix: %d\000"
 1334      642D2564 
 1334      2025643A 
 1334      25643A25 
 1334      322E3064 
 1335 00c2 0000     		.space	2
 1336              	.LC16:
 1337 00c4 0A0D4164 		.ascii	"\012\015Add record...\000"
 1337      64207265 
 1337      636F7264 
 1337      2E2E2E00 
 1338              	.LC17:
 1339 00d4 0A0D5669 		.ascii	"\012\015View All Records...\000"
 1339      65772041 
 1339      6C6C2052 
 1339      65636F72 
 1339      64732E2E 
 1340 00ea 0000     		.space	2
 1341              	.LC18:
 1342 00ec 0A0D5741 		.ascii	"\012\015WARNING: FORMATTING SD CARD\000"
 1342      524E494E 
 1342      473A2046 
 1342      4F524D41 
 1342      5454494E 
 1343 010a 0000     		.space	2
 1344              	.LC19:
 1345 010c 0A0D446F 		.ascii	"\012\015Do you really want to format the SD card?\000"
 1345      20796F75 
 1345      20726561 
 1345      6C6C7920 
 1345      77616E74 
 1346              	.LC20:
 1347 0138 0A0D546F 		.ascii	"\012\015To cancel, type n and press enter\000"
 1347      2063616E 
 1347      63656C2C 
 1347      20747970 
 1347      65206E20 
 1348              	.LC21:
 1349 015c 0A0D5479 		.ascii	"\012\015Type \"yes, delete all records\" to continu"
 1349      70652022 
 1349      7965732C 
 1349      2064656C 
 1349      65746520 
 1350 0187 653A2000 		.ascii	"e: \000"
 1351 018b 00       		.space	1
ARM GAS  C:\Users\bkettle\AppData\Local\Temp\ccgGow7g.s 			page 33


 1352              	.LC22:
 1353 018c 0A0D476F 		.ascii	"\012\015Got Command: \000"
 1353      7420436F 
 1353      6D6D616E 
 1353      643A2000 
 1354              	.LC23:
 1355 019c 25642025 		.ascii	"%d %s\000"
 1355      7300
 1356 01a2 0000     		.space	2
 1357              	.LC24:
 1358 01a4 0A0D4E4F 		.ascii	"\012\015NOTE: Backspace not Supported yet!\000"
 1358      54453A20 
 1358      4261636B 
 1358      73706163 
 1358      65206E6F 
 1359 01c9 000000   		.space	3
 1360              	.LC25:
 1361 01cc 0A0D456E 		.ascii	"\012\015Enter Record Title: \000"
 1361      74657220 
 1361      5265636F 
 1361      72642054 
 1361      69746C65 
 1362 01e3 00       		.space	1
 1363              	.LC26:
 1364 01e4 0A0D456E 		.ascii	"\012\015Enter username for \000"
 1364      74657220 
 1364      75736572 
 1364      6E616D65 
 1364      20666F72 
 1365 01fa 0000     		.space	2
 1366              	.LC27:
 1367 01fc 3A2000   		.ascii	": \000"
 1368 01ff 00       		.space	1
 1369              	.LC28:
 1370 0200 0A0D5061 		.ascii	"\012\015Password for user \000"
 1370      7373776F 
 1370      72642066 
 1370      6F722075 
 1370      73657220 
 1371 0215 000000   		.space	3
 1372              	.LC29:
 1373 0218 0A0D456E 		.ascii	"\012\015Enter Password for user \000"
 1373      74657220 
 1373      50617373 
 1373      776F7264 
 1373      20666F72 
 1374 0233 00       		.space	1
 1375              	.LC30:
 1376 0234 0A0D4765 		.ascii	"\012\015Generating password! \000"
 1376      6E657261 
 1376      74696E67 
 1376      20706173 
 1376      73776F72 
 1377              	.LC31:
 1378 024c 0A0D4765 		.ascii	"\012\015Generated Password for user \000"
 1378      6E657261 
 1378      74656420 
ARM GAS  C:\Users\bkettle\AppData\Local\Temp\ccgGow7g.s 			page 34


 1378      50617373 
 1378      776F7264 
 1379 026b 00       		.space	1
 1380              	.LC32:
 1381 026c 0A0D0A0D 		.ascii	"\012\015\012\015Enter 'y' to confirm, anything else"
 1381      456E7465 
 1381      72202779 
 1381      2720746F 
 1381      20636F6E 
 1382 0293 20746F20 		.ascii	" to cancel.\000"
 1382      63616E63 
 1382      656C2E00 
 1383 029f 00       		.space	1
 1384              	.LC33:
 1385 02a0 0A0D4361 		.ascii	"\012\015Cancelling!\000"
 1385      6E63656C 
 1385      6C696E67 
 1385      2100
 1386 02ae 0000     		.space	2
 1387              	.LC34:
 1388 02b0 7965732C 		.ascii	"yes, delete all records\000"
 1388      2064656C 
 1388      65746520 
 1388      616C6C20 
 1388      7265636F 
 1389              	.LC35:
 1390 02c8 0A0D466F 		.ascii	"\012\015Formatting SD... \000"
 1390      726D6174 
 1390      74696E67 
 1390      2053442E 
 1390      2E2E2000 
 1391              	.LC36:
 1392 02dc 53442063 		.ascii	"SD card formatted successfully.\000"
 1392      61726420 
 1392      666F726D 
 1392      61747465 
 1392      64207375 
 1393              	.LC37:
 1394 02fc 0A0D4361 		.ascii	"\012\015Cancelling, not modifying records\000"
 1394      6E63656C 
 1394      6C696E67 
 1394      2C206E6F 
 1394      74206D6F 
 1395              		.bss
 1396              		.align	2
 1397              		.set	.LANCHOR1,. + 0
 1398              		.type	s_sec_state, %object
 1399              		.size	s_sec_state, 4
 1400              	s_sec_state:
 1401 0000 00000000 		.space	4
 1402              		.type	new_record, %object
 1403              		.size	new_record, 96
 1404              	new_record:
 1405 0004 00000000 		.space	96
 1405      00000000 
 1405      00000000 
 1405      00000000 
ARM GAS  C:\Users\bkettle\AppData\Local\Temp\ccgGow7g.s 			page 35


 1405      00000000 
 1406              		.text
 1407              	.Letext0:
 1408              		.file 2 "./pk_record.h"
 1409              		.file 3 "c:\\program files (x86)\\cypress\\psoc creator\\4.3\\psoc creator\\import\\gnu\\arm\\5.4.
 1410              		.file 4 "c:\\program files (x86)\\cypress\\psoc creator\\4.3\\psoc creator\\import\\gnu\\arm\\5.4.
 1411              		.file 5 "Generated_Source\\PSoC5/cytypes.h"
 1412              		.file 6 "c:\\program files (x86)\\cypress\\psoc creator\\4.3\\psoc creator\\import\\gnu\\arm\\5.4.
 1413              		.file 7 "..\\..\\..\\..\\..\\..\\development\\hardware\\DS3231-PSoC/ds3231.h"
 1414              		.file 8 "c:\\program files (x86)\\cypress\\psoc creator\\4.3\\psoc creator\\import\\gnu\\arm\\5.4.
 1415              		.file 9 "./pk_serialfuncs.h"
 1416              		.file 10 "..\\emFile_V322c\\Code\\Include\\PSoC5/FS_Types.h"
 1417              		.file 11 "./pk_usb.h"
 1418              		.file 12 "Generated_Source\\PSoC5/core_cm3.h"
 1419              		.file 13 "./pk_sdrecorddb.h"
 1420              		.file 14 "c:\\program files (x86)\\cypress\\psoc creator\\4.3\\psoc creator\\import\\gnu\\arm\\5.4
 1421              		.file 15 "c:\\program files (x86)\\cypress\\psoc creator\\4.3\\psoc creator\\import\\gnu\\arm\\5.4
 1422              		.file 16 "Generated_Source\\PSoC5/PRS.h"
 1423              		.file 17 "c:\\program files (x86)\\cypress\\psoc creator\\4.3\\psoc creator\\import\\gnu\\arm\\5.4
 1424              		.file 18 "Generated_Source\\PSoC5/LED.h"