ARM GAS  C:\Users\bkettle\AppData\Local\Temp\ccPIuWNe.s 			page 1


   1              		.syntax unified
   2              		.cpu cortex-m3
   3              		.fpu softvfp
   4              		.eabi_attribute 20, 1
   5              		.eabi_attribute 21, 1
   6              		.eabi_attribute 23, 3
   7              		.eabi_attribute 24, 1
   8              		.eabi_attribute 25, 1
   9              		.eabi_attribute 26, 1
  10              		.eabi_attribute 30, 1
  11              		.eabi_attribute 34, 1
  12              		.eabi_attribute 18, 4
  13              		.thumb
  14              		.syntax unified
  15              		.file	"pk_ui.c"
  16              		.text
  17              	.Ltext0:
  18              		.cfi_sections	.debug_frame
  19              		.section	.text.debug_printBuff,"ax",%progbits
  20              		.align	2
  21              		.global	debug_printBuff
  22              		.thumb
  23              		.thumb_func
  24              		.type	debug_printBuff, %function
  25              	debug_printBuff:
  26              	.LFB64:
  27              		.file 1 "pk_ui.c"
   1:pk_ui.c       **** /* 
   2:pk_ui.c       ****     holds functions 
   3:pk_ui.c       ****     for the OLED UI
   4:pk_ui.c       **** */
   5:pk_ui.c       **** 
   6:pk_ui.c       **** #include <pk_ui.h>
   7:pk_ui.c       **** 
   8:pk_ui.c       **** uint8 display_state = STARTUP;
   9:pk_ui.c       **** 
  10:pk_ui.c       **** /***************************************************
  11:pk_ui.c       **** *       VALUES FOR RECORD DETAIL MENU              *
  12:pk_ui.c       **** ***************************************************/
  13:pk_ui.c       **** // menu items for record detail menu
  14:pk_ui.c       **** int detail_menu_size = 5;
  15:pk_ui.c       **** char detail_menu_items[5][20] = {
  16:pk_ui.c       ****     "type username",
  17:pk_ui.c       ****     "type password",
  18:pk_ui.c       ****     "view credentials",
  19:pk_ui.c       ****     "view TOTP code",
  20:pk_ui.c       ****     "<- go back"
  21:pk_ui.c       **** };
  22:pk_ui.c       **** // menu coordinates
  23:pk_ui.c       **** int detail_menu_top = 20;
  24:pk_ui.c       **** int detail_menu_left = 20;
  25:pk_ui.c       **** 
  26:pk_ui.c       **** // load first items from memory
  27:pk_ui.c       **** int buff_offset = 0; // sd card location of first record
  28:pk_ui.c       **** int buff_size = 12;
  29:pk_ui.c       **** int num_loaded = 0;
  30:pk_ui.c       **** Record record_buffer[12] = {
ARM GAS  C:\Users\bkettle\AppData\Local\Temp\ccPIuWNe.s 			page 2


  31:pk_ui.c       ****     {"rec1", "username1", "password1"},
  32:pk_ui.c       ****     {"rec2", "username2", "password2"},
  33:pk_ui.c       ****     {"rec3", "username3", "password3"},
  34:pk_ui.c       ****     {"rec4", "username4", "password4"},
  35:pk_ui.c       ****     {"rec5", "username5", "password5"},
  36:pk_ui.c       ****     {"rec6", "username6", "password6"},
  37:pk_ui.c       ****     {"rec7", "username7", "password7"},
  38:pk_ui.c       ****     {"rec8", "username8", "password8"},
  39:pk_ui.c       ****     {"rec9", "username9", "password9"},
  40:pk_ui.c       ****     {"rec10", "username10", "password10"},
  41:pk_ui.c       ****     {"rec11", "username11", "password11"},
  42:pk_ui.c       ****     {"rec12", "username12", "password12"},
  43:pk_ui.c       **** };
  44:pk_ui.c       **** 
  45:pk_ui.c       **** // to store the currently selected record
  46:pk_ui.c       **** Record curr_record;
  47:pk_ui.c       **** 
  48:pk_ui.c       **** // store the previous index to calculate if a change occurred
  49:pk_ui.c       **** int prev_index = 0;
  50:pk_ui.c       **** 
  51:pk_ui.c       **** // DEBUG
  52:pk_ui.c       **** void debug_printBuff() {
  28              		.loc 1 52 0
  29              		.cfi_startproc
  30              		@ args = 0, pretend = 0, frame = 16
  31              		@ frame_needed = 0, uses_anonymous_args = 0
  32 0000 30B5     		push	{r4, r5, lr}
  33              		.cfi_def_cfa_offset 12
  34              		.cfi_offset 4, -12
  35              		.cfi_offset 5, -8
  36              		.cfi_offset 14, -4
  37 0002 99B0     		sub	sp, sp, #100
  38              		.cfi_def_cfa_offset 112
  53:pk_ui.c       ****     UART_1_PutString("\n\r------------");
  39              		.loc 1 53 0
  40 0004 1248     		ldr	r0, .L5
  41 0006 FFF7FEFF 		bl	UART_1_PutString
  42              	.LVL0:
  54:pk_ui.c       ****     char to_print[10];
  55:pk_ui.c       ****     sprintf(to_print, "%d", SD_getNumRecords());
  43              		.loc 1 55 0
  44 000a FFF7FEFF 		bl	SD_getNumRecords
  45              	.LVL1:
  46 000e 0246     		mov	r2, r0
  47 0010 1049     		ldr	r1, .L5+4
  48 0012 15A8     		add	r0, sp, #84
  49 0014 FFF7FEFF 		bl	sprintf
  50              	.LVL2:
  56:pk_ui.c       ****     UART_1_PutString(to_print);
  51              		.loc 1 56 0
  52 0018 15A8     		add	r0, sp, #84
  53 001a FFF7FEFF 		bl	UART_1_PutString
  54              	.LVL3:
  55              	.LBB2:
  57:pk_ui.c       ****     for (int i=0; i<num_loaded; i++) {
  56              		.loc 1 57 0
  57 001e 0025     		movs	r5, #0
ARM GAS  C:\Users\bkettle\AppData\Local\Temp\ccPIuWNe.s 			page 3


  58 0020 0FE0     		b	.L2
  59              	.LVL4:
  60              	.L3:
  58:pk_ui.c       ****         serial_print_record(record_buffer[i]);
  61              		.loc 1 58 0 discriminator 3
  62 0022 05EB4502 		add	r2, r5, r5, lsl #1
  63 0026 5301     		lsls	r3, r2, #5
  64 0028 0B4C     		ldr	r4, .L5+8
  65 002a 1C44     		add	r4, r4, r3
  66 002c 5022     		movs	r2, #80
  67 002e 04F11001 		add	r1, r4, #16
  68 0032 6846     		mov	r0, sp
  69 0034 FFF7FEFF 		bl	memcpy
  70              	.LVL5:
  71 0038 94E80F00 		ldmia	r4, {r0, r1, r2, r3}
  72 003c FFF7FEFF 		bl	serial_print_record
  73              	.LVL6:
  57:pk_ui.c       ****     for (int i=0; i<num_loaded; i++) {
  74              		.loc 1 57 0 discriminator 3
  75 0040 0135     		adds	r5, r5, #1
  76              	.LVL7:
  77              	.L2:
  57:pk_ui.c       ****     for (int i=0; i<num_loaded; i++) {
  78              		.loc 1 57 0 is_stmt 0 discriminator 1
  79 0042 064B     		ldr	r3, .L5+12
  80 0044 1B68     		ldr	r3, [r3]
  81 0046 9D42     		cmp	r5, r3
  82 0048 EBDB     		blt	.L3
  83              	.LBE2:
  59:pk_ui.c       ****     }
  60:pk_ui.c       **** }
  84              		.loc 1 60 0 is_stmt 1
  85 004a 19B0     		add	sp, sp, #100
  86              		.cfi_def_cfa_offset 12
  87              		@ sp needed
  88 004c 30BD     		pop	{r4, r5, pc}
  89              	.LVL8:
  90              	.L6:
  91 004e 00BF     		.align	2
  92              	.L5:
  93 0050 00000000 		.word	.LC0
  94 0054 10000000 		.word	.LC1
  95 0058 00000000 		.word	.LANCHOR0
  96 005c 00000000 		.word	.LANCHOR1
  97              		.cfi_endproc
  98              	.LFE64:
  99              		.size	debug_printBuff, .-debug_printBuff
 100              		.section	.text.ui_updateBuffer,"ax",%progbits
 101              		.align	2
 102              		.global	ui_updateBuffer
 103              		.thumb
 104              		.thumb_func
 105              		.type	ui_updateBuffer, %function
 106              	ui_updateBuffer:
 107              	.LFB65:
  61:pk_ui.c       ****     
  62:pk_ui.c       **** // update the buffer from the sd card
ARM GAS  C:\Users\bkettle\AppData\Local\Temp\ccPIuWNe.s 			page 4


  63:pk_ui.c       **** // loads 5 behind current, then current, then 6
  64:pk_ui.c       **** // sets buff_offset and num_loaded
  65:pk_ui.c       **** void ui_updateBuffer(int curr_index) {
 108              		.loc 1 65 0
 109              		.cfi_startproc
 110              		@ args = 0, pretend = 0, frame = 0
 111              		@ frame_needed = 0, uses_anonymous_args = 0
 112              	.LVL9:
 113 0000 08B5     		push	{r3, lr}
 114              		.cfi_def_cfa_offset 8
 115              		.cfi_offset 3, -8
 116              		.cfi_offset 14, -4
  66:pk_ui.c       ****     // determine where the new buffer should start
  67:pk_ui.c       ****     buff_offset = 0;
 117              		.loc 1 67 0
 118 0002 0022     		movs	r2, #0
 119 0004 0D4B     		ldr	r3, .L11
 120 0006 5A60     		str	r2, [r3, #4]
  68:pk_ui.c       ****     // check if there is enough space for 5 behind
  69:pk_ui.c       ****     if (curr_index - 5 > 0) 
 121              		.loc 1 69 0
 122 0008 0538     		subs	r0, r0, #5
 123              	.LVL10:
 124 000a 9042     		cmp	r0, r2
 125 000c 00DD     		ble	.L8
  70:pk_ui.c       ****         buff_offset = curr_index-5;
 126              		.loc 1 70 0
 127 000e 5860     		str	r0, [r3, #4]
 128              	.L8:
  71:pk_ui.c       ****     
  72:pk_ui.c       ****     // find how many records we should load
  73:pk_ui.c       ****     // based on the number in the SD card
  74:pk_ui.c       ****     int sd_size = SD_getNumRecords();
 129              		.loc 1 74 0
 130 0010 FFF7FEFF 		bl	SD_getNumRecords
 131              	.LVL11:
  75:pk_ui.c       ****     // first assume we hold all records after starting record in buff
  76:pk_ui.c       ****     num_loaded = sd_size - buff_offset;
 132              		.loc 1 76 0
 133 0014 094A     		ldr	r2, .L11
 134 0016 5368     		ldr	r3, [r2, #4]
 135 0018 C01A     		subs	r0, r0, r3
 136              	.LVL12:
 137 001a 1060     		str	r0, [r2]
  77:pk_ui.c       ****     // if there are more total records than
  78:pk_ui.c       ****     // will fit in the buffer
  79:pk_ui.c       ****     if (buff_offset + buff_size < num_loaded)
 138              		.loc 1 79 0
 139 001c 084A     		ldr	r2, .L11+4
 140 001e D2F88024 		ldr	r2, [r2, #1152]
 141 0022 9918     		adds	r1, r3, r2
 142 0024 8842     		cmp	r0, r1
 143 0026 01DD     		ble	.L9
  80:pk_ui.c       ****         num_loaded = buff_size;
 144              		.loc 1 80 0
 145 0028 0449     		ldr	r1, .L11
 146 002a 0A60     		str	r2, [r1]
ARM GAS  C:\Users\bkettle\AppData\Local\Temp\ccPIuWNe.s 			page 5


 147              	.L9:
  81:pk_ui.c       ****     
  82:pk_ui.c       ****     SD_readRecords(buff_offset, num_loaded, record_buffer);
 148              		.loc 1 82 0
 149 002c 044A     		ldr	r2, .L11+4
 150 002e 0349     		ldr	r1, .L11
 151 0030 0968     		ldr	r1, [r1]
 152 0032 1846     		mov	r0, r3
 153 0034 FFF7FEFF 		bl	SD_readRecords
 154              	.LVL13:
 155 0038 08BD     		pop	{r3, pc}
 156              	.L12:
 157 003a 00BF     		.align	2
 158              	.L11:
 159 003c 00000000 		.word	.LANCHOR1
 160 0040 00000000 		.word	.LANCHOR0
 161              		.cfi_endproc
 162              	.LFE65:
 163              		.size	ui_updateBuffer, .-ui_updateBuffer
 164              		.section	.text.ui_drawRecordList,"ax",%progbits
 165              		.align	2
 166              		.global	ui_drawRecordList
 167              		.thumb
 168              		.thumb_func
 169              		.type	ui_drawRecordList, %function
 170              	ui_drawRecordList:
 171              	.LFB66:
  83:pk_ui.c       ****     num_loaded = num_loaded;
  84:pk_ui.c       ****     //debug_printBuff();
  85:pk_ui.c       **** }
  86:pk_ui.c       ****     
  87:pk_ui.c       ****     
  88:pk_ui.c       **** // UI Methods
  89:pk_ui.c       **** void ui_drawRecordList(Record * buff, int curr_index) {
 172              		.loc 1 89 0
 173              		.cfi_startproc
 174              		@ args = 0, pretend = 0, frame = 0
 175              		@ frame_needed = 0, uses_anonymous_args = 0
 176              	.LVL14:
 177 0000 F0B5     		push	{r4, r5, r6, r7, lr}
 178              		.cfi_def_cfa_offset 20
 179              		.cfi_offset 4, -20
 180              		.cfi_offset 5, -16
 181              		.cfi_offset 6, -12
 182              		.cfi_offset 7, -8
 183              		.cfi_offset 14, -4
 184 0002 83B0     		sub	sp, sp, #12
 185              		.cfi_def_cfa_offset 32
 186 0004 0746     		mov	r7, r0
  90:pk_ui.c       ****     /* uses the record buff, the current record number,
  91:pk_ui.c       ****         and the current buffer offset to print the current record menu */
  92:pk_ui.c       ****     int buff_index = curr_index - buff_offset;
 187              		.loc 1 92 0
 188 0006 4B4B     		ldr	r3, .L27
 189 0008 5868     		ldr	r0, [r3, #4]
 190              	.LVL15:
  93:pk_ui.c       ****     // handle overflow beyond bounds
ARM GAS  C:\Users\bkettle\AppData\Local\Temp\ccPIuWNe.s 			page 6


  94:pk_ui.c       ****     if (buff_index < 0) {
 191              		.loc 1 94 0
 192 000a 0C1A     		subs	r4, r1, r0
 193 000c 05D5     		bpl	.L14
  95:pk_ui.c       ****         Dial_SetCounter(0);
 194              		.loc 1 95 0
 195 000e 0020     		movs	r0, #0
 196              	.LVL16:
 197 0010 FFF7FEFF 		bl	Dial_SetCounter
 198              	.LVL17:
  96:pk_ui.c       ****         curr_index = 0; // don't count as scroll - don't update buffer 
  97:pk_ui.c       ****         buff_index = 0;
 199              		.loc 1 97 0
 200 0014 0024     		movs	r4, #0
  96:pk_ui.c       ****         curr_index = 0; // don't count as scroll - don't update buffer 
 201              		.loc 1 96 0
 202 0016 2546     		mov	r5, r4
 203 0018 10E0     		b	.L15
 204              	.LVL18:
 205              	.L14:
 206 001a 0D46     		mov	r5, r1
  98:pk_ui.c       ****     } else if (buff_index > num_loaded -1) {
 207              		.loc 1 98 0
 208 001c 454B     		ldr	r3, .L27
 209 001e 1B68     		ldr	r3, [r3]
 210 0020 013B     		subs	r3, r3, #1
 211 0022 9C42     		cmp	r4, r3
 212 0024 0ADD     		ble	.L15
  99:pk_ui.c       ****         // reached end of records
 100:pk_ui.c       ****         // loaded in the buffer
 101:pk_ui.c       ****         // don't move further obvs
 102:pk_ui.c       ****         // if we're here, there must not be any more
 103:pk_ui.c       ****         // records in the sd card (i hope)
 104:pk_ui.c       ****         // because that should be taken care of at the end
 105:pk_ui.c       ****         // of this function (centering the current rec)
 106:pk_ui.c       ****         // thus, set to total number on sd card - 1
 107:pk_ui.c       ****         Dial_SetCounter(buff_index + buff_offset - 1);
 213              		.loc 1 107 0
 214 0026 2044     		add	r0, r0, r4
 215              	.LVL19:
 216 0028 0138     		subs	r0, r0, #1
 217 002a 40B2     		sxtb	r0, r0
 218 002c FFF7FEFF 		bl	Dial_SetCounter
 219              	.LVL20:
 108:pk_ui.c       ****         curr_index = buff_index + buff_offset -1; // don't count as scroll
 220              		.loc 1 108 0
 221 0030 404B     		ldr	r3, .L27
 222 0032 5D68     		ldr	r5, [r3, #4]
 223              	.LVL21:
 224 0034 2544     		add	r5, r5, r4
 225 0036 013D     		subs	r5, r5, #1
 226              	.LVL22:
 109:pk_ui.c       ****         buff_index = num_loaded - 1;
 227              		.loc 1 109 0
 228 0038 1C68     		ldr	r4, [r3]
 229 003a 013C     		subs	r4, r4, #1
 230              	.LVL23:
ARM GAS  C:\Users\bkettle\AppData\Local\Temp\ccPIuWNe.s 			page 7


 231              	.L15:
 110:pk_ui.c       ****     }
 111:pk_ui.c       ****     display_clear();
 232              		.loc 1 111 0
 233 003c FFF7FEFF 		bl	display_clear
 234              	.LVL24:
 112:pk_ui.c       ****     gfx_fillRect(0, 22, 100, 20, WHITE);
 235              		.loc 1 112 0
 236 0040 0126     		movs	r6, #1
 237 0042 0096     		str	r6, [sp]
 238 0044 1423     		movs	r3, #20
 239 0046 6422     		movs	r2, #100
 240 0048 1621     		movs	r1, #22
 241 004a 0020     		movs	r0, #0
 242 004c FFF7FEFF 		bl	gfx_fillRect
 243              	.LVL25:
 113:pk_ui.c       ****     gfx_setTextSize(1);
 244              		.loc 1 113 0
 245 0050 3046     		mov	r0, r6
 246 0052 FFF7FEFF 		bl	gfx_setTextSize
 247              	.LVL26:
 114:pk_ui.c       ****     gfx_setCursor(0,6);
 248              		.loc 1 114 0
 249 0056 0621     		movs	r1, #6
 250 0058 0020     		movs	r0, #0
 251 005a FFF7FEFF 		bl	gfx_setCursor
 252              	.LVL27:
 115:pk_ui.c       ****     gfx_setTextColor(WHITE);
 253              		.loc 1 115 0
 254 005e 3046     		mov	r0, r6
 255 0060 FFF7FEFF 		bl	gfx_setTextColor
 256              	.LVL28:
 116:pk_ui.c       ****     gfx_setTextSize(1);
 257              		.loc 1 116 0
 258 0064 3046     		mov	r0, r6
 259 0066 FFF7FEFF 		bl	gfx_setTextSize
 260              	.LVL29:
 117:pk_ui.c       ****     // only print these if we're not near the bottom end, otherwise "list end"
 118:pk_ui.c       ****     // buffer is always loaded from the bottom, so we can compare to 1,2 directly
 119:pk_ui.c       ****     gfx_println(buff_index >= 2 ? buff[buff_index-2].title : "list end"); // -2 line
 261              		.loc 1 119 0
 262 006a B442     		cmp	r4, r6
 263 006c 05DD     		ble	.L22
 264              		.loc 1 119 0 is_stmt 0 discriminator 1
 265 006e 04EB4403 		add	r3, r4, r4, lsl #1
 266 0072 5801     		lsls	r0, r3, #5
 267 0074 C038     		subs	r0, r0, #192
 268 0076 3844     		add	r0, r0, r7
 269 0078 00E0     		b	.L16
 270              	.L22:
 271              		.loc 1 119 0
 272 007a 2F48     		ldr	r0, .L27+4
 273              	.L16:
 274              		.loc 1 119 0 discriminator 4
 275 007c FFF7FEFF 		bl	gfx_println
 276              	.LVL30:
 120:pk_ui.c       ****     gfx_println(buff_index >= 1 ? buff[buff_index-1].title : "list end"); // -1 line
ARM GAS  C:\Users\bkettle\AppData\Local\Temp\ccPIuWNe.s 			page 8


 277              		.loc 1 120 0 is_stmt 1 discriminator 4
 278 0080 002C     		cmp	r4, #0
 279 0082 05DD     		ble	.L23
 280              		.loc 1 120 0 is_stmt 0 discriminator 1
 281 0084 04EB4403 		add	r3, r4, r4, lsl #1
 282 0088 5801     		lsls	r0, r3, #5
 283 008a 6038     		subs	r0, r0, #96
 284 008c 3844     		add	r0, r0, r7
 285 008e 00E0     		b	.L17
 286              	.L23:
 287              		.loc 1 120 0
 288 0090 2948     		ldr	r0, .L27+4
 289              	.L17:
 290              		.loc 1 120 0 discriminator 4
 291 0092 FFF7FEFF 		bl	gfx_println
 292              	.LVL31:
 121:pk_ui.c       ****     gfx_setTextSize(2);
 293              		.loc 1 121 0 is_stmt 1 discriminator 4
 294 0096 0220     		movs	r0, #2
 295 0098 FFF7FEFF 		bl	gfx_setTextSize
 296              	.LVL32:
 122:pk_ui.c       ****     gfx_setTextColor(BLACK);
 297              		.loc 1 122 0 discriminator 4
 298 009c 0020     		movs	r0, #0
 299 009e FFF7FEFF 		bl	gfx_setTextColor
 300              	.LVL33:
 123:pk_ui.c       ****     gfx_setCursor(5,24);
 301              		.loc 1 123 0 discriminator 4
 302 00a2 1821     		movs	r1, #24
 303 00a4 0520     		movs	r0, #5
 304 00a6 FFF7FEFF 		bl	gfx_setCursor
 305              	.LVL34:
 124:pk_ui.c       ****     gfx_println(buff[buff_index].title); // 0 line
 306              		.loc 1 124 0 discriminator 4
 307 00aa 04EB4403 		add	r3, r4, r4, lsl #1
 308 00ae 5E01     		lsls	r6, r3, #5
 309 00b0 B819     		adds	r0, r7, r6
 310 00b2 FFF7FEFF 		bl	gfx_println
 311              	.LVL35:
 125:pk_ui.c       ****     gfx_setTextSize(1);
 312              		.loc 1 125 0 discriminator 4
 313 00b6 0120     		movs	r0, #1
 314 00b8 FFF7FEFF 		bl	gfx_setTextSize
 315              	.LVL36:
 126:pk_ui.c       ****     gfx_setTextColor(WHITE);
 316              		.loc 1 126 0 discriminator 4
 317 00bc 0120     		movs	r0, #1
 318 00be FFF7FEFF 		bl	gfx_setTextColor
 319              	.LVL37:
 127:pk_ui.c       ****     gfx_setCursor(0,42);
 320              		.loc 1 127 0 discriminator 4
 321 00c2 2A21     		movs	r1, #42
 322 00c4 0020     		movs	r0, #0
 323 00c6 FFF7FEFF 		bl	gfx_setCursor
 324              	.LVL38:
 128:pk_ui.c       ****     // only print these if we're not near the top end, otherwise "list end"
 129:pk_ui.c       ****     gfx_println(buff_index <= num_loaded-2 ? buff[buff_index+1].title : "list end"); // +1 line
ARM GAS  C:\Users\bkettle\AppData\Local\Temp\ccPIuWNe.s 			page 9


 325              		.loc 1 129 0 discriminator 4
 326 00ca 1A4B     		ldr	r3, .L27
 327 00cc 1B68     		ldr	r3, [r3]
 328 00ce 023B     		subs	r3, r3, #2
 329 00d0 9C42     		cmp	r4, r3
 330 00d2 05DC     		bgt	.L24
 331              		.loc 1 129 0 is_stmt 0 discriminator 1
 332 00d4 631C     		adds	r3, r4, #1
 333 00d6 03EB4303 		add	r3, r3, r3, lsl #1
 334 00da 5801     		lsls	r0, r3, #5
 335 00dc 3844     		add	r0, r0, r7
 336 00de 00E0     		b	.L18
 337              	.L24:
 338              		.loc 1 129 0
 339 00e0 1548     		ldr	r0, .L27+4
 340              	.L18:
 341              		.loc 1 129 0 discriminator 4
 342 00e2 FFF7FEFF 		bl	gfx_println
 343              	.LVL39:
 130:pk_ui.c       ****     gfx_println(buff_index <= num_loaded-3 ? buff[buff_index+2].title : "list end"); // +2 line
 344              		.loc 1 130 0 is_stmt 1 discriminator 4
 345 00e6 134B     		ldr	r3, .L27
 346 00e8 1B68     		ldr	r3, [r3]
 347 00ea 033B     		subs	r3, r3, #3
 348 00ec 9C42     		cmp	r4, r3
 349 00ee 03DC     		bgt	.L25
 350              		.loc 1 130 0 is_stmt 0 discriminator 1
 351 00f0 06F1C000 		add	r0, r6, #192
 352 00f4 3844     		add	r0, r0, r7
 353 00f6 00E0     		b	.L19
 354              	.L25:
 355              		.loc 1 130 0
 356 00f8 0F48     		ldr	r0, .L27+4
 357              	.L19:
 358              		.loc 1 130 0 discriminator 4
 359 00fa FFF7FEFF 		bl	gfx_println
 360              	.LVL40:
 131:pk_ui.c       ****     display_update();
 361              		.loc 1 131 0 is_stmt 1 discriminator 4
 362 00fe FFF7FEFF 		bl	display_update
 363              	.LVL41:
 132:pk_ui.c       ****     
 133:pk_ui.c       ****     // BUFFER CENTERING
 134:pk_ui.c       ****     // update record buffer if approaching the end
 135:pk_ui.c       ****     // and we have a different cursor value than last time
 136:pk_ui.c       ****     if (curr_index != prev_index) {
 364              		.loc 1 136 0 discriminator 4
 365 0102 0C4B     		ldr	r3, .L27
 366 0104 9B68     		ldr	r3, [r3, #8]
 367 0106 9D42     		cmp	r5, r3
 368 0108 11D0     		beq	.L13
 137:pk_ui.c       ****         //USB_print("\n\r scrolled");
 138:pk_ui.c       ****         if (curr_index - buff_offset < 3) {
 369              		.loc 1 138 0
 370 010a 0A4B     		ldr	r3, .L27
 371 010c 5B68     		ldr	r3, [r3, #4]
 372 010e EB1A     		subs	r3, r5, r3
ARM GAS  C:\Users\bkettle\AppData\Local\Temp\ccPIuWNe.s 			page 10


 373 0110 022B     		cmp	r3, #2
 374 0112 03DC     		bgt	.L21
 139:pk_ui.c       ****             // currently highlighted is the third from the bottom
 140:pk_ui.c       ****             // we want this to be middle-ish
 141:pk_ui.c       ****             //USB_print("\n\r updating low");
 142:pk_ui.c       ****             ui_updateBuffer(curr_index);
 375              		.loc 1 142 0
 376 0114 2846     		mov	r0, r5
 377 0116 FFF7FEFF 		bl	ui_updateBuffer
 378              	.LVL42:
 379 011a 08E0     		b	.L13
 380              	.L21:
 143:pk_ui.c       ****         } else if (curr_index - buff_offset > buff_size - 4) {
 381              		.loc 1 143 0
 382 011c 074A     		ldr	r2, .L27+8
 383 011e D2F88024 		ldr	r2, [r2, #1152]
 384 0122 043A     		subs	r2, r2, #4
 385 0124 9342     		cmp	r3, r2
 386 0126 02DD     		ble	.L13
 144:pk_ui.c       ****             // 3rd from top is currently hightlighted
 145:pk_ui.c       ****             // so center it
 146:pk_ui.c       ****             //USB_print("\n\r updating high");
 147:pk_ui.c       ****             ui_updateBuffer(curr_index);
 387              		.loc 1 147 0
 388 0128 2846     		mov	r0, r5
 389 012a FFF7FEFF 		bl	ui_updateBuffer
 390              	.LVL43:
 391              	.L13:
 148:pk_ui.c       ****         }
 149:pk_ui.c       ****     }
 150:pk_ui.c       **** }
 392              		.loc 1 150 0
 393 012e 03B0     		add	sp, sp, #12
 394              		.cfi_def_cfa_offset 20
 395              		@ sp needed
 396 0130 F0BD     		pop	{r4, r5, r6, r7, pc}
 397              	.LVL44:
 398              	.L28:
 399 0132 00BF     		.align	2
 400              	.L27:
 401 0134 00000000 		.word	.LANCHOR1
 402 0138 14000000 		.word	.LC2
 403 013c 00000000 		.word	.LANCHOR0
 404              		.cfi_endproc
 405              	.LFE66:
 406              		.size	ui_drawRecordList, .-ui_drawRecordList
 407              		.section	.text.ui_recordDetailUpdate,"ax",%progbits
 408              		.align	2
 409              		.global	ui_recordDetailUpdate
 410              		.thumb
 411              		.thumb_func
 412              		.type	ui_recordDetailUpdate, %function
 413              	ui_recordDetailUpdate:
 414              	.LFB67:
 151:pk_ui.c       **** 
 152:pk_ui.c       **** void ui_recordDetailUpdate(int cursor) {
 415              		.loc 1 152 0
ARM GAS  C:\Users\bkettle\AppData\Local\Temp\ccPIuWNe.s 			page 11


 416              		.cfi_startproc
 417              		@ args = 0, pretend = 0, frame = 0
 418              		@ frame_needed = 0, uses_anonymous_args = 0
 419              	.LVL45:
 420 0000 10B5     		push	{r4, lr}
 421              		.cfi_def_cfa_offset 8
 422              		.cfi_offset 4, -8
 423              		.cfi_offset 14, -4
 424 0002 82B0     		sub	sp, sp, #8
 425              		.cfi_def_cfa_offset 16
 153:pk_ui.c       ****     if (cursor < 0) {
 426              		.loc 1 153 0
 427 0004 041E     		subs	r4, r0, #0
 428 0006 04DA     		bge	.L30
 154:pk_ui.c       ****         Dial_SetCounter(0);
 429              		.loc 1 154 0
 430 0008 0020     		movs	r0, #0
 431              	.LVL46:
 432 000a FFF7FEFF 		bl	Dial_SetCounter
 433              	.LVL47:
 155:pk_ui.c       ****         cursor = 0;
 434              		.loc 1 155 0
 435 000e 0024     		movs	r4, #0
 436 0010 0CE0     		b	.L31
 437              	.LVL48:
 438              	.L30:
 156:pk_ui.c       ****     } else if (cursor > detail_menu_size -1) {
 439              		.loc 1 156 0
 440 0012 124B     		ldr	r3, .L33
 441 0014 D3F88404 		ldr	r0, [r3, #1156]
 442              	.LVL49:
 443 0018 431E     		subs	r3, r0, #1
 444 001a 9C42     		cmp	r4, r3
 445 001c 06DD     		ble	.L31
 157:pk_ui.c       ****         Dial_SetCounter(detail_menu_size - 1);
 446              		.loc 1 157 0
 447 001e 58B2     		sxtb	r0, r3
 448 0020 FFF7FEFF 		bl	Dial_SetCounter
 449              	.LVL50:
 158:pk_ui.c       ****         cursor = detail_menu_size - 1;
 450              		.loc 1 158 0
 451 0024 0D4B     		ldr	r3, .L33
 452 0026 D3F88444 		ldr	r4, [r3, #1156]
 453              	.LVL51:
 454 002a 013C     		subs	r4, r4, #1
 455              	.LVL52:
 456              	.L31:
 159:pk_ui.c       ****     }
 160:pk_ui.c       ****     // this uses the coordinates of the menu from draw_record_detail
 161:pk_ui.c       ****     gfx_fillRect(0,detail_menu_top,detail_menu_left,44,BLACK);
 457              		.loc 1 161 0
 458 002c 0B4B     		ldr	r3, .L33
 459 002e B3F98824 		ldrsh	r2, [r3, #1160]
 460 0032 B3F98C14 		ldrsh	r1, [r3, #1164]
 461 0036 0020     		movs	r0, #0
 462 0038 0090     		str	r0, [sp]
 463 003a 2C23     		movs	r3, #44
ARM GAS  C:\Users\bkettle\AppData\Local\Temp\ccPIuWNe.s 			page 12


 464 003c FFF7FEFF 		bl	gfx_fillRect
 465              	.LVL53:
 162:pk_ui.c       ****     gfx_drawCircle(10,24+9*cursor,2,WHITE);
 466              		.loc 1 162 0
 467 0040 04EBC404 		add	r4, r4, r4, lsl #3
 468              	.LVL54:
 469 0044 04F11801 		add	r1, r4, #24
 470 0048 0123     		movs	r3, #1
 471 004a 0222     		movs	r2, #2
 472 004c 09B2     		sxth	r1, r1
 473 004e 0A20     		movs	r0, #10
 474 0050 FFF7FEFF 		bl	gfx_drawCircle
 475              	.LVL55:
 163:pk_ui.c       ****     display_update();
 476              		.loc 1 163 0
 477 0054 FFF7FEFF 		bl	display_update
 478              	.LVL56:
 164:pk_ui.c       **** }
 479              		.loc 1 164 0
 480 0058 02B0     		add	sp, sp, #8
 481              		.cfi_def_cfa_offset 8
 482              		@ sp needed
 483 005a 10BD     		pop	{r4, pc}
 484              	.L34:
 485              		.align	2
 486              	.L33:
 487 005c 00000000 		.word	.LANCHOR0
 488              		.cfi_endproc
 489              	.LFE67:
 490              		.size	ui_recordDetailUpdate, .-ui_recordDetailUpdate
 491              		.section	.text.ui_drawRecordDetail,"ax",%progbits
 492              		.align	2
 493              		.global	ui_drawRecordDetail
 494              		.thumb
 495              		.thumb_func
 496              		.type	ui_drawRecordDetail, %function
 497              	ui_drawRecordDetail:
 498              	.LFB68:
 165:pk_ui.c       **** 
 166:pk_ui.c       **** void ui_drawRecordDetail(Record record) {
 499              		.loc 1 166 0
 500              		.cfi_startproc
 501              		@ args = 96, pretend = 16, frame = 0
 502              		@ frame_needed = 0, uses_anonymous_args = 0
 503 0000 84B0     		sub	sp, sp, #16
 504              		.cfi_def_cfa_offset 16
 505 0002 38B5     		push	{r3, r4, r5, lr}
 506              		.cfi_def_cfa_offset 32
 507              		.cfi_offset 3, -32
 508              		.cfi_offset 4, -28
 509              		.cfi_offset 5, -24
 510              		.cfi_offset 14, -20
 511 0004 04AC     		add	r4, sp, #16
 512 0006 84E80F00 		stmia	r4, {r0, r1, r2, r3}
 167:pk_ui.c       ****     display_clear();
 513              		.loc 1 167 0
 514 000a FFF7FEFF 		bl	display_clear
ARM GAS  C:\Users\bkettle\AppData\Local\Temp\ccPIuWNe.s 			page 13


 515              	.LVL57:
 168:pk_ui.c       ****     gfx_setCursor(0,6);
 516              		.loc 1 168 0
 517 000e 0621     		movs	r1, #6
 518 0010 0020     		movs	r0, #0
 519 0012 FFF7FEFF 		bl	gfx_setCursor
 520              	.LVL58:
 169:pk_ui.c       ****     gfx_setTextSize(1);
 521              		.loc 1 169 0
 522 0016 0120     		movs	r0, #1
 523 0018 FFF7FEFF 		bl	gfx_setTextSize
 524              	.LVL59:
 170:pk_ui.c       ****     gfx_setTextColor(WHITE);
 525              		.loc 1 170 0
 526 001c 0120     		movs	r0, #1
 527 001e FFF7FEFF 		bl	gfx_setTextColor
 528              	.LVL60:
 171:pk_ui.c       ****     gfx_println(record.title);
 529              		.loc 1 171 0
 530 0022 04A8     		add	r0, sp, #16
 531 0024 FFF7FEFF 		bl	gfx_println
 532              	.LVL61:
 533              	.LBB3:
 172:pk_ui.c       ****     for (int i = 0; i<detail_menu_size; i++) {
 534              		.loc 1 172 0
 535 0028 0024     		movs	r4, #0
 536 002a 13E0     		b	.L36
 537              	.LVL62:
 538              	.L37:
 173:pk_ui.c       ****         gfx_setCursor(detail_menu_left, detail_menu_top + 9*i);
 539              		.loc 1 173 0 discriminator 3
 540 002c 04EBC401 		add	r1, r4, r4, lsl #3
 541 0030 114D     		ldr	r5, .L39
 542 0032 D5F88C34 		ldr	r3, [r5, #1164]
 543 0036 1944     		add	r1, r1, r3
 544 0038 09B2     		sxth	r1, r1
 545 003a B5F98804 		ldrsh	r0, [r5, #1160]
 546 003e FFF7FEFF 		bl	gfx_setCursor
 547              	.LVL63:
 174:pk_ui.c       ****         gfx_println(detail_menu_items[i]);
 548              		.loc 1 174 0 discriminator 3
 549 0042 05F59265 		add	r5, r5, #1168
 550 0046 04EB8403 		add	r3, r4, r4, lsl #2
 551 004a 9800     		lsls	r0, r3, #2
 552 004c 2844     		add	r0, r0, r5
 553 004e FFF7FEFF 		bl	gfx_println
 554              	.LVL64:
 172:pk_ui.c       ****     for (int i = 0; i<detail_menu_size; i++) {
 555              		.loc 1 172 0 discriminator 3
 556 0052 0134     		adds	r4, r4, #1
 557              	.LVL65:
 558              	.L36:
 172:pk_ui.c       ****     for (int i = 0; i<detail_menu_size; i++) {
 559              		.loc 1 172 0 is_stmt 0 discriminator 1
 560 0054 084B     		ldr	r3, .L39
 561 0056 D3F88434 		ldr	r3, [r3, #1156]
 562 005a 9C42     		cmp	r4, r3
ARM GAS  C:\Users\bkettle\AppData\Local\Temp\ccPIuWNe.s 			page 14


 563 005c E6DB     		blt	.L37
 564              	.LBE3:
 175:pk_ui.c       ****     }
 176:pk_ui.c       ****     display_update();
 565              		.loc 1 176 0 is_stmt 1
 566 005e FFF7FEFF 		bl	display_update
 567              	.LVL66:
 177:pk_ui.c       ****     Dial_SetCounter(0);
 568              		.loc 1 177 0
 569 0062 0020     		movs	r0, #0
 570 0064 FFF7FEFF 		bl	Dial_SetCounter
 571              	.LVL67:
 178:pk_ui.c       ****     ui_recordDetailUpdate(Dial_GetCounter());
 572              		.loc 1 178 0
 573 0068 FFF7FEFF 		bl	Dial_GetCounter
 574              	.LVL68:
 575 006c FFF7FEFF 		bl	ui_recordDetailUpdate
 576              	.LVL69:
 179:pk_ui.c       **** }
 577              		.loc 1 179 0
 578 0070 BDE83840 		pop	{r3, r4, r5, lr}
 579              		.cfi_restore 14
 580              		.cfi_restore 5
 581              		.cfi_restore 4
 582              		.cfi_restore 3
 583              		.cfi_def_cfa_offset 16
 584              	.LVL70:
 585 0074 04B0     		add	sp, sp, #16
 586              		.cfi_def_cfa_offset 0
 587 0076 7047     		bx	lr
 588              	.L40:
 589              		.align	2
 590              	.L39:
 591 0078 00000000 		.word	.LANCHOR0
 592              		.cfi_endproc
 593              	.LFE68:
 594              		.size	ui_drawRecordDetail, .-ui_drawRecordDetail
 595              		.section	.text.ui_drawRecordCredentials,"ax",%progbits
 596              		.align	2
 597              		.global	ui_drawRecordCredentials
 598              		.thumb
 599              		.thumb_func
 600              		.type	ui_drawRecordCredentials, %function
 601              	ui_drawRecordCredentials:
 602              	.LFB69:
 180:pk_ui.c       **** 
 181:pk_ui.c       **** void ui_drawRecordCredentials(Record record) {
 603              		.loc 1 181 0
 604              		.cfi_startproc
 605              		@ args = 96, pretend = 16, frame = 0
 606              		@ frame_needed = 0, uses_anonymous_args = 0
 607 0000 84B0     		sub	sp, sp, #16
 608              		.cfi_def_cfa_offset 16
 609 0002 08B5     		push	{r3, lr}
 610              		.cfi_def_cfa_offset 24
 611              		.cfi_offset 3, -24
 612              		.cfi_offset 14, -20
ARM GAS  C:\Users\bkettle\AppData\Local\Temp\ccPIuWNe.s 			page 15


 613 0004 0DF1080E 		add	lr, sp, #8
 614 0008 8EE80F00 		stmia	lr, {r0, r1, r2, r3}
 182:pk_ui.c       ****     display_clear();
 615              		.loc 1 182 0
 616 000c FFF7FEFF 		bl	display_clear
 617              	.LVL71:
 183:pk_ui.c       ****     gfx_setCursor(0,6);
 618              		.loc 1 183 0
 619 0010 0621     		movs	r1, #6
 620 0012 0020     		movs	r0, #0
 621 0014 FFF7FEFF 		bl	gfx_setCursor
 622              	.LVL72:
 184:pk_ui.c       ****     gfx_setTextSize(1);
 623              		.loc 1 184 0
 624 0018 0120     		movs	r0, #1
 625 001a FFF7FEFF 		bl	gfx_setTextSize
 626              	.LVL73:
 185:pk_ui.c       ****     gfx_setTextColor(WHITE);
 627              		.loc 1 185 0
 628 001e 0120     		movs	r0, #1
 629 0020 FFF7FEFF 		bl	gfx_setTextColor
 630              	.LVL74:
 186:pk_ui.c       ****     gfx_println(record.title);
 631              		.loc 1 186 0
 632 0024 02A8     		add	r0, sp, #8
 633 0026 FFF7FEFF 		bl	gfx_println
 634              	.LVL75:
 187:pk_ui.c       ****     gfx_print("user:\n\r  "); gfx_println(record.username);
 635              		.loc 1 187 0
 636 002a 0B48     		ldr	r0, .L43
 637 002c FFF7FEFF 		bl	gfx_print
 638              	.LVL76:
 639 0030 0DF11200 		add	r0, sp, #18
 640 0034 FFF7FEFF 		bl	gfx_println
 641              	.LVL77:
 188:pk_ui.c       ****     gfx_print("pass:\n\r  "); gfx_println(record.password);
 642              		.loc 1 188 0
 643 0038 0848     		ldr	r0, .L43+4
 644 003a FFF7FEFF 		bl	gfx_print
 645              	.LVL78:
 646 003e 0DF13A00 		add	r0, sp, #58
 647 0042 FFF7FEFF 		bl	gfx_println
 648              	.LVL79:
 189:pk_ui.c       ****     gfx_println("<- push to go back");
 649              		.loc 1 189 0
 650 0046 0648     		ldr	r0, .L43+8
 651 0048 FFF7FEFF 		bl	gfx_println
 652              	.LVL80:
 190:pk_ui.c       ****     display_update();
 653              		.loc 1 190 0
 654 004c FFF7FEFF 		bl	display_update
 655              	.LVL81:
 191:pk_ui.c       **** }
 656              		.loc 1 191 0
 657 0050 BDE80840 		pop	{r3, lr}
 658              		.cfi_restore 14
 659              		.cfi_restore 3
ARM GAS  C:\Users\bkettle\AppData\Local\Temp\ccPIuWNe.s 			page 16


 660              		.cfi_def_cfa_offset 16
 661 0054 04B0     		add	sp, sp, #16
 662              		.cfi_def_cfa_offset 0
 663 0056 7047     		bx	lr
 664              	.L44:
 665              		.align	2
 666              	.L43:
 667 0058 20000000 		.word	.LC3
 668 005c 2C000000 		.word	.LC4
 669 0060 38000000 		.word	.LC5
 670              		.cfi_endproc
 671              	.LFE69:
 672              		.size	ui_drawRecordCredentials, .-ui_drawRecordCredentials
 673              		.section	.text.ui_drawTOTP,"ax",%progbits
 674              		.align	2
 675              		.global	ui_drawTOTP
 676              		.thumb
 677              		.thumb_func
 678              		.type	ui_drawTOTP, %function
 679              	ui_drawTOTP:
 680              	.LFB70:
 192:pk_ui.c       **** 
 193:pk_ui.c       **** void ui_drawTOTP(Record record) {
 681              		.loc 1 193 0
 682              		.cfi_startproc
 683              		@ args = 96, pretend = 16, frame = 0
 684              		@ frame_needed = 0, uses_anonymous_args = 0
 685 0000 84B0     		sub	sp, sp, #16
 686              		.cfi_def_cfa_offset 16
 687 0002 08B5     		push	{r3, lr}
 688              		.cfi_def_cfa_offset 24
 689              		.cfi_offset 3, -24
 690              		.cfi_offset 14, -20
 691 0004 0DF1080E 		add	lr, sp, #8
 692 0008 8EE80F00 		stmia	lr, {r0, r1, r2, r3}
 194:pk_ui.c       ****     display_clear();
 693              		.loc 1 194 0
 694 000c FFF7FEFF 		bl	display_clear
 695              	.LVL82:
 195:pk_ui.c       ****     gfx_setCursor(0,6);
 696              		.loc 1 195 0
 697 0010 0621     		movs	r1, #6
 698 0012 0020     		movs	r0, #0
 699 0014 FFF7FEFF 		bl	gfx_setCursor
 700              	.LVL83:
 196:pk_ui.c       ****     gfx_setTextSize(1);
 701              		.loc 1 196 0
 702 0018 0120     		movs	r0, #1
 703 001a FFF7FEFF 		bl	gfx_setTextSize
 704              	.LVL84:
 197:pk_ui.c       ****     gfx_setTextColor(WHITE);
 705              		.loc 1 197 0
 706 001e 0120     		movs	r0, #1
 707 0020 FFF7FEFF 		bl	gfx_setTextColor
 708              	.LVL85:
 198:pk_ui.c       ****     gfx_println(record.title);
 709              		.loc 1 198 0
ARM GAS  C:\Users\bkettle\AppData\Local\Temp\ccPIuWNe.s 			page 17


 710 0024 02A8     		add	r0, sp, #8
 711 0026 FFF7FEFF 		bl	gfx_println
 712              	.LVL86:
 199:pk_ui.c       ****     gfx_setTextSize(2);
 713              		.loc 1 199 0
 714 002a 0220     		movs	r0, #2
 715 002c FFF7FEFF 		bl	gfx_setTextSize
 716              	.LVL87:
 200:pk_ui.c       ****     gfx_setTextSize(1);
 717              		.loc 1 200 0
 718 0030 0120     		movs	r0, #1
 719 0032 FFF7FEFF 		bl	gfx_setTextSize
 720              	.LVL88:
 201:pk_ui.c       ****     gfx_println("<- push to go back");
 721              		.loc 1 201 0
 722 0036 0448     		ldr	r0, .L47
 723 0038 FFF7FEFF 		bl	gfx_println
 724              	.LVL89:
 202:pk_ui.c       ****     display_update();
 725              		.loc 1 202 0
 726 003c FFF7FEFF 		bl	display_update
 727              	.LVL90:
 203:pk_ui.c       **** }
 728              		.loc 1 203 0
 729 0040 BDE80840 		pop	{r3, lr}
 730              		.cfi_restore 14
 731              		.cfi_restore 3
 732              		.cfi_def_cfa_offset 16
 733 0044 04B0     		add	sp, sp, #16
 734              		.cfi_def_cfa_offset 0
 735 0046 7047     		bx	lr
 736              	.L48:
 737              		.align	2
 738              	.L47:
 739 0048 38000000 		.word	.LC5
 740              		.cfi_endproc
 741              	.LFE70:
 742              		.size	ui_drawTOTP, .-ui_drawTOTP
 743              		.section	.text.ui_fsm,"ax",%progbits
 744              		.align	2
 745              		.global	ui_fsm
 746              		.thumb
 747              		.thumb_func
 748              		.type	ui_fsm, %function
 749              	ui_fsm:
 750              	.LFB71:
 204:pk_ui.c       **** 
 205:pk_ui.c       **** void ui_fsm(bool * enc_sw_flag) {
 751              		.loc 1 205 0
 752              		.cfi_startproc
 753              		@ args = 0, pretend = 0, frame = 16
 754              		@ frame_needed = 0, uses_anonymous_args = 0
 755              	.LVL91:
 756 0000 2DE9F043 		push	{r4, r5, r6, r7, r8, r9, lr}
 757              		.cfi_def_cfa_offset 28
 758              		.cfi_offset 4, -28
 759              		.cfi_offset 5, -24
ARM GAS  C:\Users\bkettle\AppData\Local\Temp\ccPIuWNe.s 			page 18


 760              		.cfi_offset 6, -20
 761              		.cfi_offset 7, -16
 762              		.cfi_offset 8, -12
 763              		.cfi_offset 9, -8
 764              		.cfi_offset 14, -4
 765 0004 99B0     		sub	sp, sp, #100
 766              		.cfi_def_cfa_offset 128
 767 0006 0546     		mov	r5, r0
 206:pk_ui.c       ****     // handle display updates
 207:pk_ui.c       ****     int curr_index = Dial_GetCounter();
 768              		.loc 1 207 0
 769 0008 FFF7FEFF 		bl	Dial_GetCounter
 770              	.LVL92:
 771 000c 0446     		mov	r4, r0
 772              	.LVL93:
 208:pk_ui.c       ****     switch (display_state) {
 773              		.loc 1 208 0
 774 000e 714B     		ldr	r3, .L63
 775 0010 1B7B     		ldrb	r3, [r3, #12]	@ zero_extendqisi2
 776 0012 042B     		cmp	r3, #4
 777 0014 00F2D880 		bhi	.L50
 778 0018 DFE803F0 		tbb	[pc, r3]
 779              	.L52:
 780 001c 03       		.byte	(.L51-.L52)/2
 781 001d 1F       		.byte	(.L53-.L52)/2
 782 001e 3E       		.byte	(.L54-.L52)/2
 783 001f 67       		.byte	(.L55-.L52)/2
 784 0020 C7       		.byte	(.L56-.L52)/2
 785 0021 00       		.p2align 1
 786              	.L51:
 209:pk_ui.c       ****         case STARTUP:
 210:pk_ui.c       ****             display_clear();
 787              		.loc 1 210 0
 788 0022 FFF7FEFF 		bl	display_clear
 789              	.LVL94:
 211:pk_ui.c       ****             gfx_setCursor(10,10);
 790              		.loc 1 211 0
 791 0026 0A21     		movs	r1, #10
 792 0028 0846     		mov	r0, r1
 793 002a FFF7FEFF 		bl	gfx_setCursor
 794              	.LVL95:
 212:pk_ui.c       ****             gfx_setTextSize(2);
 795              		.loc 1 212 0
 796 002e 0220     		movs	r0, #2
 797 0030 FFF7FEFF 		bl	gfx_setTextSize
 798              	.LVL96:
 213:pk_ui.c       ****             gfx_setTextColor(WHITE);
 799              		.loc 1 213 0
 800 0034 0120     		movs	r0, #1
 801 0036 FFF7FEFF 		bl	gfx_setTextColor
 802              	.LVL97:
 214:pk_ui.c       ****             gfx_println("LOGIN");
 803              		.loc 1 214 0
 804 003a 6748     		ldr	r0, .L63+4
 805 003c FFF7FEFF 		bl	gfx_println
 806              	.LVL98:
 215:pk_ui.c       ****             display_update();
ARM GAS  C:\Users\bkettle\AppData\Local\Temp\ccPIuWNe.s 			page 19


 807              		.loc 1 215 0
 808 0040 FFF7FEFF 		bl	display_update
 809              	.LVL99:
 216:pk_ui.c       ****             display_state = LOGIN;
 810              		.loc 1 216 0
 811 0044 0122     		movs	r2, #1
 812 0046 634B     		ldr	r3, .L63
 813 0048 1A73     		strb	r2, [r3, #12]
 217:pk_ui.c       ****             // set the initial buffer up
 218:pk_ui.c       ****             ui_updateBuffer(curr_index);
 814              		.loc 1 218 0
 815 004a 2046     		mov	r0, r4
 816 004c FFF7FEFF 		bl	ui_updateBuffer
 817              	.LVL100:
 219:pk_ui.c       ****             CyDelay(1000);
 818              		.loc 1 219 0
 819 0050 4FF47A70 		mov	r0, #1000
 820 0054 FFF7FEFF 		bl	CyDelay
 821              	.LVL101:
 220:pk_ui.c       ****         break;
 822              		.loc 1 220 0
 823 0058 B6E0     		b	.L50
 824              	.LVL102:
 825              	.L53:
 826              	.LBB4:
 221:pk_ui.c       ****         case LOGIN:
 222:pk_ui.c       ****             if (true) {
 223:pk_ui.c       ****                 char to_print[10];
 224:pk_ui.c       ****                 sprintf(to_print, "%d", curr_index);
 827              		.loc 1 224 0
 828 005a 0246     		mov	r2, r0
 829 005c 5F49     		ldr	r1, .L63+8
 830 005e 15A8     		add	r0, sp, #84
 831              	.LVL103:
 832 0060 FFF7FEFF 		bl	sprintf
 833              	.LVL104:
 225:pk_ui.c       ****                 display_clear();
 834              		.loc 1 225 0
 835 0064 FFF7FEFF 		bl	display_clear
 836              	.LVL105:
 226:pk_ui.c       ****                 gfx_setCursor(10,40);
 837              		.loc 1 226 0
 838 0068 2821     		movs	r1, #40
 839 006a 0A20     		movs	r0, #10
 840 006c FFF7FEFF 		bl	gfx_setCursor
 841              	.LVL106:
 227:pk_ui.c       ****                 gfx_println(to_print);
 842              		.loc 1 227 0
 843 0070 15A8     		add	r0, sp, #84
 844 0072 FFF7FEFF 		bl	gfx_println
 845              	.LVL107:
 228:pk_ui.c       ****                 display_update();
 846              		.loc 1 228 0
 847 0076 FFF7FEFF 		bl	display_update
 848              	.LVL108:
 849              	.LBE4:
 229:pk_ui.c       ****             }
ARM GAS  C:\Users\bkettle\AppData\Local\Temp\ccPIuWNe.s 			page 20


 230:pk_ui.c       ****             if (*enc_sw_flag == true) {
 850              		.loc 1 230 0
 851 007a 2B78     		ldrb	r3, [r5]	@ zero_extendqisi2
 852 007c 002B     		cmp	r3, #0
 853 007e 00F0A380 		beq	.L50
 231:pk_ui.c       ****                 display_state = RECORD_SELECT;
 854              		.loc 1 231 0
 855 0082 0222     		movs	r2, #2
 856 0084 534B     		ldr	r3, .L63
 857 0086 1A73     		strb	r2, [r3, #12]
 232:pk_ui.c       ****                 Dial_SetCounter(0);
 858              		.loc 1 232 0
 859 0088 0020     		movs	r0, #0
 860 008a FFF7FEFF 		bl	Dial_SetCounter
 861              	.LVL109:
 233:pk_ui.c       ****                 ui_drawRecordList(record_buffer, curr_index);
 862              		.loc 1 233 0
 863 008e 2146     		mov	r1, r4
 864 0090 5348     		ldr	r0, .L63+12
 865 0092 FFF7FEFF 		bl	ui_drawRecordList
 866              	.LVL110:
 867 0096 97E0     		b	.L50
 868              	.LVL111:
 869              	.L54:
 234:pk_ui.c       ****             }
 235:pk_ui.c       ****         break;
 236:pk_ui.c       ****         case RECORD_SELECT:
 237:pk_ui.c       ****             // handle any screen updates due to scrolling
 238:pk_ui.c       ****             // this check is being glitchy so skipping it
 239:pk_ui.c       ****             //if (Dial_GetCounter() != prev_dial) {
 240:pk_ui.c       ****             if (true) {
 241:pk_ui.c       ****                 // could load new values from SD card if nearing buffer ends
 242:pk_ui.c       ****                 // if close to end of sd card, don't update--last item in buff
 243:pk_ui.c       ****                 // should be last item on SD card.
 244:pk_ui.c       ****                 ui_drawRecordList(record_buffer, curr_index);
 870              		.loc 1 244 0
 871 0098 514E     		ldr	r6, .L63+12
 872 009a 0146     		mov	r1, r0
 873 009c 3046     		mov	r0, r6
 874              	.LVL112:
 875 009e FFF7FEFF 		bl	ui_drawRecordList
 876              	.LVL113:
 245:pk_ui.c       ****                 curr_record = record_buffer[curr_index - buff_offset];
 877              		.loc 1 245 0
 878 00a2 4C4B     		ldr	r3, .L63
 879 00a4 5B68     		ldr	r3, [r3, #4]
 880 00a6 E31A     		subs	r3, r4, r3
 881 00a8 03EB4303 		add	r3, r3, r3, lsl #1
 882 00ac 5901     		lsls	r1, r3, #5
 883 00ae 6022     		movs	r2, #96
 884 00b0 3144     		add	r1, r1, r6
 885 00b2 4C48     		ldr	r0, .L63+16
 886 00b4 FFF7FEFF 		bl	memcpy
 887              	.LVL114:
 246:pk_ui.c       ****             };
 247:pk_ui.c       ****             if (*enc_sw_flag) {
 888              		.loc 1 247 0
ARM GAS  C:\Users\bkettle\AppData\Local\Temp\ccPIuWNe.s 			page 21


 889 00b8 2B78     		ldrb	r3, [r5]	@ zero_extendqisi2
 890 00ba 002B     		cmp	r3, #0
 891 00bc 00F08480 		beq	.L50
 248:pk_ui.c       ****                 display_state = RECORD_DETAIL;
 892              		.loc 1 248 0
 893 00c0 0322     		movs	r2, #3
 894 00c2 444B     		ldr	r3, .L63
 895 00c4 1A73     		strb	r2, [r3, #12]
 249:pk_ui.c       ****                 ui_drawRecordDetail(curr_record);
 896              		.loc 1 249 0
 897 00c6 4749     		ldr	r1, .L63+16
 898 00c8 D1F80080 		ldr	r8, [r1]	@ unaligned
 899 00cc 4F68     		ldr	r7, [r1, #4]	@ unaligned
 900 00ce 8E68     		ldr	r6, [r1, #8]	@ unaligned
 901 00d0 CD68     		ldr	r5, [r1, #12]	@ unaligned
 902              	.LVL115:
 903 00d2 5022     		movs	r2, #80
 904 00d4 1031     		adds	r1, r1, #16
 905 00d6 6846     		mov	r0, sp
 906 00d8 FFF7FEFF 		bl	memcpy
 907              	.LVL116:
 908 00dc 4046     		mov	r0, r8
 909 00de 3946     		mov	r1, r7
 910 00e0 3246     		mov	r2, r6
 911 00e2 2B46     		mov	r3, r5
 912 00e4 FFF7FEFF 		bl	ui_drawRecordDetail
 913              	.LVL117:
 914 00e8 6EE0     		b	.L50
 915              	.LVL118:
 916              	.L55:
 250:pk_ui.c       ****             }
 251:pk_ui.c       ****         break;
 252:pk_ui.c       ****         case RECORD_DETAIL:
 253:pk_ui.c       ****             ui_recordDetailUpdate(curr_index);
 917              		.loc 1 253 0
 918 00ea FFF7FEFF 		bl	ui_recordDetailUpdate
 919              	.LVL119:
 254:pk_ui.c       ****             if (*enc_sw_flag) {
 920              		.loc 1 254 0
 921 00ee 2B78     		ldrb	r3, [r5]	@ zero_extendqisi2
 922 00f0 002B     		cmp	r3, #0
 923 00f2 69D0     		beq	.L50
 255:pk_ui.c       ****                 switch (curr_index) {
 924              		.loc 1 255 0
 925 00f4 042C     		cmp	r4, #4
 926 00f6 67D8     		bhi	.L50
 927 00f8 DFE804F0 		tbb	[pc, r4]
 928              	.L58:
 929 00fc 03       		.byte	(.L57-.L58)/2
 930 00fd 1B       		.byte	(.L59-.L58)/2
 931 00fe 34       		.byte	(.L60-.L58)/2
 932 00ff 66       		.byte	(.L50-.L58)/2
 933 0100 49       		.byte	(.L61-.L58)/2
 934 0101 00       		.p2align 1
 935              	.L57:
 256:pk_ui.c       ****                     case RECORD_TYPE_USER: 
 257:pk_ui.c       ****                     {
ARM GAS  C:\Users\bkettle\AppData\Local\Temp\ccPIuWNe.s 			page 22


 258:pk_ui.c       ****                         KB_TypeString(curr_record.username, true);
 936              		.loc 1 258 0
 937 0102 394D     		ldr	r5, .L63+20
 938              	.LVL120:
 939 0104 0121     		movs	r1, #1
 940 0106 2846     		mov	r0, r5
 941 0108 FFF7FEFF 		bl	KB_TypeString
 942              	.LVL121:
 259:pk_ui.c       ****                         // typestring writes to screen, so redraw.
 260:pk_ui.c       ****                         ui_drawRecordDetail(curr_record);
 943              		.loc 1 260 0
 944 010c 2B46     		mov	r3, r5
 945 010e 53F80A9D 		ldr	r9, [r3, #-10]!	@ unaligned
 946 0112 D3F80480 		ldr	r8, [r3, #4]	@ unaligned
 947 0116 9F68     		ldr	r7, [r3, #8]	@ unaligned
 948 0118 DE68     		ldr	r6, [r3, #12]	@ unaligned
 949 011a 5022     		movs	r2, #80
 950 011c A91D     		adds	r1, r5, #6
 951 011e 6846     		mov	r0, sp
 952 0120 FFF7FEFF 		bl	memcpy
 953              	.LVL122:
 954 0124 4846     		mov	r0, r9
 955 0126 4146     		mov	r1, r8
 956 0128 3A46     		mov	r2, r7
 957 012a 3346     		mov	r3, r6
 958 012c FFF7FEFF 		bl	ui_drawRecordDetail
 959              	.LVL123:
 261:pk_ui.c       ****                     }
 262:pk_ui.c       ****                     break;
 960              		.loc 1 262 0
 961 0130 4AE0     		b	.L50
 962              	.LVL124:
 963              	.L59:
 263:pk_ui.c       ****                     case RECORD_TYPE_PW:
 264:pk_ui.c       ****                     {
 265:pk_ui.c       ****                         KB_TypeString(curr_record.password, true);
 964              		.loc 1 265 0
 965 0132 2E4D     		ldr	r5, .L63+24
 966              	.LVL125:
 967 0134 0121     		movs	r1, #1
 968 0136 2846     		mov	r0, r5
 969 0138 FFF7FEFF 		bl	KB_TypeString
 970              	.LVL126:
 266:pk_ui.c       ****                         // typestring writes to screen, so redraw.
 267:pk_ui.c       ****                         ui_drawRecordDetail(curr_record);
 971              		.loc 1 267 0
 972 013c 2B46     		mov	r3, r5
 973 013e 53F8329D 		ldr	r9, [r3, #-50]!	@ unaligned
 974 0142 D3F80480 		ldr	r8, [r3, #4]	@ unaligned
 975 0146 9F68     		ldr	r7, [r3, #8]	@ unaligned
 976 0148 DE68     		ldr	r6, [r3, #12]	@ unaligned
 977 014a 5022     		movs	r2, #80
 978 014c A5F12201 		sub	r1, r5, #34
 979 0150 6846     		mov	r0, sp
 980 0152 FFF7FEFF 		bl	memcpy
 981              	.LVL127:
 982 0156 4846     		mov	r0, r9
ARM GAS  C:\Users\bkettle\AppData\Local\Temp\ccPIuWNe.s 			page 23


 983 0158 4146     		mov	r1, r8
 984 015a 3A46     		mov	r2, r7
 985 015c 3346     		mov	r3, r6
 986 015e FFF7FEFF 		bl	ui_drawRecordDetail
 987              	.LVL128:
 268:pk_ui.c       ****                     }
 269:pk_ui.c       ****                     break;
 988              		.loc 1 269 0
 989 0162 31E0     		b	.L50
 990              	.LVL129:
 991              	.L60:
 270:pk_ui.c       ****                     case RECORD_VIEW_CREDENTIALS:
 271:pk_ui.c       ****                     {
 272:pk_ui.c       ****                         ui_drawRecordCredentials(curr_record);
 992              		.loc 1 272 0
 993 0164 1F49     		ldr	r1, .L63+16
 994 0166 D1F80080 		ldr	r8, [r1]	@ unaligned
 995 016a 4F68     		ldr	r7, [r1, #4]	@ unaligned
 996 016c 8E68     		ldr	r6, [r1, #8]	@ unaligned
 997 016e CD68     		ldr	r5, [r1, #12]	@ unaligned
 998              	.LVL130:
 999 0170 5022     		movs	r2, #80
 1000 0172 1031     		adds	r1, r1, #16
 1001 0174 6846     		mov	r0, sp
 1002 0176 FFF7FEFF 		bl	memcpy
 1003              	.LVL131:
 1004 017a 4046     		mov	r0, r8
 1005 017c 3946     		mov	r1, r7
 1006 017e 3246     		mov	r2, r6
 1007 0180 2B46     		mov	r3, r5
 1008 0182 FFF7FEFF 		bl	ui_drawRecordCredentials
 1009              	.LVL132:
 273:pk_ui.c       ****                         display_state = DISPLAY_CREDENTIALS;
 1010              		.loc 1 273 0
 1011 0186 0422     		movs	r2, #4
 1012 0188 124B     		ldr	r3, .L63
 1013 018a 1A73     		strb	r2, [r3, #12]
 274:pk_ui.c       ****                     }
 275:pk_ui.c       ****                     break;
 1014              		.loc 1 275 0
 1015 018c 1CE0     		b	.L50
 1016              	.LVL133:
 1017              	.L61:
 276:pk_ui.c       ****                     case RECORD_VIEW_TOTP:
 277:pk_ui.c       ****                     break;
 278:pk_ui.c       ****                     case RECORD_BACK:
 279:pk_ui.c       ****                         // just go back to the record menu
 280:pk_ui.c       ****                         display_state = RECORD_SELECT;
 1018              		.loc 1 280 0
 1019 018e 0222     		movs	r2, #2
 1020 0190 104B     		ldr	r3, .L63
 1021 0192 1A73     		strb	r2, [r3, #12]
 281:pk_ui.c       ****                         Dial_SetCounter(0);
 1022              		.loc 1 281 0
 1023 0194 0020     		movs	r0, #0
 1024 0196 FFF7FEFF 		bl	Dial_SetCounter
 1025              	.LVL134:
ARM GAS  C:\Users\bkettle\AppData\Local\Temp\ccPIuWNe.s 			page 24


 282:pk_ui.c       ****                         ui_updateBuffer(0);
 1026              		.loc 1 282 0
 1027 019a 0020     		movs	r0, #0
 1028 019c FFF7FEFF 		bl	ui_updateBuffer
 1029              	.LVL135:
 283:pk_ui.c       ****                         ui_drawRecordList(record_buffer, curr_index);
 1030              		.loc 1 283 0
 1031 01a0 2146     		mov	r1, r4
 1032 01a2 0F48     		ldr	r0, .L63+12
 1033 01a4 FFF7FEFF 		bl	ui_drawRecordList
 1034              	.LVL136:
 284:pk_ui.c       ****                     break;
 1035              		.loc 1 284 0
 1036 01a8 0EE0     		b	.L50
 1037              	.LVL137:
 1038              	.L56:
 285:pk_ui.c       ****                 }
 286:pk_ui.c       ****             }
 287:pk_ui.c       ****         break;
 288:pk_ui.c       ****         case DISPLAY_CREDENTIALS:
 289:pk_ui.c       ****             // basically just wait for button push
 290:pk_ui.c       ****             if (*enc_sw_flag) {
 1039              		.loc 1 290 0
 1040 01aa 2B78     		ldrb	r3, [r5]	@ zero_extendqisi2
 1041 01ac 63B1     		cbz	r3, .L50
 291:pk_ui.c       ****                 // return to main record menu on button push
 292:pk_ui.c       ****                 display_state = RECORD_SELECT;
 1042              		.loc 1 292 0
 1043 01ae 0222     		movs	r2, #2
 1044 01b0 084B     		ldr	r3, .L63
 1045 01b2 1A73     		strb	r2, [r3, #12]
 293:pk_ui.c       ****                 Dial_SetCounter(0);
 1046              		.loc 1 293 0
 1047 01b4 0020     		movs	r0, #0
 1048              	.LVL138:
 1049 01b6 FFF7FEFF 		bl	Dial_SetCounter
 1050              	.LVL139:
 294:pk_ui.c       ****                 ui_updateBuffer(0);
 1051              		.loc 1 294 0
 1052 01ba 0020     		movs	r0, #0
 1053 01bc FFF7FEFF 		bl	ui_updateBuffer
 1054              	.LVL140:
 295:pk_ui.c       ****                 ui_drawRecordList(record_buffer, curr_index);
 1055              		.loc 1 295 0
 1056 01c0 2146     		mov	r1, r4
 1057 01c2 0748     		ldr	r0, .L63+12
 1058 01c4 FFF7FEFF 		bl	ui_drawRecordList
 1059              	.LVL141:
 1060              	.L50:
 296:pk_ui.c       ****             }
 297:pk_ui.c       ****         break;
 298:pk_ui.c       ****         case RECORD_TOTP:
 299:pk_ui.c       ****             // refresh if enough time has passed?
 300:pk_ui.c       ****             // not super necessary feature but would be dope
 301:pk_ui.c       ****         break;
 302:pk_ui.c       ****         case MANAGE_RECORDS:
 303:pk_ui.c       ****         break;
ARM GAS  C:\Users\bkettle\AppData\Local\Temp\ccPIuWNe.s 			page 25


 304:pk_ui.c       ****     }
 305:pk_ui.c       ****     prev_index = curr_index;
 1061              		.loc 1 305 0
 1062 01c8 024B     		ldr	r3, .L63
 1063 01ca 9C60     		str	r4, [r3, #8]
 306:pk_ui.c       **** }
 1064              		.loc 1 306 0
 1065 01cc 19B0     		add	sp, sp, #100
 1066              		.cfi_def_cfa_offset 28
 1067              		@ sp needed
 1068 01ce BDE8F083 		pop	{r4, r5, r6, r7, r8, r9, pc}
 1069              	.LVL142:
 1070              	.L64:
 1071 01d2 00BF     		.align	2
 1072              	.L63:
 1073 01d4 00000000 		.word	.LANCHOR1
 1074 01d8 4C000000 		.word	.LC6
 1075 01dc 10000000 		.word	.LC1
 1076 01e0 00000000 		.word	.LANCHOR0
 1077 01e4 00000000 		.word	curr_record
 1078 01e8 0A000000 		.word	curr_record+10
 1079 01ec 32000000 		.word	curr_record+50
 1080              		.cfi_endproc
 1081              	.LFE71:
 1082              		.size	ui_fsm, .-ui_fsm
 1083              		.global	prev_index
 1084              		.comm	curr_record,96,4
 1085              		.global	record_buffer
 1086              		.global	num_loaded
 1087              		.global	buff_size
 1088              		.global	buff_offset
 1089              		.global	detail_menu_left
 1090              		.global	detail_menu_top
 1091              		.global	detail_menu_items
 1092              		.global	detail_menu_size
 1093              		.global	display_state
 1094              		.comm	s_sec_state,4,4
 1095              		.comm	s_main_state,4,4
 1096              		.comm	new_record,96,4
 1097              		.comm	pFile,4,4
 1098              		.comm	sdVolName,10,4
 1099              		.comm	sdFile,9,4
 1100              		.comm	ascii_to_hid,768,4
 1101              		.comm	KB_Data,8,4
 1102              		.comm	KB_Initialized,1,1
 1103              		.comm	record_size,4,4
 1104              		.data
 1105              		.align	2
 1106              		.set	.LANCHOR0,. + 0
 1107              		.type	record_buffer, %object
 1108              		.size	record_buffer, 1152
 1109              	record_buffer:
 1110 0000 72656331 		.ascii	"rec1\000"
 1110      00
 1111 0005 00000000 		.space	5
 1111      00
 1112 000a 75736572 		.ascii	"username1\000"
ARM GAS  C:\Users\bkettle\AppData\Local\Temp\ccPIuWNe.s 			page 26


 1112      6E616D65 
 1112      3100
 1113 0014 00000000 		.space	30
 1113      00000000 
 1113      00000000 
 1113      00000000 
 1113      00000000 
 1114 0032 70617373 		.ascii	"password1\000"
 1114      776F7264 
 1114      3100
 1115 003c 00000000 		.space	16
 1115      00000000 
 1115      00000000 
 1115      00000000 
 1116 004c 00000000 		.space	20
 1116      00000000 
 1116      00000000 
 1116      00000000 
 1116      00000000 
 1117 0060 72656332 		.ascii	"rec2\000"
 1117      00
 1118 0065 00000000 		.space	5
 1118      00
 1119 006a 75736572 		.ascii	"username2\000"
 1119      6E616D65 
 1119      3200
 1120 0074 00000000 		.space	30
 1120      00000000 
 1120      00000000 
 1120      00000000 
 1120      00000000 
 1121 0092 70617373 		.ascii	"password2\000"
 1121      776F7264 
 1121      3200
 1122 009c 00000000 		.space	16
 1122      00000000 
 1122      00000000 
 1122      00000000 
 1123 00ac 00000000 		.space	20
 1123      00000000 
 1123      00000000 
 1123      00000000 
 1123      00000000 
 1124 00c0 72656333 		.ascii	"rec3\000"
 1124      00
 1125 00c5 00000000 		.space	5
 1125      00
 1126 00ca 75736572 		.ascii	"username3\000"
 1126      6E616D65 
 1126      3300
 1127 00d4 00000000 		.space	30
 1127      00000000 
 1127      00000000 
 1127      00000000 
 1127      00000000 
 1128 00f2 70617373 		.ascii	"password3\000"
 1128      776F7264 
ARM GAS  C:\Users\bkettle\AppData\Local\Temp\ccPIuWNe.s 			page 27


 1128      3300
 1129 00fc 00000000 		.space	16
 1129      00000000 
 1129      00000000 
 1129      00000000 
 1130 010c 00000000 		.space	20
 1130      00000000 
 1130      00000000 
 1130      00000000 
 1130      00000000 
 1131 0120 72656334 		.ascii	"rec4\000"
 1131      00
 1132 0125 00000000 		.space	5
 1132      00
 1133 012a 75736572 		.ascii	"username4\000"
 1133      6E616D65 
 1133      3400
 1134 0134 00000000 		.space	30
 1134      00000000 
 1134      00000000 
 1134      00000000 
 1134      00000000 
 1135 0152 70617373 		.ascii	"password4\000"
 1135      776F7264 
 1135      3400
 1136 015c 00000000 		.space	16
 1136      00000000 
 1136      00000000 
 1136      00000000 
 1137 016c 00000000 		.space	20
 1137      00000000 
 1137      00000000 
 1137      00000000 
 1137      00000000 
 1138 0180 72656335 		.ascii	"rec5\000"
 1138      00
 1139 0185 00000000 		.space	5
 1139      00
 1140 018a 75736572 		.ascii	"username5\000"
 1140      6E616D65 
 1140      3500
 1141 0194 00000000 		.space	30
 1141      00000000 
 1141      00000000 
 1141      00000000 
 1141      00000000 
 1142 01b2 70617373 		.ascii	"password5\000"
 1142      776F7264 
 1142      3500
 1143 01bc 00000000 		.space	16
 1143      00000000 
 1143      00000000 
 1143      00000000 
 1144 01cc 00000000 		.space	20
 1144      00000000 
 1144      00000000 
 1144      00000000 
ARM GAS  C:\Users\bkettle\AppData\Local\Temp\ccPIuWNe.s 			page 28


 1144      00000000 
 1145 01e0 72656336 		.ascii	"rec6\000"
 1145      00
 1146 01e5 00000000 		.space	5
 1146      00
 1147 01ea 75736572 		.ascii	"username6\000"
 1147      6E616D65 
 1147      3600
 1148 01f4 00000000 		.space	30
 1148      00000000 
 1148      00000000 
 1148      00000000 
 1148      00000000 
 1149 0212 70617373 		.ascii	"password6\000"
 1149      776F7264 
 1149      3600
 1150 021c 00000000 		.space	16
 1150      00000000 
 1150      00000000 
 1150      00000000 
 1151 022c 00000000 		.space	20
 1151      00000000 
 1151      00000000 
 1151      00000000 
 1151      00000000 
 1152 0240 72656337 		.ascii	"rec7\000"
 1152      00
 1153 0245 00000000 		.space	5
 1153      00
 1154 024a 75736572 		.ascii	"username7\000"
 1154      6E616D65 
 1154      3700
 1155 0254 00000000 		.space	30
 1155      00000000 
 1155      00000000 
 1155      00000000 
 1155      00000000 
 1156 0272 70617373 		.ascii	"password7\000"
 1156      776F7264 
 1156      3700
 1157 027c 00000000 		.space	16
 1157      00000000 
 1157      00000000 
 1157      00000000 
 1158 028c 00000000 		.space	20
 1158      00000000 
 1158      00000000 
 1158      00000000 
 1158      00000000 
 1159 02a0 72656338 		.ascii	"rec8\000"
 1159      00
 1160 02a5 00000000 		.space	5
 1160      00
 1161 02aa 75736572 		.ascii	"username8\000"
 1161      6E616D65 
 1161      3800
 1162 02b4 00000000 		.space	30
ARM GAS  C:\Users\bkettle\AppData\Local\Temp\ccPIuWNe.s 			page 29


 1162      00000000 
 1162      00000000 
 1162      00000000 
 1162      00000000 
 1163 02d2 70617373 		.ascii	"password8\000"
 1163      776F7264 
 1163      3800
 1164 02dc 00000000 		.space	16
 1164      00000000 
 1164      00000000 
 1164      00000000 
 1165 02ec 00000000 		.space	20
 1165      00000000 
 1165      00000000 
 1165      00000000 
 1165      00000000 
 1166 0300 72656339 		.ascii	"rec9\000"
 1166      00
 1167 0305 00000000 		.space	5
 1167      00
 1168 030a 75736572 		.ascii	"username9\000"
 1168      6E616D65 
 1168      3900
 1169 0314 00000000 		.space	30
 1169      00000000 
 1169      00000000 
 1169      00000000 
 1169      00000000 
 1170 0332 70617373 		.ascii	"password9\000"
 1170      776F7264 
 1170      3900
 1171 033c 00000000 		.space	16
 1171      00000000 
 1171      00000000 
 1171      00000000 
 1172 034c 00000000 		.space	20
 1172      00000000 
 1172      00000000 
 1172      00000000 
 1172      00000000 
 1173 0360 72656331 		.ascii	"rec10\000"
 1173      3000
 1174 0366 00000000 		.space	4
 1175 036a 75736572 		.ascii	"username10\000"
 1175      6E616D65 
 1175      313000
 1176 0375 00000000 		.space	29
 1176      00000000 
 1176      00000000 
 1176      00000000 
 1176      00000000 
 1177 0392 70617373 		.ascii	"password10\000"
 1177      776F7264 
 1177      313000
 1178 039d 00000000 		.space	15
 1178      00000000 
 1178      00000000 
ARM GAS  C:\Users\bkettle\AppData\Local\Temp\ccPIuWNe.s 			page 30


 1178      000000
 1179 03ac 00000000 		.space	20
 1179      00000000 
 1179      00000000 
 1179      00000000 
 1179      00000000 
 1180 03c0 72656331 		.ascii	"rec11\000"
 1180      3100
 1181 03c6 00000000 		.space	4
 1182 03ca 75736572 		.ascii	"username11\000"
 1182      6E616D65 
 1182      313100
 1183 03d5 00000000 		.space	29
 1183      00000000 
 1183      00000000 
 1183      00000000 
 1183      00000000 
 1184 03f2 70617373 		.ascii	"password11\000"
 1184      776F7264 
 1184      313100
 1185 03fd 00000000 		.space	15
 1185      00000000 
 1185      00000000 
 1185      000000
 1186 040c 00000000 		.space	20
 1186      00000000 
 1186      00000000 
 1186      00000000 
 1186      00000000 
 1187 0420 72656331 		.ascii	"rec12\000"
 1187      3200
 1188 0426 00000000 		.space	4
 1189 042a 75736572 		.ascii	"username12\000"
 1189      6E616D65 
 1189      313200
 1190 0435 00000000 		.space	29
 1190      00000000 
 1190      00000000 
 1190      00000000 
 1190      00000000 
 1191 0452 70617373 		.ascii	"password12\000"
 1191      776F7264 
 1191      313200
 1192 045d 00000000 		.space	15
 1192      00000000 
 1192      00000000 
 1192      000000
 1193 046c 00000000 		.space	20
 1193      00000000 
 1193      00000000 
 1193      00000000 
 1193      00000000 
 1194              		.type	buff_size, %object
 1195              		.size	buff_size, 4
 1196              	buff_size:
 1197 0480 0C000000 		.word	12
 1198              		.type	detail_menu_size, %object
ARM GAS  C:\Users\bkettle\AppData\Local\Temp\ccPIuWNe.s 			page 31


 1199              		.size	detail_menu_size, 4
 1200              	detail_menu_size:
 1201 0484 05000000 		.word	5
 1202              		.type	detail_menu_left, %object
 1203              		.size	detail_menu_left, 4
 1204              	detail_menu_left:
 1205 0488 14000000 		.word	20
 1206              		.type	detail_menu_top, %object
 1207              		.size	detail_menu_top, 4
 1208              	detail_menu_top:
 1209 048c 14000000 		.word	20
 1210              		.type	detail_menu_items, %object
 1211              		.size	detail_menu_items, 100
 1212              	detail_menu_items:
 1213 0490 74797065 		.ascii	"type username\000"
 1213      20757365 
 1213      726E616D 
 1213      6500
 1214 049e 00000000 		.space	6
 1214      0000
 1215 04a4 74797065 		.ascii	"type password\000"
 1215      20706173 
 1215      73776F72 
 1215      6400
 1216 04b2 00000000 		.space	6
 1216      0000
 1217 04b8 76696577 		.ascii	"view credentials\000"
 1217      20637265 
 1217      64656E74 
 1217      69616C73 
 1217      00
 1218 04c9 000000   		.space	3
 1219 04cc 76696577 		.ascii	"view TOTP code\000"
 1219      20544F54 
 1219      5020636F 
 1219      646500
 1220 04db 00000000 		.space	5
 1220      00
 1221 04e0 3C2D2067 		.ascii	"<- go back\000"
 1221      6F206261 
 1221      636B00
 1222 04eb 00000000 		.space	9
 1222      00000000 
 1222      00
 1223              		.section	.rodata.str1.4,"aMS",%progbits,1
 1224              		.align	2
 1225              	.LC0:
 1226 0000 0A0D2D2D 		.ascii	"\012\015------------\000"
 1226      2D2D2D2D 
 1226      2D2D2D2D 
 1226      2D2D00
 1227 000f 00       		.space	1
 1228              	.LC1:
 1229 0010 256400   		.ascii	"%d\000"
 1230 0013 00       		.space	1
 1231              	.LC2:
 1232 0014 6C697374 		.ascii	"list end\000"
ARM GAS  C:\Users\bkettle\AppData\Local\Temp\ccPIuWNe.s 			page 32


 1232      20656E64 
 1232      00
 1233 001d 000000   		.space	3
 1234              	.LC3:
 1235 0020 75736572 		.ascii	"user:\012\015  \000"
 1235      3A0A0D20 
 1235      2000
 1236 002a 0000     		.space	2
 1237              	.LC4:
 1238 002c 70617373 		.ascii	"pass:\012\015  \000"
 1238      3A0A0D20 
 1238      2000
 1239 0036 0000     		.space	2
 1240              	.LC5:
 1241 0038 3C2D2070 		.ascii	"<- push to go back\000"
 1241      75736820 
 1241      746F2067 
 1241      6F206261 
 1241      636B00
 1242 004b 00       		.space	1
 1243              	.LC6:
 1244 004c 4C4F4749 		.ascii	"LOGIN\000"
 1244      4E00
 1245              		.bss
 1246              		.align	2
 1247              		.set	.LANCHOR1,. + 0
 1248              		.type	num_loaded, %object
 1249              		.size	num_loaded, 4
 1250              	num_loaded:
 1251 0000 00000000 		.space	4
 1252              		.type	buff_offset, %object
 1253              		.size	buff_offset, 4
 1254              	buff_offset:
 1255 0004 00000000 		.space	4
 1256              		.type	prev_index, %object
 1257              		.size	prev_index, 4
 1258              	prev_index:
 1259 0008 00000000 		.space	4
 1260              		.type	display_state, %object
 1261              		.size	display_state, 1
 1262              	display_state:
 1263 000c 00       		.space	1
 1264              		.text
 1265              	.Letext0:
 1266              		.file 2 "c:\\program files (x86)\\cypress\\psoc creator\\4.3\\psoc creator\\import\\gnu\\arm\\5.4.
 1267              		.file 3 "c:\\program files (x86)\\cypress\\psoc creator\\4.3\\psoc creator\\import\\gnu\\arm\\5.4.
 1268              		.file 4 "Generated_Source\\PSoC5/cytypes.h"
 1269              		.file 5 "./pk_record.h"
 1270              		.file 6 "./pk_usb.h"
 1271              		.file 7 "..\\emFile_V322c\\Code\\Include\\PSoC5/FS_Types.h"
 1272              		.file 8 "Generated_Source\\PSoC5/core_cm3.h"
 1273              		.file 9 "./pk_sdrecorddb.h"
 1274              		.file 10 "./pk_serialfuncs.h"
 1275              		.file 11 "Generated_Source\\PSoC5/UART_1.h"
 1276              		.file 12 "c:\\program files (x86)\\cypress\\psoc creator\\4.3\\psoc creator\\import\\gnu\\arm\\5.4
 1277              		.file 13 "Generated_Source\\PSoC5/Dial.h"
 1278              		.file 14 "./ssd1306.h"
ARM GAS  C:\Users\bkettle\AppData\Local\Temp\ccPIuWNe.s 			page 33


 1279              		.file 15 "Generated_Source\\PSoC5/CyLib.h"