ARM GAS  C:\Users\bkettle\AppData\Local\Temp\ccwxlpc4.s 			page 1


   1              		.syntax unified
   2              		.cpu cortex-m3
   3              		.fpu softvfp
   4              		.eabi_attribute 20, 1
   5              		.eabi_attribute 21, 1
   6              		.eabi_attribute 23, 3
   7              		.eabi_attribute 24, 1
   8              		.eabi_attribute 25, 1
   9              		.eabi_attribute 26, 1
  10              		.eabi_attribute 30, 1
  11              		.eabi_attribute 34, 1
  12              		.eabi_attribute 18, 4
  13              		.thumb
  14              		.syntax unified
  15              		.file	"pk_usb.c"
  16              		.text
  17              	.Ltext0:
  18              		.cfi_sections	.debug_frame
  19              		.section	.text.clr_rx_buffer,"ax",%progbits
  20              		.align	2
  21              		.global	clr_rx_buffer
  22              		.thumb
  23              		.thumb_func
  24              		.type	clr_rx_buffer, %function
  25              	clr_rx_buffer:
  26              	.LFB63:
  27              		.file 1 "pk_usb.c"
   1:pk_usb.c      **** /********************************************************
   2:pk_usb.c      **** *     KEYBOARD EMULATION & USB_UART STUFF               *
   3:pk_usb.c      **** ********************************************************/
   4:pk_usb.c      **** 
   5:pk_usb.c      **** #include <pk_usb.h>
   6:pk_usb.c      **** 
   7:pk_usb.c      **** char rx_buffer[30] = {0};
   8:pk_usb.c      **** int rx_buff_length = 30;
   9:pk_usb.c      **** 
  10:pk_usb.c      **** void clr_rx_buffer(){ 
  28              		.loc 1 10 0
  29              		.cfi_startproc
  30              		@ args = 0, pretend = 0, frame = 0
  31              		@ frame_needed = 0, uses_anonymous_args = 0
  32 0000 08B5     		push	{r3, lr}
  33              		.cfi_def_cfa_offset 8
  34              		.cfi_offset 3, -8
  35              		.cfi_offset 14, -4
  11:pk_usb.c      ****     memset(rx_buffer, 0, 30); 
  36              		.loc 1 11 0
  37 0002 1E22     		movs	r2, #30
  38 0004 0021     		movs	r1, #0
  39 0006 0348     		ldr	r0, .L3
  40 0008 FFF7FEFF 		bl	memset
  41              	.LVL0:
  12:pk_usb.c      ****     rx_buff_length = 0;
  42              		.loc 1 12 0
  43 000c 0022     		movs	r2, #0
  44 000e 024B     		ldr	r3, .L3+4
  45 0010 1A60     		str	r2, [r3]
ARM GAS  C:\Users\bkettle\AppData\Local\Temp\ccwxlpc4.s 			page 2


  46 0012 08BD     		pop	{r3, pc}
  47              	.L4:
  48              		.align	2
  49              	.L3:
  50 0014 00000000 		.word	.LANCHOR0
  51 0018 00000000 		.word	.LANCHOR1
  52              		.cfi_endproc
  53              	.LFE63:
  54              		.size	clr_rx_buffer, .-clr_rx_buffer
  55              		.section	.text.USB_print,"ax",%progbits
  56              		.align	2
  57              		.global	USB_print
  58              		.thumb
  59              		.thumb_func
  60              		.type	USB_print, %function
  61              	USB_print:
  62              	.LFB65:
  13:pk_usb.c      **** };
  14:pk_usb.c      **** 
  15:pk_usb.c      **** void USB_handleInput(char * cmd_output) {
  16:pk_usb.c      ****     // updates the buffer given based on the 
  17:pk_usb.c      ****     // input recieved
  18:pk_usb.c      ****     if (USBFS_DataIsReady()) {
  19:pk_usb.c      ****         while (USBFS_DataIsReady()) {
  20:pk_usb.c      ****             char inputbuffer[3];
  21:pk_usb.c      ****             int count = USBFS_GetAll((uint8_t*) inputbuffer);
  22:pk_usb.c      ****             inputbuffer[count] = 0; // null terminate the input
  23:pk_usb.c      ****             if (inputbuffer[0] == 0xD) {
  24:pk_usb.c      ****                 // move buffer into cmd_output on enter
  25:pk_usb.c      ****                 strcpy(cmd_output, rx_buffer);
  26:pk_usb.c      ****                 clr_rx_buffer();
  27:pk_usb.c      ****             } else {
  28:pk_usb.c      ****                 USB_print(inputbuffer);    // echo recieved character
  29:pk_usb.c      ****                 // add non-enter characters to rx buffer
  30:pk_usb.c      ****                 strcat(rx_buffer, inputbuffer);           
  31:pk_usb.c      ****             } 
  32:pk_usb.c      ****         }
  33:pk_usb.c      ****     }    
  34:pk_usb.c      **** }
  35:pk_usb.c      **** ///////// USB CDC
  36:pk_usb.c      **** void USB_print(char * str_to_print) {
  63              		.loc 1 36 0
  64              		.cfi_startproc
  65              		@ args = 0, pretend = 0, frame = 0
  66              		@ frame_needed = 0, uses_anonymous_args = 0
  67              	.LVL1:
  68 0000 10B5     		push	{r4, lr}
  69              		.cfi_def_cfa_offset 8
  70              		.cfi_offset 4, -8
  71              		.cfi_offset 14, -4
  72 0002 0446     		mov	r4, r0
  73              	.LVL2:
  74              	.L6:
  37:pk_usb.c      ****     // wait until computer is ready
  38:pk_usb.c      ****     // then send.
  39:pk_usb.c      ****     while (!USBFS_CDCIsReady());
  75              		.loc 1 39 0 discriminator 1
ARM GAS  C:\Users\bkettle\AppData\Local\Temp\ccwxlpc4.s 			page 3


  76 0004 FFF7FEFF 		bl	USBFS_CDCIsReady
  77              	.LVL3:
  78 0008 0028     		cmp	r0, #0
  79 000a FBD0     		beq	.L6
  40:pk_usb.c      ****     USBFS_PutString(str_to_print);
  80              		.loc 1 40 0
  81 000c 2046     		mov	r0, r4
  82 000e FFF7FEFF 		bl	USBFS_PutString
  83              	.LVL4:
  84 0012 10BD     		pop	{r4, pc}
  85              		.cfi_endproc
  86              	.LFE65:
  87              		.size	USB_print, .-USB_print
  88              		.section	.text.USB_handleInput,"ax",%progbits
  89              		.align	2
  90              		.global	USB_handleInput
  91              		.thumb
  92              		.thumb_func
  93              		.type	USB_handleInput, %function
  94              	USB_handleInput:
  95              	.LFB64:
  15:pk_usb.c      ****     // updates the buffer given based on the 
  96              		.loc 1 15 0
  97              		.cfi_startproc
  98              		@ args = 0, pretend = 0, frame = 8
  99              		@ frame_needed = 0, uses_anonymous_args = 0
 100              	.LVL5:
 101 0000 10B5     		push	{r4, lr}
 102              		.cfi_def_cfa_offset 8
 103              		.cfi_offset 4, -8
 104              		.cfi_offset 14, -4
 105 0002 82B0     		sub	sp, sp, #8
 106              		.cfi_def_cfa_offset 16
 107 0004 0446     		mov	r4, r0
  18:pk_usb.c      ****         while (USBFS_DataIsReady()) {
 108              		.loc 1 18 0
 109 0006 FFF7FEFF 		bl	USBFS_DataIsReady
 110              	.LVL6:
 111 000a D0B9     		cbnz	r0, .L9
 112 000c 1DE0     		b	.L8
 113              	.L13:
 114              	.LBB2:
  21:pk_usb.c      ****             inputbuffer[count] = 0; // null terminate the input
 115              		.loc 1 21 0
 116 000e 01A8     		add	r0, sp, #4
 117 0010 FFF7FEFF 		bl	USBFS_GetAll
 118              	.LVL7:
  22:pk_usb.c      ****             if (inputbuffer[0] == 0xD) {
 119              		.loc 1 22 0
 120 0014 02AB     		add	r3, sp, #8
 121 0016 1844     		add	r0, r0, r3
 122              	.LVL8:
 123 0018 0023     		movs	r3, #0
 124 001a 00F8043C 		strb	r3, [r0, #-4]
  23:pk_usb.c      ****                 // move buffer into cmd_output on enter
 125              		.loc 1 23 0
 126 001e 9DF80430 		ldrb	r3, [sp, #4]	@ zero_extendqisi2
ARM GAS  C:\Users\bkettle\AppData\Local\Temp\ccwxlpc4.s 			page 4


 127 0022 0D2B     		cmp	r3, #13
 128 0024 06D1     		bne	.L11
  25:pk_usb.c      ****                 clr_rx_buffer();
 129              		.loc 1 25 0
 130 0026 0A49     		ldr	r1, .L15
 131 0028 2046     		mov	r0, r4
 132 002a FFF7FEFF 		bl	strcpy
 133              	.LVL9:
  26:pk_usb.c      ****             } else {
 134              		.loc 1 26 0
 135 002e FFF7FEFF 		bl	clr_rx_buffer
 136              	.LVL10:
 137 0032 06E0     		b	.L9
 138              	.L11:
  28:pk_usb.c      ****                 // add non-enter characters to rx buffer
 139              		.loc 1 28 0
 140 0034 01A8     		add	r0, sp, #4
 141 0036 FFF7FEFF 		bl	USB_print
 142              	.LVL11:
  30:pk_usb.c      ****             } 
 143              		.loc 1 30 0
 144 003a 01A9     		add	r1, sp, #4
 145 003c 0448     		ldr	r0, .L15
 146 003e FFF7FEFF 		bl	strcat
 147              	.LVL12:
 148              	.L9:
 149              	.LBE2:
  19:pk_usb.c      ****             char inputbuffer[3];
 150              		.loc 1 19 0
 151 0042 FFF7FEFF 		bl	USBFS_DataIsReady
 152              	.LVL13:
 153 0046 0028     		cmp	r0, #0
 154 0048 E1D1     		bne	.L13
 155              	.L8:
  34:pk_usb.c      **** ///////// USB CDC
 156              		.loc 1 34 0
 157 004a 02B0     		add	sp, sp, #8
 158              		.cfi_def_cfa_offset 8
 159              		@ sp needed
 160 004c 10BD     		pop	{r4, pc}
 161              	.LVL14:
 162              	.L16:
 163 004e 00BF     		.align	2
 164              	.L15:
 165 0050 00000000 		.word	.LANCHOR0
 166              		.cfi_endproc
 167              	.LFE64:
 168              		.size	USB_handleInput, .-USB_handleInput
 169              		.section	.text.USB_isReady,"ax",%progbits
 170              		.align	2
 171              		.global	USB_isReady
 172              		.thumb
 173              		.thumb_func
 174              		.type	USB_isReady, %function
 175              	USB_isReady:
 176              	.LFB66:
  41:pk_usb.c      **** }
ARM GAS  C:\Users\bkettle\AppData\Local\Temp\ccwxlpc4.s 			page 5


  42:pk_usb.c      **** 
  43:pk_usb.c      **** bool USB_isReady() {
 177              		.loc 1 43 0
 178              		.cfi_startproc
 179              		@ args = 0, pretend = 0, frame = 0
 180              		@ frame_needed = 0, uses_anonymous_args = 0
 181 0000 08B5     		push	{r3, lr}
 182              		.cfi_def_cfa_offset 8
 183              		.cfi_offset 3, -8
 184              		.cfi_offset 14, -4
  44:pk_usb.c      ****     return USBFS_CDCIsReady();
 185              		.loc 1 44 0
 186 0002 FFF7FEFF 		bl	USBFS_CDCIsReady
 187              	.LVL15:
  45:pk_usb.c      **** }
 188              		.loc 1 45 0
 189 0006 0030     		adds	r0, r0, #0
 190 0008 18BF     		it	ne
 191 000a 0120     		movne	r0, #1
 192 000c 08BD     		pop	{r3, pc}
 193              		.cfi_endproc
 194              	.LFE66:
 195              		.size	USB_isReady, .-USB_isReady
 196 000e 00BF     		.section	.text.KB_TypeChar,"ax",%progbits
 197              		.align	2
 198              		.global	KB_TypeChar
 199              		.thumb
 200              		.thumb_func
 201              		.type	KB_TypeChar, %function
 202              	KB_TypeChar:
 203              	.LFB67:
  46:pk_usb.c      **** 
  47:pk_usb.c      **** 
  48:pk_usb.c      **** 
  49:pk_usb.c      **** ///////// KEYBOARD
  50:pk_usb.c      **** 
  51:pk_usb.c      **** // initialize keyboard variables
  52:pk_usb.c      **** bool KB_Initialized = false;
  53:pk_usb.c      **** int8 KB_Data[8] = {0, 0, 0, 0, 0, 0, 0, 0}; // [0]: Modifiers [1]: reserved [2:7]: Key codes
  54:pk_usb.c      **** 
  55:pk_usb.c      **** // this will start at ascii 32 to get to keyboard values
  56:pk_usb.c      **** hid_usage ascii_to_hid[] = {
  57:pk_usb.c      ****     {0x2c, 0}, {0x1e, 1}, {0x34, 1}, {0x20, 1}, {0x21, 1}, {0x22, 1}, {0x24, 1}, {0x34, 0}, {0x26, 
  58:pk_usb.c      ****     {0x27, 0}, {0x1e, 0}, {0x1f, 0}, {0x20, 0}, {0x21, 0}, {0x22, 0}, {0x23, 0}, {0x24, 0}, {0x25, 
  59:pk_usb.c      ****     {0x1f, 1}, {0x04, 1}, {0x05, 1}, {0x06, 1}, {0x07, 1}, {0x08, 1}, {0x09, 1}, {0x0a, 1}, {0x0b, 
  60:pk_usb.c      ****     {0x13, 1}, {0x14, 1}, {0x15, 1}, {0x16, 1}, {0x17, 1}, {0x18, 1}, {0x19, 1}, {0x1a, 1}, {0x1b, 
  61:pk_usb.c      ****     {0x35, 0}, {0x04, 0}, {0x05, 0}, {0x06, 0}, {0x07, 0}, {0x08, 0}, {0x09, 0}, {0x0a, 0}, {0x0b, 
  62:pk_usb.c      ****     {0x13, 0}, {0x14, 0}, {0x15, 0}, {0x16, 0}, {0x17, 0}, {0x18, 0}, {0x19, 0}, {0x1a, 0}, {0x1b, 
  63:pk_usb.c      **** };
  64:pk_usb.c      **** 
  65:pk_usb.c      **** void KB_TypeChar(hid_usage hid_id) {
 204              		.loc 1 65 0
 205              		.cfi_startproc
 206              		@ args = 0, pretend = 0, frame = 8
 207              		@ frame_needed = 0, uses_anonymous_args = 0
 208 0000 00B5     		push	{lr}
 209              		.cfi_def_cfa_offset 4
ARM GAS  C:\Users\bkettle\AppData\Local\Temp\ccwxlpc4.s 			page 6


 210              		.cfi_offset 14, -4
 211 0002 83B0     		sub	sp, sp, #12
 212              		.cfi_def_cfa_offset 16
 213 0004 02AB     		add	r3, sp, #8
 214 0006 03E90300 		stmdb	r3, {r0, r1}
 215              	.L20:
  66:pk_usb.c      ****     // send the current char
  67:pk_usb.c      ****     while(!USBFS_GetEPAckState(EP_KEYBOARD_IN));  			/* Wait for ACK before loading data */
 216              		.loc 1 67 0 discriminator 1
 217 000a 0420     		movs	r0, #4
 218 000c FFF7FEFF 		bl	USBFS_GetEPAckState
 219              	.LVL16:
 220 0010 0028     		cmp	r0, #0
 221 0012 FAD0     		beq	.L20
  68:pk_usb.c      ****     KB_Data[2] = hid_id.uid;
 222              		.loc 1 68 0
 223 0014 0F49     		ldr	r1, .L23
 224 0016 009B     		ldr	r3, [sp]
 225 0018 81F82230 		strb	r3, [r1, #34]
  69:pk_usb.c      ****     KB_Data[0] = 2*(int)hid_id.uppercase;
 226              		.loc 1 69 0
 227 001c 9DF80430 		ldrb	r3, [sp, #4]	@ zero_extendqisi2
 228 0020 5B00     		lsls	r3, r3, #1
 229 0022 01F8203F 		strb	r3, [r1, #32]!
  70:pk_usb.c      ****     USBFS_LoadInEP(EP_KEYBOARD_IN, (uint8 *)KB_Data, 8); 	/* Load latest mouse data into EP1 and se
 230              		.loc 1 70 0
 231 0026 0822     		movs	r2, #8
 232 0028 0420     		movs	r0, #4
 233 002a FFF7FEFF 		bl	USBFS_LoadInEP
 234              	.LVL17:
 235              	.L21:
  71:pk_usb.c      ****     
  72:pk_usb.c      ****     // send a blank keystroke to clear the state of shift
  73:pk_usb.c      ****     while(!USBFS_GetEPAckState(EP_KEYBOARD_IN));  			/* Wait for ACK before loading data */
 236              		.loc 1 73 0 discriminator 1
 237 002e 0420     		movs	r0, #4
 238 0030 FFF7FEFF 		bl	USBFS_GetEPAckState
 239              	.LVL18:
 240 0034 0028     		cmp	r0, #0
 241 0036 FAD0     		beq	.L21
  74:pk_usb.c      ****     KB_Data[2] = 0;
 242              		.loc 1 74 0
 243 0038 0649     		ldr	r1, .L23
 244 003a 0023     		movs	r3, #0
 245 003c 81F82230 		strb	r3, [r1, #34]
  75:pk_usb.c      ****     KB_Data[0] = 0;
 246              		.loc 1 75 0
 247 0040 01F8203F 		strb	r3, [r1, #32]!
  76:pk_usb.c      ****     USBFS_LoadInEP(EP_KEYBOARD_IN, (uint8 *)KB_Data, 8); 	/* Load latest mouse data into EP1 and se
 248              		.loc 1 76 0
 249 0044 0822     		movs	r2, #8
 250 0046 0420     		movs	r0, #4
 251 0048 FFF7FEFF 		bl	USBFS_LoadInEP
 252              	.LVL19:
  77:pk_usb.c      **** }
 253              		.loc 1 77 0
 254 004c 03B0     		add	sp, sp, #12
ARM GAS  C:\Users\bkettle\AppData\Local\Temp\ccwxlpc4.s 			page 7


 255              		.cfi_def_cfa_offset 4
 256              		@ sp needed
 257 004e 5DF804FB 		ldr	pc, [sp], #4
 258              	.L24:
 259 0052 00BF     		.align	2
 260              	.L23:
 261 0054 00000000 		.word	.LANCHOR0
 262              		.cfi_endproc
 263              	.LFE67:
 264              		.size	KB_TypeChar, .-KB_TypeChar
 265              		.section	.text.ascii_test,"ax",%progbits
 266              		.align	2
 267              		.global	ascii_test
 268              		.thumb
 269              		.thumb_func
 270              		.type	ascii_test, %function
 271              	ascii_test:
 272              	.LFB68:
  78:pk_usb.c      **** 
  79:pk_usb.c      **** void ascii_test() {
 273              		.loc 1 79 0
 274              		.cfi_startproc
 275              		@ args = 0, pretend = 0, frame = 0
 276              		@ frame_needed = 0, uses_anonymous_args = 0
 277 0000 10B5     		push	{r4, lr}
 278              		.cfi_def_cfa_offset 8
 279              		.cfi_offset 4, -8
 280              		.cfi_offset 14, -4
 281              	.LVL20:
 282              	.LBB3:
  80:pk_usb.c      ****     for (unsigned int i=0;i<95;i++){
 283              		.loc 1 80 0
 284 0002 0024     		movs	r4, #0
 285 0004 0EE0     		b	.L26
 286              	.LVL21:
 287              	.L27:
  81:pk_usb.c      ****         LED_Write(0);
 288              		.loc 1 81 0 discriminator 3
 289 0006 0020     		movs	r0, #0
 290 0008 FFF7FEFF 		bl	LED_Write
 291              	.LVL22:
  82:pk_usb.c      ****         KB_TypeChar(ascii_to_hid[i]);
 292              		.loc 1 82 0 discriminator 3
 293 000c 074B     		ldr	r3, .L29
 294 000e 03EBC403 		add	r3, r3, r4, lsl #3
 295 0012 0433     		adds	r3, r3, #4
 296 0014 93E80300 		ldmia	r3, {r0, r1}
 297 0018 FFF7FEFF 		bl	KB_TypeChar
 298              	.LVL23:
  83:pk_usb.c      ****         LED_Write(1);
 299              		.loc 1 83 0 discriminator 3
 300 001c 0120     		movs	r0, #1
 301 001e FFF7FEFF 		bl	LED_Write
 302              	.LVL24:
  80:pk_usb.c      ****         LED_Write(0);
 303              		.loc 1 80 0 discriminator 3
 304 0022 0134     		adds	r4, r4, #1
ARM GAS  C:\Users\bkettle\AppData\Local\Temp\ccwxlpc4.s 			page 8


 305              	.LVL25:
 306              	.L26:
  80:pk_usb.c      ****         LED_Write(0);
 307              		.loc 1 80 0 is_stmt 0 discriminator 1
 308 0024 5E2C     		cmp	r4, #94
 309 0026 EED9     		bls	.L27
 310              	.LBE3:
  84:pk_usb.c      ****     }
  85:pk_usb.c      **** }
 311              		.loc 1 85 0 is_stmt 1
 312 0028 10BD     		pop	{r4, pc}
 313              	.LVL26:
 314              	.L30:
 315 002a 00BF     		.align	2
 316              	.L29:
 317 002c 00000000 		.word	.LANCHOR1
 318              		.cfi_endproc
 319              	.LFE68:
 320              		.size	ascii_test, .-ascii_test
 321              		.section	.text.USB_Initialize,"ax",%progbits
 322              		.align	2
 323              		.global	USB_Initialize
 324              		.thumb
 325              		.thumb_func
 326              		.type	USB_Initialize, %function
 327              	USB_Initialize:
 328              	.LFB69:
  86:pk_usb.c      **** 
  87:pk_usb.c      **** void USB_Initialize() {
 329              		.loc 1 87 0
 330              		.cfi_startproc
 331              		@ args = 0, pretend = 0, frame = 0
 332              		@ frame_needed = 0, uses_anonymous_args = 0
  88:pk_usb.c      ****     // usb keyboard setup
  89:pk_usb.c      ****     // exit if we already intialized the keyboard
  90:pk_usb.c      ****     if (KB_Initialized) return;
 333              		.loc 1 90 0
 334 0000 174B     		ldr	r3, .L36
 335 0002 93F82830 		ldrb	r3, [r3, #40]	@ zero_extendqisi2
 336 0006 53BB     		cbnz	r3, .L35
  87:pk_usb.c      ****     // usb keyboard setup
 337              		.loc 1 87 0
 338 0008 10B5     		push	{r4, lr}
 339              		.cfi_def_cfa_offset 8
 340              		.cfi_offset 4, -8
 341              		.cfi_offset 14, -4
  91:pk_usb.c      ****     display_clear();
 342              		.loc 1 91 0
 343 000a FFF7FEFF 		bl	display_clear
 344              	.LVL27:
  92:pk_usb.c      ****     gfx_setCursor(20,20);
 345              		.loc 1 92 0
 346 000e 1421     		movs	r1, #20
 347 0010 0846     		mov	r0, r1
 348 0012 FFF7FEFF 		bl	gfx_setCursor
 349              	.LVL28:
  93:pk_usb.c      ****     gfx_println("initializing usb...");
ARM GAS  C:\Users\bkettle\AppData\Local\Temp\ccwxlpc4.s 			page 9


 350              		.loc 1 93 0
 351 0016 1348     		ldr	r0, .L36+4
 352 0018 FFF7FEFF 		bl	gfx_println
 353              	.LVL29:
  94:pk_usb.c      ****     gfx_println("must be connected to micro-usb port");
 354              		.loc 1 94 0
 355 001c 1248     		ldr	r0, .L36+8
 356 001e FFF7FEFF 		bl	gfx_println
 357              	.LVL30:
  95:pk_usb.c      ****     display_update();
 358              		.loc 1 95 0
 359 0022 FFF7FEFF 		bl	display_update
 360              	.LVL31:
  96:pk_usb.c      ****     CyGlobalIntEnable; /* Enable global interrupts. */
 361              		.loc 1 96 0
 362              		.syntax unified
 363              	@ 96 "pk_usb.c" 1
 364 0026 62B6     		CPSIE   i
 365              	@ 0 "" 2
  97:pk_usb.c      ****     USBFS_Start(0, USBFS_DWR_VDDD_OPERATION);   /* Start USBFS Operation/device 0 and with 5V opera
 366              		.loc 1 97 0
 367              		.thumb
 368              		.syntax unified
 369 0028 0221     		movs	r1, #2
 370 002a 0020     		movs	r0, #0
 371 002c FFF7FEFF 		bl	USBFS_Start
 372              	.LVL32:
  98:pk_usb.c      ****     LED_Write(1);
 373              		.loc 1 98 0
 374 0030 0120     		movs	r0, #1
 375 0032 FFF7FEFF 		bl	LED_Write
 376              	.LVL33:
 377              	.L33:
  99:pk_usb.c      **** 	while(!USBFS_bGetConfiguration()) {      		/* Wait for Device to enumerate */
 378              		.loc 1 99 0 discriminator 1
 379 0036 FFF7FEFF 		bl	USBFS_GetConfiguration
 380              	.LVL34:
 381 003a 0028     		cmp	r0, #0
 382 003c FBD0     		beq	.L33
 100:pk_usb.c      ****         // should add a timeout here
 101:pk_usb.c      ****     }
 102:pk_usb.c      ****     LED_Write(0);
 383              		.loc 1 102 0
 384 003e 0020     		movs	r0, #0
 385 0040 FFF7FEFF 		bl	LED_Write
 386              	.LVL35:
 103:pk_usb.c      ****     USBFS_LoadInEP(EP_KEYBOARD_IN, (uint8 *)KB_Data, 8); 	/* Loads an inital value into EP1 and sen
 387              		.loc 1 103 0
 388 0044 064C     		ldr	r4, .L36
 389 0046 0822     		movs	r2, #8
 390 0048 04F12001 		add	r1, r4, #32
 391 004c 0420     		movs	r0, #4
 392 004e FFF7FEFF 		bl	USBFS_LoadInEP
 393              	.LVL36:
 104:pk_usb.c      ****     USBFS_CDC_Init(); // initialize cdc comms
 394              		.loc 1 104 0
 395 0052 FFF7FEFF 		bl	USBFS_CDC_Init
ARM GAS  C:\Users\bkettle\AppData\Local\Temp\ccwxlpc4.s 			page 10


 396              	.LVL37:
 105:pk_usb.c      ****     KB_Initialized = true;
 397              		.loc 1 105 0
 398 0056 0123     		movs	r3, #1
 399 0058 84F82830 		strb	r3, [r4, #40]
 400 005c 10BD     		pop	{r4, pc}
 401              	.L35:
 402              		.cfi_def_cfa_offset 0
 403              		.cfi_restore 4
 404              		.cfi_restore 14
 405 005e 7047     		bx	lr
 406              	.L37:
 407              		.align	2
 408              	.L36:
 409 0060 00000000 		.word	.LANCHOR0
 410 0064 00000000 		.word	.LC0
 411 0068 14000000 		.word	.LC1
 412              		.cfi_endproc
 413              	.LFE69:
 414              		.size	USB_Initialize, .-USB_Initialize
 415              		.section	.text.KB_TypeString,"ax",%progbits
 416              		.align	2
 417              		.global	KB_TypeString
 418              		.thumb
 419              		.thumb_func
 420              		.type	KB_TypeString, %function
 421              	KB_TypeString:
 422              	.LFB70:
 106:pk_usb.c      **** }
 107:pk_usb.c      **** 
 108:pk_usb.c      **** void KB_TypeString(char* str_to_type, bool draw) {
 423              		.loc 1 108 0
 424              		.cfi_startproc
 425              		@ args = 0, pretend = 0, frame = 0
 426              		@ frame_needed = 0, uses_anonymous_args = 0
 427              	.LVL38:
 428 0000 70B5     		push	{r4, r5, r6, lr}
 429              		.cfi_def_cfa_offset 16
 430              		.cfi_offset 4, -16
 431              		.cfi_offset 5, -12
 432              		.cfi_offset 6, -8
 433              		.cfi_offset 14, -4
 434 0002 0546     		mov	r5, r0
 435 0004 0E46     		mov	r6, r1
 109:pk_usb.c      ****     // enters the given string through keyboard emulation
 110:pk_usb.c      ****     // takes a li bit of time
 111:pk_usb.c      ****     USB_Initialize();
 436              		.loc 1 111 0
 437 0006 FFF7FEFF 		bl	USB_Initialize
 438              	.LVL39:
 112:pk_usb.c      ****     if (KB_Initialized) {
 439              		.loc 1 112 0
 440 000a 224B     		ldr	r3, .L45
 441 000c 93F82830 		ldrb	r3, [r3, #40]	@ zero_extendqisi2
 442 0010 7BB3     		cbz	r3, .L39
 113:pk_usb.c      ****         if (draw) {
 443              		.loc 1 113 0
ARM GAS  C:\Users\bkettle\AppData\Local\Temp\ccwxlpc4.s 			page 11


 444 0012 56B1     		cbz	r6, .L40
 114:pk_usb.c      ****             display_clear();
 445              		.loc 1 114 0
 446 0014 FFF7FEFF 		bl	display_clear
 447              	.LVL40:
 115:pk_usb.c      ****             gfx_setCursor(20,40);
 448              		.loc 1 115 0
 449 0018 2821     		movs	r1, #40
 450 001a 1420     		movs	r0, #20
 451 001c FFF7FEFF 		bl	gfx_setCursor
 452              	.LVL41:
 116:pk_usb.c      ****             gfx_println("typing...");
 453              		.loc 1 116 0
 454 0020 1D48     		ldr	r0, .L45+4
 455 0022 FFF7FEFF 		bl	gfx_println
 456              	.LVL42:
 117:pk_usb.c      ****             display_update();
 457              		.loc 1 117 0
 458 0026 FFF7FEFF 		bl	display_update
 459              	.LVL43:
 460              	.L40:
 108:pk_usb.c      ****     // enters the given string through keyboard emulation
 461              		.loc 1 108 0 discriminator 1
 462 002a 0024     		movs	r4, #0
 463 002c 0AE0     		b	.L41
 464              	.LVL44:
 465              	.L42:
 466              	.LBB4:
 467              	.LBB5:
 118:pk_usb.c      ****         }
 119:pk_usb.c      ****         for (unsigned int i = 0; i<strlen(str_to_type); i++) {
 120:pk_usb.c      ****             // the ascii to hid table starts at ascii 32
 121:pk_usb.c      ****             int shifted_ascii = (int) str_to_type[i] - 32;
 468              		.loc 1 121 0 discriminator 3
 469 002e 2B5D     		ldrb	r3, [r5, r4]	@ zero_extendqisi2
 470 0030 203B     		subs	r3, r3, #32
 471              	.LVL45:
 122:pk_usb.c      ****             // type the current character
 123:pk_usb.c      ****             KB_TypeChar(ascii_to_hid[shifted_ascii]);
 472              		.loc 1 123 0 discriminator 3
 473 0032 1A4A     		ldr	r2, .L45+8
 474 0034 02EBC303 		add	r3, r2, r3, lsl #3
 475              	.LVL46:
 476 0038 0433     		adds	r3, r3, #4
 477 003a 93E80300 		ldmia	r3, {r0, r1}
 478 003e FFF7FEFF 		bl	KB_TypeChar
 479              	.LVL47:
 480              	.LBE5:
 119:pk_usb.c      ****             // the ascii to hid table starts at ascii 32
 481              		.loc 1 119 0 discriminator 3
 482 0042 0134     		adds	r4, r4, #1
 483              	.LVL48:
 484              	.L41:
 119:pk_usb.c      ****             // the ascii to hid table starts at ascii 32
 485              		.loc 1 119 0 is_stmt 0 discriminator 1
 486 0044 2846     		mov	r0, r5
 487 0046 FFF7FEFF 		bl	strlen
ARM GAS  C:\Users\bkettle\AppData\Local\Temp\ccwxlpc4.s 			page 12


 488              	.LVL49:
 489 004a 8442     		cmp	r4, r0
 490 004c EFD3     		bcc	.L42
 491              	.LBE4:
 124:pk_usb.c      ****         }
 125:pk_usb.c      ****         USB_print(str_to_type);
 492              		.loc 1 125 0 is_stmt 1
 493 004e 2846     		mov	r0, r5
 494 0050 FFF7FEFF 		bl	USB_print
 495              	.LVL50:
 126:pk_usb.c      ****         if (draw) {
 496              		.loc 1 126 0
 497 0054 E6B1     		cbz	r6, .L38
 127:pk_usb.c      ****             gfx_setCursor(20,48);
 498              		.loc 1 127 0
 499 0056 3021     		movs	r1, #48
 500 0058 1420     		movs	r0, #20
 501 005a FFF7FEFF 		bl	gfx_setCursor
 502              	.LVL51:
 128:pk_usb.c      ****             gfx_println("done!");
 503              		.loc 1 128 0
 504 005e 1048     		ldr	r0, .L45+12
 505 0060 FFF7FEFF 		bl	gfx_println
 506              	.LVL52:
 129:pk_usb.c      ****             display_update();
 507              		.loc 1 129 0
 508 0064 FFF7FEFF 		bl	display_update
 509              	.LVL53:
 130:pk_usb.c      ****             CyDelay(400);
 510              		.loc 1 130 0
 511 0068 4FF4C870 		mov	r0, #400
 512 006c FFF7FEFF 		bl	CyDelay
 513              	.LVL54:
 514 0070 70BD     		pop	{r4, r5, r6, pc}
 515              	.LVL55:
 516              	.L39:
 131:pk_usb.c      ****         }
 132:pk_usb.c      ****     }
 133:pk_usb.c      ****     else {
 134:pk_usb.c      ****         display_clear();
 517              		.loc 1 134 0
 518 0072 FFF7FEFF 		bl	display_clear
 519              	.LVL56:
 135:pk_usb.c      ****         gfx_setCursor(20,40);
 520              		.loc 1 135 0
 521 0076 2821     		movs	r1, #40
 522 0078 1420     		movs	r0, #20
 523 007a FFF7FEFF 		bl	gfx_setCursor
 524              	.LVL57:
 136:pk_usb.c      ****         gfx_println("failed, not connected");
 525              		.loc 1 136 0
 526 007e 0948     		ldr	r0, .L45+16
 527 0080 FFF7FEFF 		bl	gfx_println
 528              	.LVL58:
 137:pk_usb.c      ****         display_update();
 529              		.loc 1 137 0
 530 0084 FFF7FEFF 		bl	display_update
ARM GAS  C:\Users\bkettle\AppData\Local\Temp\ccwxlpc4.s 			page 13


 531              	.LVL59:
 138:pk_usb.c      ****         CyDelay(600);
 532              		.loc 1 138 0
 533 0088 4FF41670 		mov	r0, #600
 534 008c FFF7FEFF 		bl	CyDelay
 535              	.LVL60:
 536              	.L38:
 537 0090 70BD     		pop	{r4, r5, r6, pc}
 538              	.LVL61:
 539              	.L46:
 540 0092 00BF     		.align	2
 541              	.L45:
 542 0094 00000000 		.word	.LANCHOR0
 543 0098 38000000 		.word	.LC2
 544 009c 00000000 		.word	.LANCHOR1
 545 00a0 44000000 		.word	.LC3
 546 00a4 4C000000 		.word	.LC4
 547              		.cfi_endproc
 548              	.LFE70:
 549              		.size	KB_TypeString, .-KB_TypeString
 550              		.global	rx_buff_length
 551              		.global	rx_buffer
 552              		.global	ascii_to_hid
 553              		.global	KB_Data
 554              		.global	KB_Initialized
 555              		.data
 556              		.align	2
 557              		.set	.LANCHOR1,. + 0
 558              		.type	rx_buff_length, %object
 559              		.size	rx_buff_length, 4
 560              	rx_buff_length:
 561 0000 1E000000 		.word	30
 562              		.type	ascii_to_hid, %object
 563              		.size	ascii_to_hid, 768
 564              	ascii_to_hid:
 565 0004 2C000000 		.word	44
 566 0008 00       		.byte	0
 567 0009 000000   		.space	3
 568 000c 1E000000 		.word	30
 569 0010 01       		.byte	1
 570 0011 000000   		.space	3
 571 0014 34000000 		.word	52
 572 0018 01       		.byte	1
 573 0019 000000   		.space	3
 574 001c 20000000 		.word	32
 575 0020 01       		.byte	1
 576 0021 000000   		.space	3
 577 0024 21000000 		.word	33
 578 0028 01       		.byte	1
 579 0029 000000   		.space	3
 580 002c 22000000 		.word	34
 581 0030 01       		.byte	1
 582 0031 000000   		.space	3
 583 0034 24000000 		.word	36
 584 0038 01       		.byte	1
 585 0039 000000   		.space	3
 586 003c 34000000 		.word	52
ARM GAS  C:\Users\bkettle\AppData\Local\Temp\ccwxlpc4.s 			page 14


 587 0040 00       		.byte	0
 588 0041 000000   		.space	3
 589 0044 26000000 		.word	38
 590 0048 01       		.byte	1
 591 0049 000000   		.space	3
 592 004c 27000000 		.word	39
 593 0050 01       		.byte	1
 594 0051 000000   		.space	3
 595 0054 25000000 		.word	37
 596 0058 01       		.byte	1
 597 0059 000000   		.space	3
 598 005c 2E000000 		.word	46
 599 0060 01       		.byte	1
 600 0061 000000   		.space	3
 601 0064 36000000 		.word	54
 602 0068 00       		.byte	0
 603 0069 000000   		.space	3
 604 006c 2D000000 		.word	45
 605 0070 00       		.byte	0
 606 0071 000000   		.space	3
 607 0074 37000000 		.word	55
 608 0078 00       		.byte	0
 609 0079 000000   		.space	3
 610 007c 38000000 		.word	56
 611 0080 00       		.byte	0
 612 0081 000000   		.space	3
 613 0084 27000000 		.word	39
 614 0088 00       		.byte	0
 615 0089 000000   		.space	3
 616 008c 1E000000 		.word	30
 617 0090 00       		.byte	0
 618 0091 000000   		.space	3
 619 0094 1F000000 		.word	31
 620 0098 00       		.byte	0
 621 0099 000000   		.space	3
 622 009c 20000000 		.word	32
 623 00a0 00       		.byte	0
 624 00a1 000000   		.space	3
 625 00a4 21000000 		.word	33
 626 00a8 00       		.byte	0
 627 00a9 000000   		.space	3
 628 00ac 22000000 		.word	34
 629 00b0 00       		.byte	0
 630 00b1 000000   		.space	3
 631 00b4 23000000 		.word	35
 632 00b8 00       		.byte	0
 633 00b9 000000   		.space	3
 634 00bc 24000000 		.word	36
 635 00c0 00       		.byte	0
 636 00c1 000000   		.space	3
 637 00c4 25000000 		.word	37
 638 00c8 00       		.byte	0
 639 00c9 000000   		.space	3
 640 00cc 26000000 		.word	38
 641 00d0 00       		.byte	0
 642 00d1 000000   		.space	3
 643 00d4 33000000 		.word	51
ARM GAS  C:\Users\bkettle\AppData\Local\Temp\ccwxlpc4.s 			page 15


 644 00d8 01       		.byte	1
 645 00d9 000000   		.space	3
 646 00dc 33000000 		.word	51
 647 00e0 00       		.byte	0
 648 00e1 000000   		.space	3
 649 00e4 36000000 		.word	54
 650 00e8 01       		.byte	1
 651 00e9 000000   		.space	3
 652 00ec 2E000000 		.word	46
 653 00f0 00       		.byte	0
 654 00f1 000000   		.space	3
 655 00f4 37000000 		.word	55
 656 00f8 01       		.byte	1
 657 00f9 000000   		.space	3
 658 00fc 38000000 		.word	56
 659 0100 01       		.byte	1
 660 0101 000000   		.space	3
 661 0104 1F000000 		.word	31
 662 0108 01       		.byte	1
 663 0109 000000   		.space	3
 664 010c 04000000 		.word	4
 665 0110 01       		.byte	1
 666 0111 000000   		.space	3
 667 0114 05000000 		.word	5
 668 0118 01       		.byte	1
 669 0119 000000   		.space	3
 670 011c 06000000 		.word	6
 671 0120 01       		.byte	1
 672 0121 000000   		.space	3
 673 0124 07000000 		.word	7
 674 0128 01       		.byte	1
 675 0129 000000   		.space	3
 676 012c 08000000 		.word	8
 677 0130 01       		.byte	1
 678 0131 000000   		.space	3
 679 0134 09000000 		.word	9
 680 0138 01       		.byte	1
 681 0139 000000   		.space	3
 682 013c 0A000000 		.word	10
 683 0140 01       		.byte	1
 684 0141 000000   		.space	3
 685 0144 0B000000 		.word	11
 686 0148 01       		.byte	1
 687 0149 000000   		.space	3
 688 014c 0C000000 		.word	12
 689 0150 01       		.byte	1
 690 0151 000000   		.space	3
 691 0154 0D000000 		.word	13
 692 0158 01       		.byte	1
 693 0159 000000   		.space	3
 694 015c 0E000000 		.word	14
 695 0160 01       		.byte	1
 696 0161 000000   		.space	3
 697 0164 0F000000 		.word	15
 698 0168 01       		.byte	1
 699 0169 000000   		.space	3
 700 016c 10000000 		.word	16
ARM GAS  C:\Users\bkettle\AppData\Local\Temp\ccwxlpc4.s 			page 16


 701 0170 01       		.byte	1
 702 0171 000000   		.space	3
 703 0174 11000000 		.word	17
 704 0178 01       		.byte	1
 705 0179 000000   		.space	3
 706 017c 12000000 		.word	18
 707 0180 01       		.byte	1
 708 0181 000000   		.space	3
 709 0184 13000000 		.word	19
 710 0188 01       		.byte	1
 711 0189 000000   		.space	3
 712 018c 14000000 		.word	20
 713 0190 01       		.byte	1
 714 0191 000000   		.space	3
 715 0194 15000000 		.word	21
 716 0198 01       		.byte	1
 717 0199 000000   		.space	3
 718 019c 16000000 		.word	22
 719 01a0 01       		.byte	1
 720 01a1 000000   		.space	3
 721 01a4 17000000 		.word	23
 722 01a8 01       		.byte	1
 723 01a9 000000   		.space	3
 724 01ac 18000000 		.word	24
 725 01b0 01       		.byte	1
 726 01b1 000000   		.space	3
 727 01b4 19000000 		.word	25
 728 01b8 01       		.byte	1
 729 01b9 000000   		.space	3
 730 01bc 1A000000 		.word	26
 731 01c0 01       		.byte	1
 732 01c1 000000   		.space	3
 733 01c4 1B000000 		.word	27
 734 01c8 01       		.byte	1
 735 01c9 000000   		.space	3
 736 01cc 1C000000 		.word	28
 737 01d0 01       		.byte	1
 738 01d1 000000   		.space	3
 739 01d4 1D000000 		.word	29
 740 01d8 01       		.byte	1
 741 01d9 000000   		.space	3
 742 01dc 2F000000 		.word	47
 743 01e0 00       		.byte	0
 744 01e1 000000   		.space	3
 745 01e4 31000000 		.word	49
 746 01e8 00       		.byte	0
 747 01e9 000000   		.space	3
 748 01ec 30000000 		.word	48
 749 01f0 00       		.byte	0
 750 01f1 000000   		.space	3
 751 01f4 23000000 		.word	35
 752 01f8 01       		.byte	1
 753 01f9 000000   		.space	3
 754 01fc 2D000000 		.word	45
 755 0200 01       		.byte	1
 756 0201 000000   		.space	3
 757 0204 35000000 		.word	53
ARM GAS  C:\Users\bkettle\AppData\Local\Temp\ccwxlpc4.s 			page 17


 758 0208 00       		.byte	0
 759 0209 000000   		.space	3
 760 020c 04000000 		.word	4
 761 0210 00       		.byte	0
 762 0211 000000   		.space	3
 763 0214 05000000 		.word	5
 764 0218 00       		.byte	0
 765 0219 000000   		.space	3
 766 021c 06000000 		.word	6
 767 0220 00       		.byte	0
 768 0221 000000   		.space	3
 769 0224 07000000 		.word	7
 770 0228 00       		.byte	0
 771 0229 000000   		.space	3
 772 022c 08000000 		.word	8
 773 0230 00       		.byte	0
 774 0231 000000   		.space	3
 775 0234 09000000 		.word	9
 776 0238 00       		.byte	0
 777 0239 000000   		.space	3
 778 023c 0A000000 		.word	10
 779 0240 00       		.byte	0
 780 0241 000000   		.space	3
 781 0244 0B000000 		.word	11
 782 0248 00       		.byte	0
 783 0249 000000   		.space	3
 784 024c 0C000000 		.word	12
 785 0250 00       		.byte	0
 786 0251 000000   		.space	3
 787 0254 0D000000 		.word	13
 788 0258 00       		.byte	0
 789 0259 000000   		.space	3
 790 025c 0E000000 		.word	14
 791 0260 00       		.byte	0
 792 0261 000000   		.space	3
 793 0264 0F000000 		.word	15
 794 0268 00       		.byte	0
 795 0269 000000   		.space	3
 796 026c 10000000 		.word	16
 797 0270 00       		.byte	0
 798 0271 000000   		.space	3
 799 0274 11000000 		.word	17
 800 0278 00       		.byte	0
 801 0279 000000   		.space	3
 802 027c 12000000 		.word	18
 803 0280 00       		.byte	0
 804 0281 000000   		.space	3
 805 0284 13000000 		.word	19
 806 0288 00       		.byte	0
 807 0289 000000   		.space	3
 808 028c 14000000 		.word	20
 809 0290 00       		.byte	0
 810 0291 000000   		.space	3
 811 0294 15000000 		.word	21
 812 0298 00       		.byte	0
 813 0299 000000   		.space	3
 814 029c 16000000 		.word	22
ARM GAS  C:\Users\bkettle\AppData\Local\Temp\ccwxlpc4.s 			page 18


 815 02a0 00       		.byte	0
 816 02a1 000000   		.space	3
 817 02a4 17000000 		.word	23
 818 02a8 00       		.byte	0
 819 02a9 000000   		.space	3
 820 02ac 18000000 		.word	24
 821 02b0 00       		.byte	0
 822 02b1 000000   		.space	3
 823 02b4 19000000 		.word	25
 824 02b8 00       		.byte	0
 825 02b9 000000   		.space	3
 826 02bc 1A000000 		.word	26
 827 02c0 00       		.byte	0
 828 02c1 000000   		.space	3
 829 02c4 1B000000 		.word	27
 830 02c8 00       		.byte	0
 831 02c9 000000   		.space	3
 832 02cc 1C000000 		.word	28
 833 02d0 00       		.byte	0
 834 02d1 000000   		.space	3
 835 02d4 1D000000 		.word	29
 836 02d8 00       		.byte	0
 837 02d9 000000   		.space	3
 838 02dc 2F000000 		.word	47
 839 02e0 01       		.byte	1
 840 02e1 000000   		.space	3
 841 02e4 31000000 		.word	49
 842 02e8 01       		.byte	1
 843 02e9 000000   		.space	3
 844 02ec 30000000 		.word	48
 845 02f0 01       		.byte	1
 846 02f1 000000   		.space	3
 847 02f4 35000000 		.word	53
 848 02f8 01       		.byte	1
 849 02f9 000000   		.space	3
 850 02fc 2A000000 		.word	42
 851 0300 00       		.byte	0
 852 0301 000000   		.space	3
 853              		.section	.rodata.str1.4,"aMS",%progbits,1
 854              		.align	2
 855              	.LC0:
 856 0000 696E6974 		.ascii	"initializing usb...\000"
 856      69616C69 
 856      7A696E67 
 856      20757362 
 856      2E2E2E00 
 857              	.LC1:
 858 0014 6D757374 		.ascii	"must be connected to micro-usb port\000"
 858      20626520 
 858      636F6E6E 
 858      65637465 
 858      6420746F 
 859              	.LC2:
 860 0038 74797069 		.ascii	"typing...\000"
 860      6E672E2E 
 860      2E00
 861 0042 0000     		.space	2
ARM GAS  C:\Users\bkettle\AppData\Local\Temp\ccwxlpc4.s 			page 19


 862              	.LC3:
 863 0044 646F6E65 		.ascii	"done!\000"
 863      2100
 864 004a 0000     		.space	2
 865              	.LC4:
 866 004c 6661696C 		.ascii	"failed, not connected\000"
 866      65642C20 
 866      6E6F7420 
 866      636F6E6E 
 866      65637465 
 867              		.bss
 868              		.align	2
 869              		.set	.LANCHOR0,. + 0
 870              		.type	rx_buffer, %object
 871              		.size	rx_buffer, 30
 872              	rx_buffer:
 873 0000 00000000 		.space	30
 873      00000000 
 873      00000000 
 873      00000000 
 873      00000000 
 874 001e 0000     		.space	2
 875              		.type	KB_Data, %object
 876              		.size	KB_Data, 8
 877              	KB_Data:
 878 0020 00000000 		.space	8
 878      00000000 
 879              		.type	KB_Initialized, %object
 880              		.size	KB_Initialized, 1
 881              	KB_Initialized:
 882 0028 00       		.space	1
 883              		.text
 884              	.Letext0:
 885              		.file 2 "c:\\program files (x86)\\cypress\\psoc creator\\4.3\\psoc creator\\import\\gnu\\arm\\5.4.
 886              		.file 3 "c:\\program files (x86)\\cypress\\psoc creator\\4.3\\psoc creator\\import\\gnu\\arm\\5.4.
 887              		.file 4 "Generated_Source\\PSoC5/cytypes.h"
 888              		.file 5 "./pk_usb.h"
 889              		.file 6 "Generated_Source\\PSoC5/core_cm3.h"
 890              		.file 7 "Generated_Source\\PSoC5/USBFS_cdc.h"
 891              		.file 8 "c:\\program files (x86)\\cypress\\psoc creator\\4.3\\psoc creator\\import\\gnu\\arm\\5.4.
 892              		.file 9 "Generated_Source\\PSoC5/USBFS.h"
 893              		.file 10 "Generated_Source\\PSoC5/LED.h"
 894              		.file 11 "./ssd1306.h"
 895              		.file 12 "Generated_Source\\PSoC5/CyLib.h"