ARM GAS  C:\Users\bkettle\AppData\Local\Temp\cc8tpVDe.s 			page 1


   1              		.syntax unified
   2              		.cpu cortex-m3
   3              		.fpu softvfp
   4              		.eabi_attribute 20, 1
   5              		.eabi_attribute 21, 1
   6              		.eabi_attribute 23, 3
   7              		.eabi_attribute 24, 1
   8              		.eabi_attribute 25, 1
   9              		.eabi_attribute 26, 1
  10              		.eabi_attribute 30, 1
  11              		.eabi_attribute 34, 1
  12              		.eabi_attribute 18, 4
  13              		.thumb
  14              		.syntax unified
  15              		.file	"USBFS.c"
  16              		.text
  17              	.Ltext0:
  18              		.cfi_sections	.debug_frame
  19              		.section	.text.USBFS_Init,"ax",%progbits
  20              		.align	2
  21              		.global	USBFS_Init
  22              		.thumb
  23              		.thumb_func
  24              		.type	USBFS_Init, %function
  25              	USBFS_Init:
  26              	.LFB1:
  27              		.file 1 "Generated_Source\\PSoC5\\USBFS.c"
   1:Generated_Source\PSoC5/USBFS.c **** /***************************************************************************//**
   2:Generated_Source\PSoC5/USBFS.c **** * \file USBFS.c
   3:Generated_Source\PSoC5/USBFS.c **** * \version 3.20
   4:Generated_Source\PSoC5/USBFS.c **** *
   5:Generated_Source\PSoC5/USBFS.c **** * \brief
   6:Generated_Source\PSoC5/USBFS.c **** *  This file contains the global USBFS API functions.
   7:Generated_Source\PSoC5/USBFS.c **** *
   8:Generated_Source\PSoC5/USBFS.c **** * Note:
   9:Generated_Source\PSoC5/USBFS.c **** *  Many of the functions use an endpoint number. SRAM arrays are sized with 9
  10:Generated_Source\PSoC5/USBFS.c **** *  elements, so they are indexed directly by epNumber.  The SIE and ARB
  11:Generated_Source\PSoC5/USBFS.c **** *  registers are indexed by variations of epNumber - 1.
  12:Generated_Source\PSoC5/USBFS.c **** *
  13:Generated_Source\PSoC5/USBFS.c **** ********************************************************************************
  14:Generated_Source\PSoC5/USBFS.c **** * \copyright
  15:Generated_Source\PSoC5/USBFS.c **** * Copyright 2008-2016, Cypress Semiconductor Corporation.  All rights reserved.
  16:Generated_Source\PSoC5/USBFS.c **** * You may use this file only in accordance with the license, terms, conditions,
  17:Generated_Source\PSoC5/USBFS.c **** * disclaimers, and limitations in the end user license agreement accompanying
  18:Generated_Source\PSoC5/USBFS.c **** * the software package with which this file was provided.
  19:Generated_Source\PSoC5/USBFS.c **** *******************************************************************************/
  20:Generated_Source\PSoC5/USBFS.c **** 
  21:Generated_Source\PSoC5/USBFS.c **** #include "USBFS_pvt.h"
  22:Generated_Source\PSoC5/USBFS.c **** #include "USBFS_cydmac.h"
  23:Generated_Source\PSoC5/USBFS.c **** #include "USBFS_hid.h"
  24:Generated_Source\PSoC5/USBFS.c **** #include "USBFS_Dp.h"
  25:Generated_Source\PSoC5/USBFS.c **** 
  26:Generated_Source\PSoC5/USBFS.c **** 
  27:Generated_Source\PSoC5/USBFS.c **** /***************************************
  28:Generated_Source\PSoC5/USBFS.c **** * Global data allocation
  29:Generated_Source\PSoC5/USBFS.c **** ***************************************/
  30:Generated_Source\PSoC5/USBFS.c **** 
ARM GAS  C:\Users\bkettle\AppData\Local\Temp\cc8tpVDe.s 			page 2


  31:Generated_Source\PSoC5/USBFS.c **** /** Indicates whether the USBFS has been initialized. The variable is
  32:Generated_Source\PSoC5/USBFS.c **** * initialized to 0 after device reset and set to 1 the first time USBFS_Start()
  33:Generated_Source\PSoC5/USBFS.c **** * is called. This allows the Component to restart without reinitialization after
  34:Generated_Source\PSoC5/USBFS.c **** * the first call to the USBFS_Start() routine.
  35:Generated_Source\PSoC5/USBFS.c **** * If re-initialization of the Component is required, the variable should be set
  36:Generated_Source\PSoC5/USBFS.c **** * to 0 before the USBFS_Start() routine is called. Alternatively, the USBFS can
  37:Generated_Source\PSoC5/USBFS.c **** * be reinitialized by calling both USBFS_Init() and USBFS_InitComponent()
  38:Generated_Source\PSoC5/USBFS.c **** * functions.
  39:Generated_Source\PSoC5/USBFS.c **** */
  40:Generated_Source\PSoC5/USBFS.c **** uint8 USBFS_initVar = 0u;
  41:Generated_Source\PSoC5/USBFS.c **** 
  42:Generated_Source\PSoC5/USBFS.c **** #if (USBFS_EP_MANAGEMENT_DMA)
  43:Generated_Source\PSoC5/USBFS.c ****     #if (CY_PSOC4)
  44:Generated_Source\PSoC5/USBFS.c ****         static void USBFS_InitEpDma(void);
  45:Generated_Source\PSoC5/USBFS.c **** 
  46:Generated_Source\PSoC5/USBFS.c ****         /* DMA chanels assigend for endpoints. */
  47:Generated_Source\PSoC5/USBFS.c ****         const uint8 USBFS_DmaChan[USBFS_MAX_EP] =
  48:Generated_Source\PSoC5/USBFS.c ****         {
  49:Generated_Source\PSoC5/USBFS.c ****             0u,
  50:Generated_Source\PSoC5/USBFS.c ****             0u,
  51:Generated_Source\PSoC5/USBFS.c ****             0u,
  52:Generated_Source\PSoC5/USBFS.c ****             0u,
  53:Generated_Source\PSoC5/USBFS.c ****             0u,
  54:Generated_Source\PSoC5/USBFS.c ****             0u,
  55:Generated_Source\PSoC5/USBFS.c ****             0u,
  56:Generated_Source\PSoC5/USBFS.c ****             0u,
  57:Generated_Source\PSoC5/USBFS.c ****             0u,
  58:Generated_Source\PSoC5/USBFS.c ****         };        
  59:Generated_Source\PSoC5/USBFS.c ****     #else
  60:Generated_Source\PSoC5/USBFS.c ****         /* DMA chanels assigend for endpoints. */
  61:Generated_Source\PSoC5/USBFS.c ****         uint8 USBFS_DmaChan[USBFS_MAX_EP];
  62:Generated_Source\PSoC5/USBFS.c ****         
  63:Generated_Source\PSoC5/USBFS.c ****         /* DMA TDs require for PSoC 3/5LP operation. */
  64:Generated_Source\PSoC5/USBFS.c ****         uint8 USBFS_DmaTd[USBFS_MAX_EP];
  65:Generated_Source\PSoC5/USBFS.c ****     #endif /* (CY_PSOC4) */
  66:Generated_Source\PSoC5/USBFS.c **** #endif /* (USBFS_EP_MANAGEMENT_DMA) */
  67:Generated_Source\PSoC5/USBFS.c **** 
  68:Generated_Source\PSoC5/USBFS.c **** #if (USBFS_EP_MANAGEMENT_DMA_AUTO)
  69:Generated_Source\PSoC5/USBFS.c **** #if (CY_PSOC4)
  70:Generated_Source\PSoC5/USBFS.c ****     /* Number of DMA bursts. */
  71:Generated_Source\PSoC5/USBFS.c ****     uint8  USBFS_DmaEpBurstCnt   [USBFS_MAX_EP];
  72:Generated_Source\PSoC5/USBFS.c ****     
  73:Generated_Source\PSoC5/USBFS.c ****     /* Number of bytes to transfer in last DMA burst. */
  74:Generated_Source\PSoC5/USBFS.c ****     uint8  USBFS_DmaEpLastBurstEl[USBFS_MAX_EP];
  75:Generated_Source\PSoC5/USBFS.c **** 
  76:Generated_Source\PSoC5/USBFS.c ****     /* Storage for arrays above. */
  77:Generated_Source\PSoC5/USBFS.c ****     uint8  USBFS_DmaEpBurstCntBackup  [USBFS_MAX_EP];
  78:Generated_Source\PSoC5/USBFS.c ****     uint32 USBFS_DmaEpBufferAddrBackup[USBFS_MAX_EP];
  79:Generated_Source\PSoC5/USBFS.c ****      
  80:Generated_Source\PSoC5/USBFS.c ****     /* DMA trigger mux output for usb.dma_req[0-7]. */
  81:Generated_Source\PSoC5/USBFS.c ****     const uint8 USBFS_DmaReqOut[USBFS_MAX_EP] =
  82:Generated_Source\PSoC5/USBFS.c ****     {
  83:Generated_Source\PSoC5/USBFS.c ****         0u,
  84:Generated_Source\PSoC5/USBFS.c ****         USBFS_ep1_dma__TR_OUTPUT,
  85:Generated_Source\PSoC5/USBFS.c ****         USBFS_ep2_dma__TR_OUTPUT,
  86:Generated_Source\PSoC5/USBFS.c ****         USBFS_ep3_dma__TR_OUTPUT,
  87:Generated_Source\PSoC5/USBFS.c ****         USBFS_ep4_dma__TR_OUTPUT,
ARM GAS  C:\Users\bkettle\AppData\Local\Temp\cc8tpVDe.s 			page 3


  88:Generated_Source\PSoC5/USBFS.c ****         USBFS_ep5_dma__TR_OUTPUT,
  89:Generated_Source\PSoC5/USBFS.c ****         0u,
  90:Generated_Source\PSoC5/USBFS.c ****         0u,
  91:Generated_Source\PSoC5/USBFS.c ****         0u,
  92:Generated_Source\PSoC5/USBFS.c ****     };
  93:Generated_Source\PSoC5/USBFS.c **** 
  94:Generated_Source\PSoC5/USBFS.c ****     /* DMA trigger mux output for usb.dma_burstend[0-7]. */
  95:Generated_Source\PSoC5/USBFS.c ****     const uint8 USBFS_DmaBurstEndOut[USBFS_MAX_EP] =
  96:Generated_Source\PSoC5/USBFS.c ****     {
  97:Generated_Source\PSoC5/USBFS.c ****         0u,
  98:Generated_Source\PSoC5/USBFS.c ****         USBFS_BURSTEND_0_TR_OUTPUT,
  99:Generated_Source\PSoC5/USBFS.c ****         USBFS_BURSTEND_1_TR_OUTPUT,
 100:Generated_Source\PSoC5/USBFS.c ****         USBFS_BURSTEND_2_TR_OUTPUT,
 101:Generated_Source\PSoC5/USBFS.c ****         USBFS_BURSTEND_3_TR_OUTPUT,
 102:Generated_Source\PSoC5/USBFS.c ****         USBFS_BURSTEND_4_TR_OUTPUT,
 103:Generated_Source\PSoC5/USBFS.c ****         USBFS_BURSTEND_5_TR_OUTPUT,
 104:Generated_Source\PSoC5/USBFS.c ****         USBFS_BURSTEND_6_TR_OUTPUT,
 105:Generated_Source\PSoC5/USBFS.c ****         USBFS_BURSTEND_7_TR_OUTPUT
 106:Generated_Source\PSoC5/USBFS.c ****     };
 107:Generated_Source\PSoC5/USBFS.c ****     
 108:Generated_Source\PSoC5/USBFS.c **** #else
 109:Generated_Source\PSoC5/USBFS.c ****     #if (USBFS_EP_DMA_AUTO_OPT == 0u)
 110:Generated_Source\PSoC5/USBFS.c ****         static uint8 clearInDataRdyStatus = USBFS_ARB_EPX_CFG_DEFAULT;
 111:Generated_Source\PSoC5/USBFS.c ****         uint8 USBFS_DmaNextTd[USBFS_MAX_EP];
 112:Generated_Source\PSoC5/USBFS.c ****         const uint8 USBFS_epX_TD_TERMOUT_EN[USBFS_MAX_EP] =
 113:Generated_Source\PSoC5/USBFS.c ****         {
 114:Generated_Source\PSoC5/USBFS.c ****             0u,
 115:Generated_Source\PSoC5/USBFS.c ****             0u,
 116:Generated_Source\PSoC5/USBFS.c ****             0u,
 117:Generated_Source\PSoC5/USBFS.c ****             0u,
 118:Generated_Source\PSoC5/USBFS.c ****             0u,
 119:Generated_Source\PSoC5/USBFS.c ****             0u,
 120:Generated_Source\PSoC5/USBFS.c ****             0u,
 121:Generated_Source\PSoC5/USBFS.c ****             0u,
 122:Generated_Source\PSoC5/USBFS.c ****             0u,
 123:Generated_Source\PSoC5/USBFS.c ****         };
 124:Generated_Source\PSoC5/USBFS.c **** 
 125:Generated_Source\PSoC5/USBFS.c ****         volatile uint16 USBFS_inLength[USBFS_MAX_EP];
 126:Generated_Source\PSoC5/USBFS.c ****         const uint8 *USBFS_inDataPointer[USBFS_MAX_EP];
 127:Generated_Source\PSoC5/USBFS.c ****         volatile uint8 USBFS_inBufFull[USBFS_MAX_EP];
 128:Generated_Source\PSoC5/USBFS.c ****     #endif /* (USBFS_EP_DMA_AUTO_OPT == 0u) */
 129:Generated_Source\PSoC5/USBFS.c **** #endif /* (CY_PSOC4) */
 130:Generated_Source\PSoC5/USBFS.c **** #endif /* (USBFS_EP_MANAGEMENT_DMA_AUTO) */
 131:Generated_Source\PSoC5/USBFS.c **** 
 132:Generated_Source\PSoC5/USBFS.c **** 
 133:Generated_Source\PSoC5/USBFS.c **** /*******************************************************************************
 134:Generated_Source\PSoC5/USBFS.c **** * Function Name: USBFS_Start
 135:Generated_Source\PSoC5/USBFS.c **** ****************************************************************************//**
 136:Generated_Source\PSoC5/USBFS.c **** *
 137:Generated_Source\PSoC5/USBFS.c **** *   This function performs all required initialization for the USBFS component.
 138:Generated_Source\PSoC5/USBFS.c **** *   After this function call, the USB device initiates communication with the
 139:Generated_Source\PSoC5/USBFS.c **** *   host by pull-up D+ line. This is the preferred method to begin component
 140:Generated_Source\PSoC5/USBFS.c **** *   operation.
 141:Generated_Source\PSoC5/USBFS.c **** *
 142:Generated_Source\PSoC5/USBFS.c **** *   Note that global interrupts have to be enabled because interrupts are
 143:Generated_Source\PSoC5/USBFS.c **** *   required for USBFS component operation.
 144:Generated_Source\PSoC5/USBFS.c **** *
ARM GAS  C:\Users\bkettle\AppData\Local\Temp\cc8tpVDe.s 			page 4


 145:Generated_Source\PSoC5/USBFS.c **** *   PSoC 4200L devices: when USBFS component configured to DMA with Automatic
 146:Generated_Source\PSoC5/USBFS.c **** *   Buffer Management, the DMA interrupt priority is changed to the highest
 147:Generated_Source\PSoC5/USBFS.c **** *   (priority 0) inside this function.
 148:Generated_Source\PSoC5/USBFS.c **** *
 149:Generated_Source\PSoC5/USBFS.c **** *   PSoC 3/PSoC 5LP devices: when USBFS component configured to DMA with
 150:Generated_Source\PSoC5/USBFS.c **** *   Automatic Buffer Management, the Arbiter interrupt priority is changed to
 151:Generated_Source\PSoC5/USBFS.c **** *   the highest (priority 0) inside this function.
 152:Generated_Source\PSoC5/USBFS.c **** *
 153:Generated_Source\PSoC5/USBFS.c **** *  \param device
 154:Generated_Source\PSoC5/USBFS.c **** *          Contains the device number of the desired device descriptor.
 155:Generated_Source\PSoC5/USBFS.c **** *          The device number can be found in the Device Descriptor Tab of
 156:Generated_Source\PSoC5/USBFS.c **** *          "Configure" dialog, under the settings of desired Device Descriptor,
 157:Generated_Source\PSoC5/USBFS.c **** *          in the "Device Number" field.
 158:Generated_Source\PSoC5/USBFS.c **** *  \param mode:
 159:Generated_Source\PSoC5/USBFS.c **** *   The operating voltage. This determines whether the voltage regulator
 160:Generated_Source\PSoC5/USBFS.c **** *   is enabled for 5V operation or if pass through mode is used for 3.3V
 161:Generated_Source\PSoC5/USBFS.c **** *   operation. Symbolic names and their associated values are given in the
 162:Generated_Source\PSoC5/USBFS.c **** *   following list.
 163:Generated_Source\PSoC5/USBFS.c **** *
 164:Generated_Source\PSoC5/USBFS.c **** *       *USBFS_3V_OPERATION* - Disable voltage regulator and pass-
 165:Generated_Source\PSoC5/USBFS.c **** *                                      through Vcc for pull-up
 166:Generated_Source\PSoC5/USBFS.c **** *
 167:Generated_Source\PSoC5/USBFS.c **** *       *USBFS_5V_OPERATION* - Enable voltage regulator and use
 168:Generated_Source\PSoC5/USBFS.c **** *                                      regulator for pull-up
 169:Generated_Source\PSoC5/USBFS.c **** *
 170:Generated_Source\PSoC5/USBFS.c **** *       *USBFS_DWR_POWER_OPERATION* - Enable or disable the voltage
 171:Generated_Source\PSoC5/USBFS.c **** *                                      regulator depending on the power supply
 172:Generated_Source\PSoC5/USBFS.c **** *                                      voltage configuration in the DWR tab.
 173:Generated_Source\PSoC5/USBFS.c **** *                                      For PSoC 3/5LP devices, the VDDD supply
 174:Generated_Source\PSoC5/USBFS.c **** *                                      voltage is considered and for PSoC 4A-L,
 175:Generated_Source\PSoC5/USBFS.c **** *                                      the VBUS supply voltage is considered.*
 176:Generated_Source\PSoC5/USBFS.c **** * \globalvars
 177:Generated_Source\PSoC5/USBFS.c **** *  \ref USBFS_initVar
 178:Generated_Source\PSoC5/USBFS.c **** *
 179:Generated_Source\PSoC5/USBFS.c **** * \sideeffect
 180:Generated_Source\PSoC5/USBFS.c **** *   This function will reset all communication states to default.
 181:Generated_Source\PSoC5/USBFS.c **** *
 182:Generated_Source\PSoC5/USBFS.c **** * \reentrant
 183:Generated_Source\PSoC5/USBFS.c **** *  No.
 184:Generated_Source\PSoC5/USBFS.c **** *
 185:Generated_Source\PSoC5/USBFS.c **** *******************************************************************************/
 186:Generated_Source\PSoC5/USBFS.c **** void USBFS_Start(uint8 device, uint8 mode) 
 187:Generated_Source\PSoC5/USBFS.c **** {
 188:Generated_Source\PSoC5/USBFS.c ****     if (0u == USBFS_initVar)
 189:Generated_Source\PSoC5/USBFS.c ****     {
 190:Generated_Source\PSoC5/USBFS.c ****         USBFS_Init();
 191:Generated_Source\PSoC5/USBFS.c ****         USBFS_initVar = 1u;
 192:Generated_Source\PSoC5/USBFS.c ****     }
 193:Generated_Source\PSoC5/USBFS.c **** 
 194:Generated_Source\PSoC5/USBFS.c ****     USBFS_InitComponent(device, mode);
 195:Generated_Source\PSoC5/USBFS.c **** }
 196:Generated_Source\PSoC5/USBFS.c **** 
 197:Generated_Source\PSoC5/USBFS.c **** 
 198:Generated_Source\PSoC5/USBFS.c **** /*******************************************************************************
 199:Generated_Source\PSoC5/USBFS.c **** * Function Name: USBFS_Init
 200:Generated_Source\PSoC5/USBFS.c **** ****************************************************************************//**
 201:Generated_Source\PSoC5/USBFS.c **** *
ARM GAS  C:\Users\bkettle\AppData\Local\Temp\cc8tpVDe.s 			page 5


 202:Generated_Source\PSoC5/USBFS.c **** * This function initializes or restores the component according to the
 203:Generated_Source\PSoC5/USBFS.c **** * customizer Configure dialog settings. It is not necessary to call
 204:Generated_Source\PSoC5/USBFS.c **** * USBFS_Init() because the USBFS_Start() routine calls
 205:Generated_Source\PSoC5/USBFS.c **** * this function and is the preferred method to begin component operation.
 206:Generated_Source\PSoC5/USBFS.c **** *
 207:Generated_Source\PSoC5/USBFS.c **** * \reentrant
 208:Generated_Source\PSoC5/USBFS.c **** *  No.
 209:Generated_Source\PSoC5/USBFS.c **** *
 210:Generated_Source\PSoC5/USBFS.c **** *******************************************************************************/
 211:Generated_Source\PSoC5/USBFS.c **** void USBFS_Init(void) 
 212:Generated_Source\PSoC5/USBFS.c **** {
  28              		.loc 1 212 0
  29              		.cfi_startproc
  30              		@ args = 0, pretend = 0, frame = 0
  31              		@ frame_needed = 0, uses_anonymous_args = 0
  32 0000 F8B5     		push	{r3, r4, r5, r6, r7, lr}
  33              		.cfi_def_cfa_offset 24
  34              		.cfi_offset 3, -24
  35              		.cfi_offset 4, -20
  36              		.cfi_offset 5, -16
  37              		.cfi_offset 6, -12
  38              		.cfi_offset 7, -8
  39              		.cfi_offset 14, -4
 213:Generated_Source\PSoC5/USBFS.c **** #if (CY_PSOC4)
 214:Generated_Source\PSoC5/USBFS.c ****     /* Enable clock to USB IP. */
 215:Generated_Source\PSoC5/USBFS.c ****     USBFS_USB_CLK_EN_REG = USBFS_USB_CLK_CSR_CLK_EN;
 216:Generated_Source\PSoC5/USBFS.c **** 
 217:Generated_Source\PSoC5/USBFS.c ****     /* The internal regulator (CR1.REG_ENABLE) is enabled in
 218:Generated_Source\PSoC5/USBFS.c ****     * USBFS_InitComponent() if it is required.
 219:Generated_Source\PSoC5/USBFS.c ****     */
 220:Generated_Source\PSoC5/USBFS.c **** 
 221:Generated_Source\PSoC5/USBFS.c ****     /* Enable USBIO control on drive mode of D+ and D- pins. */
 222:Generated_Source\PSoC5/USBFS.c ****     USBFS_USBIO_CR1_REG &= ~ (uint32) USBFS_USBIO_CR1_IOMODE;
 223:Generated_Source\PSoC5/USBFS.c **** 
 224:Generated_Source\PSoC5/USBFS.c ****     /* Set number of LF CLK to detect UBS bus reset. */
 225:Generated_Source\PSoC5/USBFS.c ****     USBFS_BUS_RST_CNT_REG = USBFS_DEFUALT_BUS_RST_CNT;
 226:Generated_Source\PSoC5/USBFS.c **** 
 227:Generated_Source\PSoC5/USBFS.c ****     /* Select VBUS detection source and clear PHY isolate. The application level
 228:Generated_Source\PSoC5/USBFS.c ****     * must ensure that VBUS is valid. There is no need to wait 2us before VBUS is valid.
 229:Generated_Source\PSoC5/USBFS.c ****     */
 230:Generated_Source\PSoC5/USBFS.c ****     USBFS_POWER_CTRL_REG = USBFS_DEFAULT_POWER_CTRL_VBUS;
 231:Generated_Source\PSoC5/USBFS.c **** 
 232:Generated_Source\PSoC5/USBFS.c ****     /* Enable PHY detector and single-ended and differential receivers. */
 233:Generated_Source\PSoC5/USBFS.c ****     USBFS_POWER_CTRL_REG |= USBFS_DEFAULT_POWER_CTRL_PHY;
 234:Generated_Source\PSoC5/USBFS.c **** 
 235:Generated_Source\PSoC5/USBFS.c ****     /* Suspend clear sequence. */
 236:Generated_Source\PSoC5/USBFS.c ****     USBFS_POWER_CTRL_REG &= (uint32) ~USBFS_POWER_CTRL_SUSPEND;
 237:Generated_Source\PSoC5/USBFS.c ****     CyDelayUs(USBFS_WAIT_SUSPEND_DEL_DISABLE);
 238:Generated_Source\PSoC5/USBFS.c ****     USBFS_POWER_CTRL_REG &= (uint32) ~USBFS_POWER_CTRL_SUSPEND_DEL;
 239:Generated_Source\PSoC5/USBFS.c **** 
 240:Generated_Source\PSoC5/USBFS.c ****     /* Sets IMO lock options and clear all other bits. */
 241:Generated_Source\PSoC5/USBFS.c ****     USBFS_CR1_REG = USBFS_DEFUALT_CR1;
 242:Generated_Source\PSoC5/USBFS.c **** 
 243:Generated_Source\PSoC5/USBFS.c ****     /* Configure level (hi, lo, med) for each interrupt source. */
 244:Generated_Source\PSoC5/USBFS.c ****     USBFS_INTR_LVL_SEL_REG = USBFS_DEFAULT_INTR_LVL_SEL;
 245:Generated_Source\PSoC5/USBFS.c **** 
 246:Generated_Source\PSoC5/USBFS.c ****     /* Configure interrupt sources from: SOF, Bus Reset and EP0. */
ARM GAS  C:\Users\bkettle\AppData\Local\Temp\cc8tpVDe.s 			page 6


 247:Generated_Source\PSoC5/USBFS.c ****     USBFS_INTR_SIE_MASK_REG = USBFS_DEFAULT_INTR_SIE_MASK;
 248:Generated_Source\PSoC5/USBFS.c **** 
 249:Generated_Source\PSoC5/USBFS.c **** #else
 250:Generated_Source\PSoC5/USBFS.c ****     uint8 enableInterrupts = CyEnterCriticalSection();
  40              		.loc 1 250 0
  41 0002 FFF7FEFF 		bl	CyEnterCriticalSection
  42              	.LVL0:
  43 0006 0746     		mov	r7, r0
  44              	.LVL1:
 251:Generated_Source\PSoC5/USBFS.c **** 
 252:Generated_Source\PSoC5/USBFS.c **** #if (USBFS_EP_MANAGEMENT_DMA)
 253:Generated_Source\PSoC5/USBFS.c ****     uint16 i;
 254:Generated_Source\PSoC5/USBFS.c **** #endif /* (USBFS_EP_MANAGEMENT_DMA) */
 255:Generated_Source\PSoC5/USBFS.c **** 
 256:Generated_Source\PSoC5/USBFS.c ****     /* Enable USB block. */
 257:Generated_Source\PSoC5/USBFS.c ****     USBFS_PM_ACT_CFG_REG |= USBFS_PM_ACT_EN_FSUSB;
  45              		.loc 1 257 0
  46 0008 484A     		ldr	r2, .L3
  47 000a 1378     		ldrb	r3, [r2]	@ zero_extendqisi2
  48 000c 43F00103 		orr	r3, r3, #1
  49 0010 1370     		strb	r3, [r2]
 258:Generated_Source\PSoC5/USBFS.c ****     /* Enable USB block for Standby Power Mode. */
 259:Generated_Source\PSoC5/USBFS.c ****     USBFS_PM_STBY_CFG_REG |= USBFS_PM_STBY_EN_FSUSB;
  50              		.loc 1 259 0
  51 0012 1032     		adds	r2, r2, #16
  52 0014 1378     		ldrb	r3, [r2]	@ zero_extendqisi2
  53 0016 43F00103 		orr	r3, r3, #1
  54 001a 1370     		strb	r3, [r2]
 260:Generated_Source\PSoC5/USBFS.c **** 
 261:Generated_Source\PSoC5/USBFS.c ****     /* Enable core clock. */
 262:Generated_Source\PSoC5/USBFS.c ****     USBFS_USB_CLK_EN_REG = USBFS_USB_CLK_ENABLE;
  55              		.loc 1 262 0
  56 001c 0126     		movs	r6, #1
  57 001e 444B     		ldr	r3, .L3+4
  58 0020 1E70     		strb	r6, [r3]
 263:Generated_Source\PSoC5/USBFS.c **** 
 264:Generated_Source\PSoC5/USBFS.c ****     USBFS_CR1_REG = USBFS_CR1_ENABLE_LOCK;
  59              		.loc 1 264 0
  60 0022 0225     		movs	r5, #2
  61 0024 943B     		subs	r3, r3, #148
  62 0026 1D70     		strb	r5, [r3]
 265:Generated_Source\PSoC5/USBFS.c **** 
 266:Generated_Source\PSoC5/USBFS.c ****     /* ENABLING USBIO PADS IN USB MODE FROM I/O MODE. */
 267:Generated_Source\PSoC5/USBFS.c ****     /* Ensure USB transmit enable is low (USB_USBIO_CR0.ten). - Manual Transmission - Disabled. */
 268:Generated_Source\PSoC5/USBFS.c ****     USBFS_USBIO_CR0_REG &= (uint8) ~USBFS_USBIO_CR0_TEN;
  63              		.loc 1 268 0
  64 0028 02F5E252 		add	r2, r2, #7232
  65 002c 1B32     		adds	r2, r2, #27
  66 002e 1378     		ldrb	r3, [r2]	@ zero_extendqisi2
  67 0030 03F07F03 		and	r3, r3, #127
  68 0034 1370     		strb	r3, [r2]
 269:Generated_Source\PSoC5/USBFS.c ****     CyDelayUs(USBFS_WAIT_REG_STABILITY_50NS);  /* ~50ns delay. */
  69              		.loc 1 269 0
  70 0036 0020     		movs	r0, #0
  71 0038 FFF7FEFF 		bl	CyDelayUs
  72              	.LVL2:
 270:Generated_Source\PSoC5/USBFS.c ****     /* Disable USBIO by asserting PM.USB_CR0.fsusbio_pd_n(Inverted.
ARM GAS  C:\Users\bkettle\AppData\Local\Temp\cc8tpVDe.s 			page 7


 271:Generated_Source\PSoC5/USBFS.c ****     *  high. These bits will be set low by the power manager out-of-reset.
 272:Generated_Source\PSoC5/USBFS.c ****     *  Also confirm USBIO pull-up is disabled.
 273:Generated_Source\PSoC5/USBFS.c ****     */
 274:Generated_Source\PSoC5/USBFS.c ****     USBFS_PM_USB_CR0_REG &= (uint8) ~(USBFS_PM_USB_CR0_PD_N |
  73              		.loc 1 274 0
  74 003c 3D4C     		ldr	r4, .L3+8
  75 003e 2378     		ldrb	r3, [r4]	@ zero_extendqisi2
  76 0040 03F0F903 		and	r3, r3, #249
  77 0044 2370     		strb	r3, [r4]
 275:Generated_Source\PSoC5/USBFS.c ****                                                  USBFS_PM_USB_CR0_PD_PULLUP_N);
 276:Generated_Source\PSoC5/USBFS.c **** 
 277:Generated_Source\PSoC5/USBFS.c ****     /* Select IOMODE to USB mode. */
 278:Generated_Source\PSoC5/USBFS.c ****     USBFS_USBIO_CR1_REG &= (uint8) ~USBFS_USBIO_CR1_IOMODE;
  78              		.loc 1 278 0
  79 0046 3C4A     		ldr	r2, .L3+12
  80 0048 1378     		ldrb	r3, [r2]	@ zero_extendqisi2
  81 004a 03F0DF03 		and	r3, r3, #223
  82 004e 1370     		strb	r3, [r2]
 279:Generated_Source\PSoC5/USBFS.c **** 
 280:Generated_Source\PSoC5/USBFS.c ****     /* Enable USBIO reference by setting PM.USB_CR0.fsusbio_ref_en. */
 281:Generated_Source\PSoC5/USBFS.c ****     USBFS_PM_USB_CR0_REG |= USBFS_PM_USB_CR0_REF_EN;
  83              		.loc 1 281 0
  84 0050 2378     		ldrb	r3, [r4]	@ zero_extendqisi2
  85 0052 3343     		orrs	r3, r3, r6
  86 0054 2370     		strb	r3, [r4]
 282:Generated_Source\PSoC5/USBFS.c ****     /* Reference is available for 1us after regulator is enabled. */
 283:Generated_Source\PSoC5/USBFS.c ****     CyDelayUs(USBFS_WAIT_REG_STABILITY_1US);
  87              		.loc 1 283 0
  88 0056 3046     		mov	r0, r6
  89 0058 FFF7FEFF 		bl	CyDelayUs
  90              	.LVL3:
 284:Generated_Source\PSoC5/USBFS.c ****     /* OR 40us after power is restored. */
 285:Generated_Source\PSoC5/USBFS.c ****     CyDelayUs(USBFS_WAIT_VREF_RESTORE);
  91              		.loc 1 285 0
  92 005c 2820     		movs	r0, #40
  93 005e FFF7FEFF 		bl	CyDelayUs
  94              	.LVL4:
 286:Generated_Source\PSoC5/USBFS.c ****     /* Ensure single-ended disable bits are low (PRT15.INP_DIS[7:6])(input receiver enabled). */
 287:Generated_Source\PSoC5/USBFS.c ****     USBFS_DM_INP_DIS_REG &= (uint8) ~USBFS_DM_MASK;
  95              		.loc 1 287 0
  96 0062 364B     		ldr	r3, .L3+16
  97 0064 1A78     		ldrb	r2, [r3]	@ zero_extendqisi2
  98 0066 02F07F02 		and	r2, r2, #127
  99 006a 1A70     		strb	r2, [r3]
 288:Generated_Source\PSoC5/USBFS.c ****     USBFS_DP_INP_DIS_REG &= (uint8) ~USBFS_DP_MASK;
 100              		.loc 1 288 0
 101 006c 1A78     		ldrb	r2, [r3]	@ zero_extendqisi2
 102 006e 02F0BF02 		and	r2, r2, #191
 103 0072 1A70     		strb	r2, [r3]
 289:Generated_Source\PSoC5/USBFS.c **** 
 290:Generated_Source\PSoC5/USBFS.c ****     /* Enable USBIO. */
 291:Generated_Source\PSoC5/USBFS.c ****     USBFS_PM_USB_CR0_REG |= USBFS_PM_USB_CR0_PD_N;
 104              		.loc 1 291 0
 105 0074 2378     		ldrb	r3, [r4]	@ zero_extendqisi2
 106 0076 2B43     		orrs	r3, r3, r5
 107 0078 2370     		strb	r3, [r4]
 292:Generated_Source\PSoC5/USBFS.c ****     CyDelayUs(USBFS_WAIT_PD_PULLUP_N_ENABLE);
ARM GAS  C:\Users\bkettle\AppData\Local\Temp\cc8tpVDe.s 			page 8


 108              		.loc 1 292 0
 109 007a 2846     		mov	r0, r5
 110 007c FFF7FEFF 		bl	CyDelayUs
 111              	.LVL5:
 293:Generated_Source\PSoC5/USBFS.c ****     /* Set USBIO pull-up enable. */
 294:Generated_Source\PSoC5/USBFS.c ****     USBFS_PM_USB_CR0_REG |= USBFS_PM_USB_CR0_PD_PULLUP_N;
 112              		.loc 1 294 0
 113 0080 2378     		ldrb	r3, [r4]	@ zero_extendqisi2
 114 0082 43F00403 		orr	r3, r3, #4
 115 0086 2370     		strb	r3, [r4]
 295:Generated_Source\PSoC5/USBFS.c **** 
 296:Generated_Source\PSoC5/USBFS.c ****     /* Reset Arbiter Write Address register for endpoint 1. */
 297:Generated_Source\PSoC5/USBFS.c ****     CY_SET_REG8(USBFS_ARB_RW1_WA_PTR,     0u);
 116              		.loc 1 297 0
 117 0088 0023     		movs	r3, #0
 118 008a 2D4A     		ldr	r2, .L3+20
 119 008c 1370     		strb	r3, [r2]
 298:Generated_Source\PSoC5/USBFS.c ****     CY_SET_REG8(USBFS_ARB_RW1_WA_MSB_PTR, 0u);
 120              		.loc 1 298 0
 121 008e 0132     		adds	r2, r2, #1
 122 0090 1370     		strb	r3, [r2]
 299:Generated_Source\PSoC5/USBFS.c **** 
 300:Generated_Source\PSoC5/USBFS.c **** #if (USBFS_EP_MANAGEMENT_DMA)
 301:Generated_Source\PSoC5/USBFS.c ****     /* Initialize transfer descriptor. This will be used to detect DMA state - initialized or not. 
 302:Generated_Source\PSoC5/USBFS.c ****     for (i = 0u; i < USBFS_MAX_EP; ++i)
 303:Generated_Source\PSoC5/USBFS.c ****     {
 304:Generated_Source\PSoC5/USBFS.c ****         USBFS_DmaTd[i] = DMA_INVALID_TD;
 305:Generated_Source\PSoC5/USBFS.c **** 
 306:Generated_Source\PSoC5/USBFS.c ****     #if (USBFS_EP_MANAGEMENT_DMA_AUTO && (USBFS_EP_DMA_AUTO_OPT == 0u))
 307:Generated_Source\PSoC5/USBFS.c ****         USBFS_DmaNextTd[i] = DMA_INVALID_TD;
 308:Generated_Source\PSoC5/USBFS.c ****     #endif /* (USBFS_EP_MANAGEMENT_DMA_AUTO && (USBFS_EP_DMA_AUTO_OPT == 0u)) */
 309:Generated_Source\PSoC5/USBFS.c ****     }
 310:Generated_Source\PSoC5/USBFS.c **** #endif /* (USBFS_EP_MANAGEMENT_DMA) */
 311:Generated_Source\PSoC5/USBFS.c **** 
 312:Generated_Source\PSoC5/USBFS.c ****     CyExitCriticalSection(enableInterrupts);
 123              		.loc 1 312 0
 124 0092 3846     		mov	r0, r7
 125 0094 FFF7FEFF 		bl	CyExitCriticalSection
 126              	.LVL6:
 313:Generated_Source\PSoC5/USBFS.c **** #endif /* (CY_PSOC4) */
 314:Generated_Source\PSoC5/USBFS.c **** 
 315:Generated_Source\PSoC5/USBFS.c ****     /* Configure interrupts from USB block. */
 316:Generated_Source\PSoC5/USBFS.c **** #if (CY_PSOC4)
 317:Generated_Source\PSoC5/USBFS.c ****     /* Configure hi_int: set handler and priority. */
 318:Generated_Source\PSoC5/USBFS.c ****     CyIntSetPriority     (USBFS_INTR_HI_VECT_NUM,  USBFS_INTR_HI_PRIORITY);
 319:Generated_Source\PSoC5/USBFS.c ****     (void) CyIntSetVector(USBFS_INTR_HI_VECT_NUM, &USBFS_INTR_HI_ISR);
 320:Generated_Source\PSoC5/USBFS.c **** 
 321:Generated_Source\PSoC5/USBFS.c ****     /* Configure lo_int: set handler and priority. */
 322:Generated_Source\PSoC5/USBFS.c ****     CyIntSetPriority     (USBFS_INTR_LO_VECT_NUM,  USBFS_INTR_LO_PRIORITY);
 323:Generated_Source\PSoC5/USBFS.c ****     (void) CyIntSetVector(USBFS_INTR_LO_VECT_NUM, &USBFS_INTR_LO_ISR);
 324:Generated_Source\PSoC5/USBFS.c **** 
 325:Generated_Source\PSoC5/USBFS.c ****     /* Configure med_int: set handler and priority (routed through DSI). */
 326:Generated_Source\PSoC5/USBFS.c ****     CyIntSetPriority     (USBFS_INTR_MED_VECT_NUM,  USBFS_INTR_MED_PRIORITY);
 327:Generated_Source\PSoC5/USBFS.c ****     (void) CyIntSetVector(USBFS_INTR_MED_VECT_NUM, &USBFS_INTR_MED_ISR);
 328:Generated_Source\PSoC5/USBFS.c **** 
 329:Generated_Source\PSoC5/USBFS.c **** #else
 330:Generated_Source\PSoC5/USBFS.c ****     /* Set bus reset interrupt. */
ARM GAS  C:\Users\bkettle\AppData\Local\Temp\cc8tpVDe.s 			page 9


 331:Generated_Source\PSoC5/USBFS.c ****     CyIntSetPriority(USBFS_BUS_RESET_VECT_NUM, USBFS_BUS_RESET_PRIOR);
 127              		.loc 1 331 0
 128 0098 0721     		movs	r1, #7
 129 009a 1720     		movs	r0, #23
 130 009c FFF7FEFF 		bl	CyIntSetPriority
 131              	.LVL7:
 332:Generated_Source\PSoC5/USBFS.c ****     (void) CyIntSetVector(USBFS_BUS_RESET_VECT_NUM,   &USBFS_BUS_RESET_ISR);
 132              		.loc 1 332 0
 133 00a0 2849     		ldr	r1, .L3+24
 134 00a2 1720     		movs	r0, #23
 135 00a4 FFF7FEFF 		bl	CyIntSetVector
 136              	.LVL8:
 333:Generated_Source\PSoC5/USBFS.c **** 
 334:Generated_Source\PSoC5/USBFS.c ****     /* Set Control Endpoint Interrupt. */
 335:Generated_Source\PSoC5/USBFS.c ****     CyIntSetPriority(USBFS_EP_0_VECT_NUM, USBFS_EP_0_PRIOR);
 137              		.loc 1 335 0
 138 00a8 0721     		movs	r1, #7
 139 00aa 1820     		movs	r0, #24
 140 00ac FFF7FEFF 		bl	CyIntSetPriority
 141              	.LVL9:
 336:Generated_Source\PSoC5/USBFS.c ****     (void) CyIntSetVector(USBFS_EP_0_VECT_NUM,   &USBFS_EP_0_ISR);
 142              		.loc 1 336 0
 143 00b0 2549     		ldr	r1, .L3+28
 144 00b2 1820     		movs	r0, #24
 145 00b4 FFF7FEFF 		bl	CyIntSetVector
 146              	.LVL10:
 337:Generated_Source\PSoC5/USBFS.c **** 
 338:Generated_Source\PSoC5/USBFS.c ****     /* Set SOF interrupt. */
 339:Generated_Source\PSoC5/USBFS.c ****     #if (USBFS_SOF_ISR_ACTIVE)
 340:Generated_Source\PSoC5/USBFS.c ****         CyIntSetPriority     (USBFS_SOF_VECT_NUM,  USBFS_SOF_PRIOR);
 147              		.loc 1 340 0
 148 00b8 0721     		movs	r1, #7
 149 00ba 1520     		movs	r0, #21
 150 00bc FFF7FEFF 		bl	CyIntSetPriority
 151              	.LVL11:
 341:Generated_Source\PSoC5/USBFS.c ****         (void) CyIntSetVector(USBFS_SOF_VECT_NUM, &USBFS_SOF_ISR);
 152              		.loc 1 341 0
 153 00c0 2249     		ldr	r1, .L3+32
 154 00c2 1520     		movs	r0, #21
 155 00c4 FFF7FEFF 		bl	CyIntSetVector
 156              	.LVL12:
 342:Generated_Source\PSoC5/USBFS.c ****     #endif /* (USBFS_SOF_ISR_ACTIVE) */
 343:Generated_Source\PSoC5/USBFS.c **** 
 344:Generated_Source\PSoC5/USBFS.c ****     /* Set Data Endpoint 1 Interrupt. */
 345:Generated_Source\PSoC5/USBFS.c ****     #if (USBFS_EP1_ISR_ACTIVE)
 346:Generated_Source\PSoC5/USBFS.c ****         CyIntSetPriority     (USBFS_EP_1_VECT_NUM,  USBFS_EP_1_PRIOR);
 157              		.loc 1 346 0
 158 00c8 0721     		movs	r1, #7
 159 00ca 3046     		mov	r0, r6
 160 00cc FFF7FEFF 		bl	CyIntSetPriority
 161              	.LVL13:
 347:Generated_Source\PSoC5/USBFS.c ****         (void) CyIntSetVector(USBFS_EP_1_VECT_NUM,  &USBFS_EP_1_ISR);
 162              		.loc 1 347 0
 163 00d0 1F49     		ldr	r1, .L3+36
 164 00d2 3046     		mov	r0, r6
 165 00d4 FFF7FEFF 		bl	CyIntSetVector
 166              	.LVL14:
ARM GAS  C:\Users\bkettle\AppData\Local\Temp\cc8tpVDe.s 			page 10


 348:Generated_Source\PSoC5/USBFS.c ****     #endif /* (USBFS_EP1_ISR_ACTIVE) */
 349:Generated_Source\PSoC5/USBFS.c **** 
 350:Generated_Source\PSoC5/USBFS.c ****     /* Set Data Endpoint 2 Interrupt. */
 351:Generated_Source\PSoC5/USBFS.c ****     #if (USBFS_EP2_ISR_ACTIVE)
 352:Generated_Source\PSoC5/USBFS.c ****         CyIntSetPriority     (USBFS_EP_2_VECT_NUM,  USBFS_EP_2_PRIOR);
 167              		.loc 1 352 0
 168 00d8 0721     		movs	r1, #7
 169 00da 2846     		mov	r0, r5
 170 00dc FFF7FEFF 		bl	CyIntSetPriority
 171              	.LVL15:
 353:Generated_Source\PSoC5/USBFS.c ****         (void) CyIntSetVector(USBFS_EP_2_VECT_NUM, &USBFS_EP_2_ISR);
 172              		.loc 1 353 0
 173 00e0 1C49     		ldr	r1, .L3+40
 174 00e2 2846     		mov	r0, r5
 175 00e4 FFF7FEFF 		bl	CyIntSetVector
 176              	.LVL16:
 354:Generated_Source\PSoC5/USBFS.c ****     #endif /* (USBFS_EP2_ISR_ACTIVE) */
 355:Generated_Source\PSoC5/USBFS.c **** 
 356:Generated_Source\PSoC5/USBFS.c ****     /* Set Data Endpoint 3 Interrupt. */
 357:Generated_Source\PSoC5/USBFS.c ****     #if (USBFS_EP3_ISR_ACTIVE)
 358:Generated_Source\PSoC5/USBFS.c ****         CyIntSetPriority     (USBFS_EP_3_VECT_NUM,  USBFS_EP_3_PRIOR);
 177              		.loc 1 358 0
 178 00e8 0721     		movs	r1, #7
 179 00ea 0320     		movs	r0, #3
 180 00ec FFF7FEFF 		bl	CyIntSetPriority
 181              	.LVL17:
 359:Generated_Source\PSoC5/USBFS.c ****         (void) CyIntSetVector(USBFS_EP_3_VECT_NUM, &USBFS_EP_3_ISR);
 182              		.loc 1 359 0
 183 00f0 1949     		ldr	r1, .L3+44
 184 00f2 0320     		movs	r0, #3
 185 00f4 FFF7FEFF 		bl	CyIntSetVector
 186              	.LVL18:
 360:Generated_Source\PSoC5/USBFS.c ****     #endif /* (USBFS_EP3_ISR_ACTIVE) */
 361:Generated_Source\PSoC5/USBFS.c **** 
 362:Generated_Source\PSoC5/USBFS.c ****     /* Set Data Endpoint 4 Interrupt. */
 363:Generated_Source\PSoC5/USBFS.c ****     #if (USBFS_EP4_ISR_ACTIVE)
 364:Generated_Source\PSoC5/USBFS.c ****         CyIntSetPriority     (USBFS_EP_4_VECT_NUM,  USBFS_EP_4_PRIOR);
 187              		.loc 1 364 0
 188 00f8 0721     		movs	r1, #7
 189 00fa 0420     		movs	r0, #4
 190 00fc FFF7FEFF 		bl	CyIntSetPriority
 191              	.LVL19:
 365:Generated_Source\PSoC5/USBFS.c ****         (void) CyIntSetVector(USBFS_EP_4_VECT_NUM, &USBFS_EP_4_ISR);
 192              		.loc 1 365 0
 193 0100 1649     		ldr	r1, .L3+48
 194 0102 0420     		movs	r0, #4
 195 0104 FFF7FEFF 		bl	CyIntSetVector
 196              	.LVL20:
 366:Generated_Source\PSoC5/USBFS.c ****     #endif /* (USBFS_EP4_ISR_ACTIVE) */
 367:Generated_Source\PSoC5/USBFS.c **** 
 368:Generated_Source\PSoC5/USBFS.c ****     /* Set Data Endpoint 5 Interrupt. */
 369:Generated_Source\PSoC5/USBFS.c ****     #if (USBFS_EP5_ISR_ACTIVE)
 370:Generated_Source\PSoC5/USBFS.c ****         CyIntSetPriority     (USBFS_EP_5_VECT_NUM,  USBFS_EP_5_PRIOR);
 197              		.loc 1 370 0
 198 0108 0721     		movs	r1, #7
 199 010a 0520     		movs	r0, #5
 200 010c FFF7FEFF 		bl	CyIntSetPriority
ARM GAS  C:\Users\bkettle\AppData\Local\Temp\cc8tpVDe.s 			page 11


 201              	.LVL21:
 371:Generated_Source\PSoC5/USBFS.c ****         (void) CyIntSetVector(USBFS_EP_5_VECT_NUM, &USBFS_EP_5_ISR);
 202              		.loc 1 371 0
 203 0110 1349     		ldr	r1, .L3+52
 204 0112 0520     		movs	r0, #5
 205 0114 FFF7FEFF 		bl	CyIntSetVector
 206              	.LVL22:
 372:Generated_Source\PSoC5/USBFS.c ****     #endif /* (USBFS_EP5_ISR_ACTIVE) */
 373:Generated_Source\PSoC5/USBFS.c **** 
 374:Generated_Source\PSoC5/USBFS.c ****     /* Set Data Endpoint 6 Interrupt. */
 375:Generated_Source\PSoC5/USBFS.c ****     #if (USBFS_EP6_ISR_ACTIVE)
 376:Generated_Source\PSoC5/USBFS.c ****         CyIntSetPriority     (USBFS_EP_6_VECT_NUM,  USBFS_EP_6_PRIOR);
 377:Generated_Source\PSoC5/USBFS.c ****         (void) CyIntSetVector(USBFS_EP_6_VECT_NUM, &USBFS_EP_6_ISR);
 378:Generated_Source\PSoC5/USBFS.c ****     #endif /* (USBFS_EP6_ISR_ACTIVE) */
 379:Generated_Source\PSoC5/USBFS.c **** 
 380:Generated_Source\PSoC5/USBFS.c ****      /* Set Data Endpoint 7 Interrupt. */
 381:Generated_Source\PSoC5/USBFS.c ****     #if (USBFS_EP7_ISR_ACTIVE)
 382:Generated_Source\PSoC5/USBFS.c ****         CyIntSetPriority     (USBFS_EP_7_VECT_NUM,  USBFS_EP_7_PRIOR);
 383:Generated_Source\PSoC5/USBFS.c ****         (void) CyIntSetVector(USBFS_EP_7_VECT_NUM, &USBFS_EP_7_ISR);
 384:Generated_Source\PSoC5/USBFS.c ****     #endif /* (USBFS_EP7_ISR_ACTIVE) */
 385:Generated_Source\PSoC5/USBFS.c **** 
 386:Generated_Source\PSoC5/USBFS.c ****     /* Set Data Endpoint 8 Interrupt. */
 387:Generated_Source\PSoC5/USBFS.c ****     #if (USBFS_EP8_ISR_ACTIVE)
 388:Generated_Source\PSoC5/USBFS.c ****         CyIntSetPriority     (USBFS_EP_8_VECT_NUM,  USBFS_EP_8_PRIOR);
 389:Generated_Source\PSoC5/USBFS.c ****         (void) CyIntSetVector(USBFS_EP_8_VECT_NUM, &USBFS_EP_8_ISR);
 390:Generated_Source\PSoC5/USBFS.c ****     #endif /* (USBFS_EP8_ISR_ACTIVE) */
 391:Generated_Source\PSoC5/USBFS.c **** 
 392:Generated_Source\PSoC5/USBFS.c ****     /* Set ARB Interrupt. */
 393:Generated_Source\PSoC5/USBFS.c ****     #if (USBFS_EP_MANAGEMENT_DMA && USBFS_ARB_ISR_ACTIVE)
 394:Generated_Source\PSoC5/USBFS.c ****         CyIntSetPriority     (USBFS_ARB_VECT_NUM,  USBFS_ARB_PRIOR);
 395:Generated_Source\PSoC5/USBFS.c ****         (void) CyIntSetVector(USBFS_ARB_VECT_NUM, &USBFS_ARB_ISR);
 396:Generated_Source\PSoC5/USBFS.c ****     #endif /* (USBFS_EP_MANAGEMENT_DMA && USBFS_ARB_ISR_ACTIVE) */
 397:Generated_Source\PSoC5/USBFS.c **** #endif /* (CY_PSOC4) */
 398:Generated_Source\PSoC5/USBFS.c **** 
 399:Generated_Source\PSoC5/USBFS.c ****     /* Common: Configure GPIO interrupt for wakeup. */
 400:Generated_Source\PSoC5/USBFS.c **** #if (USBFS_DP_ISR_ACTIVE)
 401:Generated_Source\PSoC5/USBFS.c ****     CyIntSetPriority     (USBFS_DP_INTC_VECT_NUM,  USBFS_DP_INTC_PRIORITY);
 207              		.loc 1 401 0
 208 0118 0721     		movs	r1, #7
 209 011a 0C20     		movs	r0, #12
 210 011c FFF7FEFF 		bl	CyIntSetPriority
 211              	.LVL23:
 402:Generated_Source\PSoC5/USBFS.c ****     (void) CyIntSetVector(USBFS_DP_INTC_VECT_NUM, &USBFS_DP_ISR);
 212              		.loc 1 402 0
 213 0120 1049     		ldr	r1, .L3+56
 214 0122 0C20     		movs	r0, #12
 215 0124 FFF7FEFF 		bl	CyIntSetVector
 216              	.LVL24:
 217 0128 F8BD     		pop	{r3, r4, r5, r6, r7, pc}
 218              	.LVL25:
 219              	.L4:
 220 012a 00BF     		.align	2
 221              	.L3:
 222 012c A5430040 		.word	1073759141
 223 0130 9D600040 		.word	1073766557
 224 0134 94430040 		.word	1073759124
 225 0138 12600040 		.word	1073766418
ARM GAS  C:\Users\bkettle\AppData\Local\Temp\cc8tpVDe.s 			page 12


 226 013c F8510040 		.word	1073762808
 227 0140 84600040 		.word	1073766532
 228 0144 00000000 		.word	USBFS_BUS_RESET_ISR
 229 0148 00000000 		.word	USBFS_EP_0_ISR
 230 014c 00000000 		.word	USBFS_SOF_ISR
 231 0150 00000000 		.word	USBFS_EP_1_ISR
 232 0154 00000000 		.word	USBFS_EP_2_ISR
 233 0158 00000000 		.word	USBFS_EP_3_ISR
 234 015c 00000000 		.word	USBFS_EP_4_ISR
 235 0160 00000000 		.word	USBFS_EP_5_ISR
 236 0164 00000000 		.word	USBFS_DP_ISR
 237              		.cfi_endproc
 238              	.LFE1:
 239              		.size	USBFS_Init, .-USBFS_Init
 240              		.section	.text.USBFS_InitComponent,"ax",%progbits
 241              		.align	2
 242              		.global	USBFS_InitComponent
 243              		.thumb
 244              		.thumb_func
 245              		.type	USBFS_InitComponent, %function
 246              	USBFS_InitComponent:
 247              	.LFB2:
 403:Generated_Source\PSoC5/USBFS.c **** #endif /* (USBFS_DP_ISR_ACTIVE) */
 404:Generated_Source\PSoC5/USBFS.c **** 
 405:Generated_Source\PSoC5/USBFS.c **** #if (USBFS_EP_MANAGEMENT_DMA && CY_PSOC4)
 406:Generated_Source\PSoC5/USBFS.c ****     /* Initialize DMA channels. */
 407:Generated_Source\PSoC5/USBFS.c ****     USBFS_InitEpDma();
 408:Generated_Source\PSoC5/USBFS.c **** #endif /* (USBFS_EP_MANAGEMENT_DMA && CY_PSOC4) */
 409:Generated_Source\PSoC5/USBFS.c **** }
 410:Generated_Source\PSoC5/USBFS.c **** 
 411:Generated_Source\PSoC5/USBFS.c **** 
 412:Generated_Source\PSoC5/USBFS.c **** /*******************************************************************************
 413:Generated_Source\PSoC5/USBFS.c **** * Function Name: USBFS_InitComponent
 414:Generated_Source\PSoC5/USBFS.c **** ****************************************************************************//**
 415:Generated_Source\PSoC5/USBFS.c **** *
 416:Generated_Source\PSoC5/USBFS.c **** *   This function initializes the component’s global variables and initiates
 417:Generated_Source\PSoC5/USBFS.c **** *   communication with the host by pull-up D+ line.
 418:Generated_Source\PSoC5/USBFS.c **** *
 419:Generated_Source\PSoC5/USBFS.c **** * \param device:
 420:Generated_Source\PSoC5/USBFS.c **** *   Contains the device number of the desired device descriptor. The device
 421:Generated_Source\PSoC5/USBFS.c **** *   number can be found in the Device Descriptor Tab of "Configure" dialog,
 422:Generated_Source\PSoC5/USBFS.c **** *   under the settings of desired Device Descriptor, in the *Device Number*
 423:Generated_Source\PSoC5/USBFS.c **** *   field.
 424:Generated_Source\PSoC5/USBFS.c **** *  \param mode:
 425:Generated_Source\PSoC5/USBFS.c **** *   The operating voltage. This determines whether the voltage regulator
 426:Generated_Source\PSoC5/USBFS.c **** *   is enabled for 5V operation or if pass through mode is used for 3.3V
 427:Generated_Source\PSoC5/USBFS.c **** *   operation. Symbolic names and their associated values are given in the
 428:Generated_Source\PSoC5/USBFS.c **** *   following list.
 429:Generated_Source\PSoC5/USBFS.c **** *
 430:Generated_Source\PSoC5/USBFS.c **** *       *USBFS_3V_OPERATION* - Disable voltage regulator and pass-
 431:Generated_Source\PSoC5/USBFS.c **** *                                      through Vcc for pull-up
 432:Generated_Source\PSoC5/USBFS.c **** *
 433:Generated_Source\PSoC5/USBFS.c **** *       *USBFS_5V_OPERATION* - Enable voltage regulator and use
 434:Generated_Source\PSoC5/USBFS.c **** *                                      regulator for pull-up
 435:Generated_Source\PSoC5/USBFS.c **** *
 436:Generated_Source\PSoC5/USBFS.c **** *       *USBFS_DWR_POWER_OPERATION* - Enable or disable the voltage
 437:Generated_Source\PSoC5/USBFS.c **** *                                      regulator depending on the power supply
ARM GAS  C:\Users\bkettle\AppData\Local\Temp\cc8tpVDe.s 			page 13


 438:Generated_Source\PSoC5/USBFS.c **** *                                      voltage configuration in the DWR tab.
 439:Generated_Source\PSoC5/USBFS.c **** *                                      For PSoC 3/5LP devices, the VDDD supply
 440:Generated_Source\PSoC5/USBFS.c **** *                                      voltage is considered and for PSoC 4A-L,
 441:Generated_Source\PSoC5/USBFS.c **** *                                      the VBUS supply voltage is considered.
 442:Generated_Source\PSoC5/USBFS.c **** *
 443:Generated_Source\PSoC5/USBFS.c **** * \globalvars
 444:Generated_Source\PSoC5/USBFS.c **** *   \ref USBFS_device
 445:Generated_Source\PSoC5/USBFS.c **** *   \ref USBFS_transferState
 446:Generated_Source\PSoC5/USBFS.c **** *   \ref USBFS_configuration
 447:Generated_Source\PSoC5/USBFS.c **** *   \ref USBFS_deviceStatus
 448:Generated_Source\PSoC5/USBFS.c **** *
 449:Generated_Source\PSoC5/USBFS.c **** *   \ref USBFS_deviceAddress - Contains the current device address. This
 450:Generated_Source\PSoC5/USBFS.c **** *       variable is initialized to zero in this API. The Host starts to communicate
 451:Generated_Source\PSoC5/USBFS.c **** *      to the device with address 0 and then sets it to a whatever value using a
 452:Generated_Source\PSoC5/USBFS.c **** *      SET_ADDRESS request.
 453:Generated_Source\PSoC5/USBFS.c **** *
 454:Generated_Source\PSoC5/USBFS.c **** *   \ref USBFS_lastPacketSize - Initialized to 0;
 455:Generated_Source\PSoC5/USBFS.c **** *
 456:Generated_Source\PSoC5/USBFS.c **** * \reentrant
 457:Generated_Source\PSoC5/USBFS.c **** *  No.
 458:Generated_Source\PSoC5/USBFS.c **** *
 459:Generated_Source\PSoC5/USBFS.c **** *******************************************************************************/
 460:Generated_Source\PSoC5/USBFS.c **** void USBFS_InitComponent(uint8 device, uint8 mode) 
 461:Generated_Source\PSoC5/USBFS.c **** {
 248              		.loc 1 461 0
 249              		.cfi_startproc
 250              		@ args = 0, pretend = 0, frame = 0
 251              		@ frame_needed = 0, uses_anonymous_args = 0
 252              	.LVL26:
 253 0000 10B5     		push	{r4, lr}
 254              		.cfi_def_cfa_offset 8
 255              		.cfi_offset 4, -8
 256              		.cfi_offset 14, -4
 257              	.LVL27:
 462:Generated_Source\PSoC5/USBFS.c ****     /* Initialize _hidProtocol variable to comply with
 463:Generated_Source\PSoC5/USBFS.c ****     *  HID 7.2.6 Set_Protocol Request:
 464:Generated_Source\PSoC5/USBFS.c ****     *  "When initialized, all devices default to report protocol."
 465:Generated_Source\PSoC5/USBFS.c ****     */
 466:Generated_Source\PSoC5/USBFS.c **** #if defined(USBFS_ENABLE_HID_CLASS)
 467:Generated_Source\PSoC5/USBFS.c ****     uint8 i;
 468:Generated_Source\PSoC5/USBFS.c **** 
 469:Generated_Source\PSoC5/USBFS.c ****     for (i = 0u; i < USBFS_MAX_INTERFACES_NUMBER; i++)
 258              		.loc 1 469 0
 259 0002 0023     		movs	r3, #0
 260 0004 04E0     		b	.L6
 261              	.LVL28:
 262              	.L7:
 470:Generated_Source\PSoC5/USBFS.c ****     {
 471:Generated_Source\PSoC5/USBFS.c ****         USBFS_hidProtocol[i] = USBFS_PROTOCOL_REPORT;
 263              		.loc 1 471 0 discriminator 3
 264 0006 0124     		movs	r4, #1
 265 0008 264A     		ldr	r2, .L14
 266 000a D454     		strb	r4, [r2, r3]
 469:Generated_Source\PSoC5/USBFS.c ****     {
 267              		.loc 1 469 0 discriminator 3
 268 000c 2344     		add	r3, r3, r4
 269              	.LVL29:
ARM GAS  C:\Users\bkettle\AppData\Local\Temp\cc8tpVDe.s 			page 14


 270 000e DBB2     		uxtb	r3, r3
 271              	.LVL30:
 272              	.L6:
 469:Generated_Source\PSoC5/USBFS.c ****     {
 273              		.loc 1 469 0 is_stmt 0 discriminator 1
 274 0010 022B     		cmp	r3, #2
 275 0012 F8D9     		bls	.L7
 472:Generated_Source\PSoC5/USBFS.c ****     }
 473:Generated_Source\PSoC5/USBFS.c **** #endif /* USBFS_ENABLE_HID_CLASS */
 474:Generated_Source\PSoC5/USBFS.c **** 
 475:Generated_Source\PSoC5/USBFS.c ****     /* Store device number to access descriptor. */
 476:Generated_Source\PSoC5/USBFS.c ****     USBFS_device = device;
 276              		.loc 1 476 0 is_stmt 1
 277 0014 244B     		ldr	r3, .L14+4
 278              	.LVL31:
 279 0016 1870     		strb	r0, [r3]
 477:Generated_Source\PSoC5/USBFS.c **** 
 478:Generated_Source\PSoC5/USBFS.c ****     /* Reset component internal variables. */
 479:Generated_Source\PSoC5/USBFS.c ****     USBFS_transferState   = USBFS_TRANS_STATE_IDLE;
 280              		.loc 1 479 0
 281 0018 0023     		movs	r3, #0
 282 001a 244A     		ldr	r2, .L14+8
 283 001c 1370     		strb	r3, [r2]
 480:Generated_Source\PSoC5/USBFS.c ****     USBFS_configurationChanged = 0u;
 284              		.loc 1 480 0
 285 001e 244A     		ldr	r2, .L14+12
 286 0020 1370     		strb	r3, [r2]
 481:Generated_Source\PSoC5/USBFS.c ****     USBFS_configuration   = 0u;
 287              		.loc 1 481 0
 288 0022 244A     		ldr	r2, .L14+16
 289 0024 1370     		strb	r3, [r2]
 482:Generated_Source\PSoC5/USBFS.c ****     USBFS_interfaceNumber = 0u;
 290              		.loc 1 482 0
 291 0026 244A     		ldr	r2, .L14+20
 292 0028 1370     		strb	r3, [r2]
 483:Generated_Source\PSoC5/USBFS.c ****     USBFS_deviceAddress   = 0u;
 293              		.loc 1 483 0
 294 002a 244A     		ldr	r2, .L14+24
 295 002c 1370     		strb	r3, [r2]
 484:Generated_Source\PSoC5/USBFS.c ****     USBFS_deviceStatus    = 0u;
 296              		.loc 1 484 0
 297 002e 244A     		ldr	r2, .L14+28
 298 0030 1370     		strb	r3, [r2]
 485:Generated_Source\PSoC5/USBFS.c ****     USBFS_lastPacketSize  = 0u;
 299              		.loc 1 485 0
 300 0032 244A     		ldr	r2, .L14+32
 301 0034 1370     		strb	r3, [r2]
 486:Generated_Source\PSoC5/USBFS.c **** 
 487:Generated_Source\PSoC5/USBFS.c ****     /* Enable component interrupts. */
 488:Generated_Source\PSoC5/USBFS.c **** #if (CY_PSOC4)
 489:Generated_Source\PSoC5/USBFS.c ****     CyIntEnable(USBFS_INTR_HI_VECT_NUM);
 490:Generated_Source\PSoC5/USBFS.c ****     CyIntEnable(USBFS_INTR_MED_VECT_NUM);
 491:Generated_Source\PSoC5/USBFS.c ****     CyIntEnable(USBFS_INTR_LO_VECT_NUM);
 492:Generated_Source\PSoC5/USBFS.c **** #else
 493:Generated_Source\PSoC5/USBFS.c ****     CyIntEnable(USBFS_BUS_RESET_VECT_NUM);
 302              		.loc 1 493 0
 303 0036 244B     		ldr	r3, .L14+36
ARM GAS  C:\Users\bkettle\AppData\Local\Temp\cc8tpVDe.s 			page 15


 304 0038 4FF40002 		mov	r2, #8388608
 305 003c 1A60     		str	r2, [r3]
 494:Generated_Source\PSoC5/USBFS.c ****     CyIntEnable(USBFS_EP_0_VECT_NUM);
 306              		.loc 1 494 0
 307 003e 4FF08072 		mov	r2, #16777216
 308 0042 1A60     		str	r2, [r3]
 495:Generated_Source\PSoC5/USBFS.c **** 
 496:Generated_Source\PSoC5/USBFS.c ****     #if (USBFS_SOF_ISR_ACTIVE)
 497:Generated_Source\PSoC5/USBFS.c ****         CyIntEnable(USBFS_SOF_VECT_NUM);
 309              		.loc 1 497 0
 310 0044 4FF40012 		mov	r2, #2097152
 311 0048 1A60     		str	r2, [r3]
 498:Generated_Source\PSoC5/USBFS.c ****     #endif /* (USBFS_SOF_ISR_ACTIVE) */
 499:Generated_Source\PSoC5/USBFS.c **** 
 500:Generated_Source\PSoC5/USBFS.c ****     #if (USBFS_EP1_ISR_ACTIVE)
 501:Generated_Source\PSoC5/USBFS.c ****         CyIntEnable(USBFS_EP_1_VECT_NUM);
 312              		.loc 1 501 0
 313 004a 0222     		movs	r2, #2
 314 004c 1A60     		str	r2, [r3]
 502:Generated_Source\PSoC5/USBFS.c ****     #endif /* (USBFS_EP1_ISR_ACTIVE) */
 503:Generated_Source\PSoC5/USBFS.c **** 
 504:Generated_Source\PSoC5/USBFS.c ****     #if (USBFS_EP2_ISR_ACTIVE)
 505:Generated_Source\PSoC5/USBFS.c ****         CyIntEnable(USBFS_EP_2_VECT_NUM);
 315              		.loc 1 505 0
 316 004e 0422     		movs	r2, #4
 317 0050 1A60     		str	r2, [r3]
 506:Generated_Source\PSoC5/USBFS.c ****     #endif /* (USBFS_EP5_ISR_ACTIVE) */
 507:Generated_Source\PSoC5/USBFS.c **** 
 508:Generated_Source\PSoC5/USBFS.c ****     #if (USBFS_EP3_ISR_ACTIVE)
 509:Generated_Source\PSoC5/USBFS.c ****         CyIntEnable(USBFS_EP_3_VECT_NUM);
 318              		.loc 1 509 0
 319 0052 0822     		movs	r2, #8
 320 0054 1A60     		str	r2, [r3]
 510:Generated_Source\PSoC5/USBFS.c ****     #endif /* (USBFS_EP5_ISR_ACTIVE) */
 511:Generated_Source\PSoC5/USBFS.c **** 
 512:Generated_Source\PSoC5/USBFS.c ****     #if (USBFS_EP4_ISR_ACTIVE)
 513:Generated_Source\PSoC5/USBFS.c ****         CyIntEnable(USBFS_EP_4_VECT_NUM);
 321              		.loc 1 513 0
 322 0056 1022     		movs	r2, #16
 323 0058 1A60     		str	r2, [r3]
 514:Generated_Source\PSoC5/USBFS.c ****     #endif /* (USBFS_EP5_ISR_ACTIVE) */
 515:Generated_Source\PSoC5/USBFS.c **** 
 516:Generated_Source\PSoC5/USBFS.c ****     #if (USBFS_EP5_ISR_ACTIVE)
 517:Generated_Source\PSoC5/USBFS.c ****         CyIntEnable(USBFS_EP_5_VECT_NUM);
 324              		.loc 1 517 0
 325 005a 2022     		movs	r2, #32
 326 005c 1A60     		str	r2, [r3]
 518:Generated_Source\PSoC5/USBFS.c ****     #endif /* (USBFS_EP5_ISR_ACTIVE) */
 519:Generated_Source\PSoC5/USBFS.c **** 
 520:Generated_Source\PSoC5/USBFS.c ****     #if (USBFS_EP6_ISR_ACTIVE)
 521:Generated_Source\PSoC5/USBFS.c ****         CyIntEnable(USBFS_EP_6_VECT_NUM);
 522:Generated_Source\PSoC5/USBFS.c ****     #endif /* USBFS_EP6_ISR_REMOVE */
 523:Generated_Source\PSoC5/USBFS.c **** 
 524:Generated_Source\PSoC5/USBFS.c ****     #if (USBFS_EP7_ISR_ACTIVE)
 525:Generated_Source\PSoC5/USBFS.c ****         CyIntEnable(USBFS_EP_7_VECT_NUM);
 526:Generated_Source\PSoC5/USBFS.c ****     #endif /* (USBFS_EP7_ISR_ACTIVE) */
 527:Generated_Source\PSoC5/USBFS.c **** 
ARM GAS  C:\Users\bkettle\AppData\Local\Temp\cc8tpVDe.s 			page 16


 528:Generated_Source\PSoC5/USBFS.c ****     #if (USBFS_EP8_ISR_ACTIVE)
 529:Generated_Source\PSoC5/USBFS.c ****         CyIntEnable(USBFS_EP_8_VECT_NUM);
 530:Generated_Source\PSoC5/USBFS.c ****     #endif /* (USBFS_EP8_ISR_ACTIVE) */
 531:Generated_Source\PSoC5/USBFS.c **** #endif /* (CY_PSOC4) */
 532:Generated_Source\PSoC5/USBFS.c **** 
 533:Generated_Source\PSoC5/USBFS.c **** #if (USBFS_EP_MANAGEMENT_DMA && USBFS_ARB_ISR_ACTIVE)
 534:Generated_Source\PSoC5/USBFS.c ****     /* Enable ARB EP interrupt sources. */
 535:Generated_Source\PSoC5/USBFS.c ****     USBFS_ARB_INT_EN_REG = USBFS_DEFAULT_ARB_INT_EN;
 536:Generated_Source\PSoC5/USBFS.c **** 
 537:Generated_Source\PSoC5/USBFS.c ****     #if (CY_PSOC3 || CY_PSOC5)
 538:Generated_Source\PSoC5/USBFS.c ****         CyIntEnable(USBFS_ARB_VECT_NUM);
 539:Generated_Source\PSoC5/USBFS.c ****     #endif /* (CY_PSOC3 || CY_PSOC5) */
 540:Generated_Source\PSoC5/USBFS.c **** #endif   /* (USBFS_EP_MANAGEMENT_DMA && USBFS_ARB_ISR_ACTIVE) */
 541:Generated_Source\PSoC5/USBFS.c **** 
 542:Generated_Source\PSoC5/USBFS.c **** /* Arbiter configuration for DMA transfers. */
 543:Generated_Source\PSoC5/USBFS.c **** #if (USBFS_EP_MANAGEMENT_DMA)
 544:Generated_Source\PSoC5/USBFS.c ****     /* Configure Arbiter for Manual or Auto DMA operation and clear configuration completion. */
 545:Generated_Source\PSoC5/USBFS.c ****     USBFS_ARB_CFG_REG = USBFS_DEFAULT_ARB_CFG;
 546:Generated_Source\PSoC5/USBFS.c **** 
 547:Generated_Source\PSoC5/USBFS.c ****     #if (CY_PSOC4)
 548:Generated_Source\PSoC5/USBFS.c ****         /* Enable DMA operation. */
 549:Generated_Source\PSoC5/USBFS.c ****         CyDmaEnable();
 550:Generated_Source\PSoC5/USBFS.c **** 
 551:Generated_Source\PSoC5/USBFS.c ****         #if (USBFS_EP_MANAGEMENT_DMA_AUTO)
 552:Generated_Source\PSoC5/USBFS.c ****             /* Change DMA priority to be highest. */
 553:Generated_Source\PSoC5/USBFS.c ****              CyIntSetPriority(CYDMA_INTR_NUMBER, USBFS_DMA_AUTO_INTR_PRIO);
 554:Generated_Source\PSoC5/USBFS.c ****         #endif /* (USBFS_EP_MANAGEMENT_DMA_AUTO) */
 555:Generated_Source\PSoC5/USBFS.c ****     #endif /* (CY_PSOC4) */
 556:Generated_Source\PSoC5/USBFS.c **** 
 557:Generated_Source\PSoC5/USBFS.c ****     #if (USBFS_EP_MANAGEMENT_DMA_AUTO)
 558:Generated_Source\PSoC5/USBFS.c ****         #if (CY_PSOC4)
 559:Generated_Source\PSoC5/USBFS.c ****             /* Enable DMA interrupt to handle DMA management. */
 560:Generated_Source\PSoC5/USBFS.c ****             CyIntEnable(CYDMA_INTR_NUMBER);
 561:Generated_Source\PSoC5/USBFS.c ****         #else
 562:Generated_Source\PSoC5/USBFS.c ****             #if (USBFS_EP_DMA_AUTO_OPT == 0u)
 563:Generated_Source\PSoC5/USBFS.c ****                 /* Initialize interrupts which handle verification of successful DMA transaction. *
 564:Generated_Source\PSoC5/USBFS.c ****                 USBFS_EP_DMA_Done_isr_StartEx(&USBFS_EP_DMA_DONE_ISR);
 565:Generated_Source\PSoC5/USBFS.c ****                 USBFS_EP17_DMA_Done_SR_InterruptEnable();
 566:Generated_Source\PSoC5/USBFS.c ****                 USBFS_EP8_DMA_Done_SR_InterruptEnable();
 567:Generated_Source\PSoC5/USBFS.c ****             #endif /* (USBFS_EP_DMA_AUTO_OPT == 0u) */
 568:Generated_Source\PSoC5/USBFS.c ****         #endif /* (CY_PSOC4) */
 569:Generated_Source\PSoC5/USBFS.c ****     #endif /* (USBFS_EP_MANAGEMENT_DMA_AUTO) */
 570:Generated_Source\PSoC5/USBFS.c **** #endif /* (USBFS_EP_MANAGEMENT_DMA) */
 571:Generated_Source\PSoC5/USBFS.c **** 
 572:Generated_Source\PSoC5/USBFS.c ****     /* Enable USB regulator depends on operation voltage. IMO Locking is enabled in Init(). */
 573:Generated_Source\PSoC5/USBFS.c ****     switch(mode)
 327              		.loc 1 573 0
 328 005e 11B1     		cbz	r1, .L9
 329 0060 0129     		cmp	r1, #1
 330 0062 06D0     		beq	.L10
 331 0064 0BE0     		b	.L12
 332              	.L9:
 574:Generated_Source\PSoC5/USBFS.c ****     {
 575:Generated_Source\PSoC5/USBFS.c ****     case USBFS_3V_OPERATION:
 576:Generated_Source\PSoC5/USBFS.c ****         /* Disable regulator for 3V operation. */
 577:Generated_Source\PSoC5/USBFS.c ****         USBFS_CR1_REG &= (uint8) ~USBFS_CR1_REG_ENABLE;
 333              		.loc 1 577 0
ARM GAS  C:\Users\bkettle\AppData\Local\Temp\cc8tpVDe.s 			page 17


 334 0066 194A     		ldr	r2, .L14+40
 335 0068 1378     		ldrb	r3, [r2]	@ zero_extendqisi2
 336 006a 03F0FE03 		and	r3, r3, #254
 337 006e 1370     		strb	r3, [r2]
 578:Generated_Source\PSoC5/USBFS.c ****         break;
 338              		.loc 1 578 0
 339 0070 0AE0     		b	.L11
 340              	.L10:
 579:Generated_Source\PSoC5/USBFS.c **** 
 580:Generated_Source\PSoC5/USBFS.c ****     case USBFS_5V_OPERATION:
 581:Generated_Source\PSoC5/USBFS.c ****         /* Enable regulator for 5V operation. */
 582:Generated_Source\PSoC5/USBFS.c ****         USBFS_CR1_REG |= (uint8)  USBFS_CR1_REG_ENABLE;
 341              		.loc 1 582 0
 342 0072 164A     		ldr	r2, .L14+40
 343 0074 1378     		ldrb	r3, [r2]	@ zero_extendqisi2
 344 0076 43F00103 		orr	r3, r3, #1
 345 007a 1370     		strb	r3, [r2]
 583:Generated_Source\PSoC5/USBFS.c ****         break;
 346              		.loc 1 583 0
 347 007c 04E0     		b	.L11
 348              	.L12:
 584:Generated_Source\PSoC5/USBFS.c **** 
 585:Generated_Source\PSoC5/USBFS.c ****     default: /* Check DWR settings of USB power supply. */
 586:Generated_Source\PSoC5/USBFS.c ****     #if (USBFS_VDDD_MV < USBFS_3500MV)
 587:Generated_Source\PSoC5/USBFS.c ****         /* Disable regulator for 3V operation. */
 588:Generated_Source\PSoC5/USBFS.c ****         USBFS_CR1_REG &= (uint8) ~USBFS_CR1_REG_ENABLE;
 589:Generated_Source\PSoC5/USBFS.c ****     #else
 590:Generated_Source\PSoC5/USBFS.c ****         /* Enable regulator for 5V operation. */
 591:Generated_Source\PSoC5/USBFS.c ****         USBFS_CR1_REG |= (uint8)  USBFS_CR1_REG_ENABLE;
 349              		.loc 1 591 0
 350 007e 134A     		ldr	r2, .L14+40
 351 0080 1378     		ldrb	r3, [r2]	@ zero_extendqisi2
 352 0082 43F00103 		orr	r3, r3, #1
 353 0086 1370     		strb	r3, [r2]
 354              	.L11:
 592:Generated_Source\PSoC5/USBFS.c ****     #endif /* (USBFS_VDDD_MV < USBFS_3500MV) */
 593:Generated_Source\PSoC5/USBFS.c ****         break;
 594:Generated_Source\PSoC5/USBFS.c ****     }
 595:Generated_Source\PSoC5/USBFS.c **** 
 596:Generated_Source\PSoC5/USBFS.c **** #if (CY_PSOC4)
 597:Generated_Source\PSoC5/USBFS.c ****     /* Clear bus activity. */
 598:Generated_Source\PSoC5/USBFS.c ****     USBFS_CR1_REG &= (uint32) ~USBFS_CR1_BUS_ACTIVITY;
 599:Generated_Source\PSoC5/USBFS.c **** 
 600:Generated_Source\PSoC5/USBFS.c ****     /* Clear EP0 count register. */
 601:Generated_Source\PSoC5/USBFS.c ****     USBFS_EP0_CNT_REG = USBFS_CLEAR_REG;
 602:Generated_Source\PSoC5/USBFS.c **** 
 603:Generated_Source\PSoC5/USBFS.c ****     /* Set EP0.CR: ACK Setup, NAK IN/OUT. */
 604:Generated_Source\PSoC5/USBFS.c ****     USBFS_EP0_CR_REG = USBFS_MODE_NAK_IN_OUT;
 605:Generated_Source\PSoC5/USBFS.c **** 
 606:Generated_Source\PSoC5/USBFS.c ****     #if (USBFS_LPM_ACTIVE)
 607:Generated_Source\PSoC5/USBFS.c ****         if (NULL != USBFS_GetBOSPtr())
 608:Generated_Source\PSoC5/USBFS.c ****         {
 609:Generated_Source\PSoC5/USBFS.c ****             /* Enable LPM and acknowledge LPM packets for active device.
 610:Generated_Source\PSoC5/USBFS.c ****             * Reset NYET_EN and SUB_RESP bits in the LPM_CTRL register.
 611:Generated_Source\PSoC5/USBFS.c ****             */
 612:Generated_Source\PSoC5/USBFS.c ****             USBFS_LPM_CTRL_REG = (USBFS_LPM_CTRL_LPM_EN | \
 613:Generated_Source\PSoC5/USBFS.c ****                                              USBFS_LPM_CTRL_LPM_ACK_RESP);
ARM GAS  C:\Users\bkettle\AppData\Local\Temp\cc8tpVDe.s 			page 18


 614:Generated_Source\PSoC5/USBFS.c ****         }
 615:Generated_Source\PSoC5/USBFS.c ****         else
 616:Generated_Source\PSoC5/USBFS.c ****         {
 617:Generated_Source\PSoC5/USBFS.c ****             /* Disable LPM for active device. */
 618:Generated_Source\PSoC5/USBFS.c ****             USBFS_LPM_CTRL_REG &= (uint32) ~USBFS_LPM_CTRL_LPM_EN;
 619:Generated_Source\PSoC5/USBFS.c ****         }
 620:Generated_Source\PSoC5/USBFS.c ****     #endif /* (USBFS_LPM_ACTIVE) */
 621:Generated_Source\PSoC5/USBFS.c **** 
 622:Generated_Source\PSoC5/USBFS.c ****     /* Enable device to responds to USB traffic with address 0. */
 623:Generated_Source\PSoC5/USBFS.c ****     USBFS_CR0_REG = USBFS_DEFUALT_CR0;
 624:Generated_Source\PSoC5/USBFS.c **** 
 625:Generated_Source\PSoC5/USBFS.c **** #else
 626:Generated_Source\PSoC5/USBFS.c ****     /* Set EP0.CR: ACK Setup, STALL IN/OUT. */
 627:Generated_Source\PSoC5/USBFS.c ****     USBFS_EP0_CR_REG = USBFS_MODE_STALL_IN_OUT;
 355              		.loc 1 627 0
 356 0088 0322     		movs	r2, #3
 357 008a 114B     		ldr	r3, .L14+44
 358 008c 1A70     		strb	r2, [r3]
 628:Generated_Source\PSoC5/USBFS.c **** 
 629:Generated_Source\PSoC5/USBFS.c ****     /* Enable device to respond to USB traffic with address 0. */
 630:Generated_Source\PSoC5/USBFS.c ****     USBFS_CR0_REG = USBFS_DEFUALT_CR0;
 359              		.loc 1 630 0
 360 008e 8022     		movs	r2, #128
 361 0090 203B     		subs	r3, r3, #32
 362 0092 1A70     		strb	r2, [r3]
 631:Generated_Source\PSoC5/USBFS.c ****     CyDelayCycles(USBFS_WAIT_CR0_REG_STABILITY);
 363              		.loc 1 631 0
 364 0094 0120     		movs	r0, #1
 365              	.LVL32:
 366 0096 FFF7FEFF 		bl	CyDelayCycles
 367              	.LVL33:
 632:Generated_Source\PSoC5/USBFS.c **** #endif /* (CY_PSOC4) */
 633:Generated_Source\PSoC5/USBFS.c **** 
 634:Generated_Source\PSoC5/USBFS.c ****     /* Enable D+ pull-up and keep USB control on IO. */
 635:Generated_Source\PSoC5/USBFS.c ****     USBFS_USBIO_CR1_REG = USBFS_USBIO_CR1_USBPUEN;
 368              		.loc 1 635 0
 369 009a 0422     		movs	r2, #4
 370 009c 0D4B     		ldr	r3, .L14+48
 371 009e 1A70     		strb	r2, [r3]
 372 00a0 10BD     		pop	{r4, pc}
 373              	.L15:
 374 00a2 00BF     		.align	2
 375              	.L14:
 376 00a4 00000000 		.word	USBFS_hidProtocol
 377 00a8 00000000 		.word	USBFS_device
 378 00ac 00000000 		.word	USBFS_transferState
 379 00b0 00000000 		.word	USBFS_configurationChanged
 380 00b4 00000000 		.word	USBFS_configuration
 381 00b8 00000000 		.word	USBFS_interfaceNumber
 382 00bc 00000000 		.word	USBFS_deviceAddress
 383 00c0 00000000 		.word	USBFS_deviceStatus
 384 00c4 00000000 		.word	USBFS_lastPacketSize
 385 00c8 00E100E0 		.word	-536813312
 386 00cc 09600040 		.word	1073766409
 387 00d0 28600040 		.word	1073766440
 388 00d4 12600040 		.word	1073766418
 389              		.cfi_endproc
ARM GAS  C:\Users\bkettle\AppData\Local\Temp\cc8tpVDe.s 			page 19


 390              	.LFE2:
 391              		.size	USBFS_InitComponent, .-USBFS_InitComponent
 392              		.section	.text.USBFS_Start,"ax",%progbits
 393              		.align	2
 394              		.global	USBFS_Start
 395              		.thumb
 396              		.thumb_func
 397              		.type	USBFS_Start, %function
 398              	USBFS_Start:
 399              	.LFB0:
 187:Generated_Source\PSoC5/USBFS.c ****     if (0u == USBFS_initVar)
 400              		.loc 1 187 0
 401              		.cfi_startproc
 402              		@ args = 0, pretend = 0, frame = 0
 403              		@ frame_needed = 0, uses_anonymous_args = 0
 404              	.LVL34:
 405 0000 38B5     		push	{r3, r4, r5, lr}
 406              		.cfi_def_cfa_offset 16
 407              		.cfi_offset 3, -16
 408              		.cfi_offset 4, -12
 409              		.cfi_offset 5, -8
 410              		.cfi_offset 14, -4
 411 0002 0446     		mov	r4, r0
 412 0004 0D46     		mov	r5, r1
 188:Generated_Source\PSoC5/USBFS.c ****     {
 413              		.loc 1 188 0
 414 0006 064B     		ldr	r3, .L19
 415 0008 1B78     		ldrb	r3, [r3]	@ zero_extendqisi2
 416 000a 23B9     		cbnz	r3, .L17
 190:Generated_Source\PSoC5/USBFS.c ****         USBFS_initVar = 1u;
 417              		.loc 1 190 0
 418 000c FFF7FEFF 		bl	USBFS_Init
 419              	.LVL35:
 191:Generated_Source\PSoC5/USBFS.c ****     }
 420              		.loc 1 191 0
 421 0010 0122     		movs	r2, #1
 422 0012 034B     		ldr	r3, .L19
 423 0014 1A70     		strb	r2, [r3]
 424              	.L17:
 194:Generated_Source\PSoC5/USBFS.c **** }
 425              		.loc 1 194 0
 426 0016 2946     		mov	r1, r5
 427 0018 2046     		mov	r0, r4
 428 001a FFF7FEFF 		bl	USBFS_InitComponent
 429              	.LVL36:
 430 001e 38BD     		pop	{r3, r4, r5, pc}
 431              	.L20:
 432              		.align	2
 433              	.L19:
 434 0020 00000000 		.word	.LANCHOR0
 435              		.cfi_endproc
 436              	.LFE0:
 437              		.size	USBFS_Start, .-USBFS_Start
 438              		.section	.text.USBFS_ReInitComponent,"ax",%progbits
 439              		.align	2
 440              		.global	USBFS_ReInitComponent
 441              		.thumb
ARM GAS  C:\Users\bkettle\AppData\Local\Temp\cc8tpVDe.s 			page 20


 442              		.thumb_func
 443              		.type	USBFS_ReInitComponent, %function
 444              	USBFS_ReInitComponent:
 445              	.LFB3:
 636:Generated_Source\PSoC5/USBFS.c **** }
 637:Generated_Source\PSoC5/USBFS.c **** 
 638:Generated_Source\PSoC5/USBFS.c **** 
 639:Generated_Source\PSoC5/USBFS.c **** /*******************************************************************************
 640:Generated_Source\PSoC5/USBFS.c **** * Function Name: USBFS_ReInitComponent
 641:Generated_Source\PSoC5/USBFS.c **** ****************************************************************************//**
 642:Generated_Source\PSoC5/USBFS.c **** *
 643:Generated_Source\PSoC5/USBFS.c **** *  This function reinitialize the component configuration and is
 644:Generated_Source\PSoC5/USBFS.c **** *  intend to be called from the Reset interrupt.
 645:Generated_Source\PSoC5/USBFS.c **** *
 646:Generated_Source\PSoC5/USBFS.c **** * \globalvars
 647:Generated_Source\PSoC5/USBFS.c **** *   USBFS_device - Contains the device number of the desired Device
 648:Generated_Source\PSoC5/USBFS.c **** *        Descriptor. The device number can be found in the Device Descriptor tab
 649:Generated_Source\PSoC5/USBFS.c **** *       of the Configure dialog, under the settings of the desired Device Descriptor,
 650:Generated_Source\PSoC5/USBFS.c **** *       in the Device Number field.
 651:Generated_Source\PSoC5/USBFS.c **** *   USBFS_transferState - This variable is used by the communication
 652:Generated_Source\PSoC5/USBFS.c **** *       functions to handle the current transfer state. Initialized to
 653:Generated_Source\PSoC5/USBFS.c **** *       TRANS_STATE_IDLE in this API.
 654:Generated_Source\PSoC5/USBFS.c **** *   USBFS_configuration - Contains the current configuration number
 655:Generated_Source\PSoC5/USBFS.c **** *       set by the Host using a SET_CONFIGURATION request.
 656:Generated_Source\PSoC5/USBFS.c **** *       Initialized to zero in this API.
 657:Generated_Source\PSoC5/USBFS.c **** *   USBFS_deviceAddress - Contains the current device address. This
 658:Generated_Source\PSoC5/USBFS.c **** *       variable is initialized to zero in this API. The Host starts to communicate
 659:Generated_Source\PSoC5/USBFS.c **** *      to the device with address 0 and then sets it to a whatever value using
 660:Generated_Source\PSoC5/USBFS.c **** *      a SET_ADDRESS request.
 661:Generated_Source\PSoC5/USBFS.c **** *   USBFS_deviceStatus - Initialized to 0.
 662:Generated_Source\PSoC5/USBFS.c **** *       This is a two-bit variable which contains the power status in the first bit
 663:Generated_Source\PSoC5/USBFS.c **** *       (DEVICE_STATUS_BUS_POWERED or DEVICE_STATUS_SELF_POWERED) and the remote
 664:Generated_Source\PSoC5/USBFS.c **** *       wakeup status (DEVICE_STATUS_REMOTE_WAKEUP) in the second bit.
 665:Generated_Source\PSoC5/USBFS.c **** *   USBFS_lastPacketSize - Initialized to 0;
 666:Generated_Source\PSoC5/USBFS.c **** *
 667:Generated_Source\PSoC5/USBFS.c **** * \reentrant
 668:Generated_Source\PSoC5/USBFS.c **** *  No.
 669:Generated_Source\PSoC5/USBFS.c **** *
 670:Generated_Source\PSoC5/USBFS.c **** *******************************************************************************/
 671:Generated_Source\PSoC5/USBFS.c **** void USBFS_ReInitComponent(void) 
 672:Generated_Source\PSoC5/USBFS.c **** {
 446              		.loc 1 672 0
 447              		.cfi_startproc
 448              		@ args = 0, pretend = 0, frame = 0
 449              		@ frame_needed = 0, uses_anonymous_args = 0
 450              		@ link register save eliminated.
 451              	.LVL37:
 673:Generated_Source\PSoC5/USBFS.c ****     /* Initialize _hidProtocol variable to comply with HID 7.2.6 Set_Protocol
 674:Generated_Source\PSoC5/USBFS.c ****     *  Request: "When initialized, all devices default to report protocol."
 675:Generated_Source\PSoC5/USBFS.c ****     */
 676:Generated_Source\PSoC5/USBFS.c **** #if defined(USBFS_ENABLE_HID_CLASS)
 677:Generated_Source\PSoC5/USBFS.c ****     uint8 i;
 678:Generated_Source\PSoC5/USBFS.c **** 
 679:Generated_Source\PSoC5/USBFS.c ****     for (i = 0u; i < USBFS_MAX_INTERFACES_NUMBER; i++)
 452              		.loc 1 679 0
 453 0000 0023     		movs	r3, #0
 454 0002 04E0     		b	.L22
ARM GAS  C:\Users\bkettle\AppData\Local\Temp\cc8tpVDe.s 			page 21


 455              	.LVL38:
 456              	.L23:
 680:Generated_Source\PSoC5/USBFS.c ****     {
 681:Generated_Source\PSoC5/USBFS.c ****         USBFS_hidProtocol[i] = USBFS_PROTOCOL_REPORT;
 457              		.loc 1 681 0 discriminator 3
 458 0004 0121     		movs	r1, #1
 459 0006 0E4A     		ldr	r2, .L24
 460 0008 D154     		strb	r1, [r2, r3]
 679:Generated_Source\PSoC5/USBFS.c ****     {
 461              		.loc 1 679 0 discriminator 3
 462 000a 0B44     		add	r3, r3, r1
 463              	.LVL39:
 464 000c DBB2     		uxtb	r3, r3
 465              	.LVL40:
 466              	.L22:
 679:Generated_Source\PSoC5/USBFS.c ****     {
 467              		.loc 1 679 0 is_stmt 0 discriminator 1
 468 000e 022B     		cmp	r3, #2
 469 0010 F8D9     		bls	.L23
 682:Generated_Source\PSoC5/USBFS.c ****     }
 683:Generated_Source\PSoC5/USBFS.c **** #endif /* USBFS_ENABLE_HID_CLASS */
 684:Generated_Source\PSoC5/USBFS.c **** 
 685:Generated_Source\PSoC5/USBFS.c ****     /* Reset component internal variables. */
 686:Generated_Source\PSoC5/USBFS.c ****     USBFS_transferState   = USBFS_TRANS_STATE_IDLE;
 470              		.loc 1 686 0 is_stmt 1
 471 0012 0023     		movs	r3, #0
 472              	.LVL41:
 473 0014 0B4A     		ldr	r2, .L24+4
 474 0016 1370     		strb	r3, [r2]
 687:Generated_Source\PSoC5/USBFS.c ****     USBFS_configurationChanged = 0u;
 475              		.loc 1 687 0
 476 0018 0B4A     		ldr	r2, .L24+8
 477 001a 1370     		strb	r3, [r2]
 688:Generated_Source\PSoC5/USBFS.c ****     USBFS_configuration   = 0u;
 478              		.loc 1 688 0
 479 001c 0B4A     		ldr	r2, .L24+12
 480 001e 1370     		strb	r3, [r2]
 689:Generated_Source\PSoC5/USBFS.c ****     USBFS_interfaceNumber = 0u;
 481              		.loc 1 689 0
 482 0020 0B4A     		ldr	r2, .L24+16
 483 0022 1370     		strb	r3, [r2]
 690:Generated_Source\PSoC5/USBFS.c ****     USBFS_deviceAddress   = 0u;
 484              		.loc 1 690 0
 485 0024 0B4A     		ldr	r2, .L24+20
 486 0026 1370     		strb	r3, [r2]
 691:Generated_Source\PSoC5/USBFS.c ****     USBFS_deviceStatus    = 0u;
 487              		.loc 1 691 0
 488 0028 0B4A     		ldr	r2, .L24+24
 489 002a 1370     		strb	r3, [r2]
 692:Generated_Source\PSoC5/USBFS.c ****     USBFS_lastPacketSize  = 0u;
 490              		.loc 1 692 0
 491 002c 0B4A     		ldr	r2, .L24+28
 492 002e 1370     		strb	r3, [r2]
 693:Generated_Source\PSoC5/USBFS.c **** 
 694:Generated_Source\PSoC5/USBFS.c **** #if (CY_PSOC4)
 695:Generated_Source\PSoC5/USBFS.c ****     /* Set EP0.CR: ACK Setup, NAK IN/OUT. */
 696:Generated_Source\PSoC5/USBFS.c ****     USBFS_EP0_CR_REG = USBFS_MODE_NAK_IN_OUT;
ARM GAS  C:\Users\bkettle\AppData\Local\Temp\cc8tpVDe.s 			page 22


 697:Generated_Source\PSoC5/USBFS.c **** #else
 698:Generated_Source\PSoC5/USBFS.c ****     /* Set EP0.CR: ACK Setup, STALL IN/OUT. */
 699:Generated_Source\PSoC5/USBFS.c ****     USBFS_EP0_CR_REG = USBFS_MODE_STALL_IN_OUT;
 493              		.loc 1 699 0
 494 0030 0322     		movs	r2, #3
 495 0032 0B4B     		ldr	r3, .L24+32
 496 0034 1A70     		strb	r2, [r3]
 700:Generated_Source\PSoC5/USBFS.c **** #endif /* (CY_PSOC4) */
 701:Generated_Source\PSoC5/USBFS.c **** 
 702:Generated_Source\PSoC5/USBFS.c ****     /* Enable device to respond to USB traffic with address 0. */
 703:Generated_Source\PSoC5/USBFS.c ****     USBFS_CR0_REG = USBFS_DEFUALT_CR0;
 497              		.loc 1 703 0
 498 0036 8022     		movs	r2, #128
 499 0038 203B     		subs	r3, r3, #32
 500 003a 1A70     		strb	r2, [r3]
 501 003c 7047     		bx	lr
 502              	.L25:
 503 003e 00BF     		.align	2
 504              	.L24:
 505 0040 00000000 		.word	USBFS_hidProtocol
 506 0044 00000000 		.word	USBFS_transferState
 507 0048 00000000 		.word	USBFS_configurationChanged
 508 004c 00000000 		.word	USBFS_configuration
 509 0050 00000000 		.word	USBFS_interfaceNumber
 510 0054 00000000 		.word	USBFS_deviceAddress
 511 0058 00000000 		.word	USBFS_deviceStatus
 512 005c 00000000 		.word	USBFS_lastPacketSize
 513 0060 28600040 		.word	1073766440
 514              		.cfi_endproc
 515              	.LFE3:
 516              		.size	USBFS_ReInitComponent, .-USBFS_ReInitComponent
 517              		.section	.text.USBFS_Stop,"ax",%progbits
 518              		.align	2
 519              		.global	USBFS_Stop
 520              		.thumb
 521              		.thumb_func
 522              		.type	USBFS_Stop, %function
 523              	USBFS_Stop:
 524              	.LFB4:
 704:Generated_Source\PSoC5/USBFS.c **** }
 705:Generated_Source\PSoC5/USBFS.c **** 
 706:Generated_Source\PSoC5/USBFS.c **** 
 707:Generated_Source\PSoC5/USBFS.c **** /*******************************************************************************
 708:Generated_Source\PSoC5/USBFS.c **** * Function Name: USBFS_Stop
 709:Generated_Source\PSoC5/USBFS.c **** ****************************************************************************//**
 710:Generated_Source\PSoC5/USBFS.c **** *
 711:Generated_Source\PSoC5/USBFS.c **** *  This function shuts down the USB function including to release
 712:Generated_Source\PSoC5/USBFS.c **** *  the D+ pull-up and disabling the SIE.
 713:Generated_Source\PSoC5/USBFS.c **** *
 714:Generated_Source\PSoC5/USBFS.c **** * \globalvars
 715:Generated_Source\PSoC5/USBFS.c **** *   \ref USBFS_configuration
 716:Generated_Source\PSoC5/USBFS.c **** *
 717:Generated_Source\PSoC5/USBFS.c **** *   USBFS_deviceAddress - Contains the current device address. This
 718:Generated_Source\PSoC5/USBFS.c **** *       variable is initialized to zero in this API. The Host starts to communicate
 719:Generated_Source\PSoC5/USBFS.c **** *      to the device with address 0 and then sets it to a whatever value using
 720:Generated_Source\PSoC5/USBFS.c **** *      a SET_ADDRESS request.
 721:Generated_Source\PSoC5/USBFS.c **** *
ARM GAS  C:\Users\bkettle\AppData\Local\Temp\cc8tpVDe.s 			page 23


 722:Generated_Source\PSoC5/USBFS.c **** *   \ref USBFS_deviceStatus
 723:Generated_Source\PSoC5/USBFS.c **** *
 724:Generated_Source\PSoC5/USBFS.c **** *   \ref USBFS_configurationChanged
 725:Generated_Source\PSoC5/USBFS.c **** *
 726:Generated_Source\PSoC5/USBFS.c **** *   USBFS_intiVar -  This variable is set to zero
 727:Generated_Source\PSoC5/USBFS.c **** *
 728:Generated_Source\PSoC5/USBFS.c **** *******************************************************************************/
 729:Generated_Source\PSoC5/USBFS.c **** void USBFS_Stop(void) 
 730:Generated_Source\PSoC5/USBFS.c **** {
 525              		.loc 1 730 0
 526              		.cfi_startproc
 527              		@ args = 0, pretend = 0, frame = 0
 528              		@ frame_needed = 0, uses_anonymous_args = 0
 529 0000 08B5     		push	{r3, lr}
 530              		.cfi_def_cfa_offset 8
 531              		.cfi_offset 3, -8
 532              		.cfi_offset 14, -4
 731:Generated_Source\PSoC5/USBFS.c ****     uint8 enableInterrupts;
 732:Generated_Source\PSoC5/USBFS.c **** 
 733:Generated_Source\PSoC5/USBFS.c **** #if (USBFS_EP_MANAGEMENT_DMA)
 734:Generated_Source\PSoC5/USBFS.c ****     /* Stop all DMA channels. */
 735:Generated_Source\PSoC5/USBFS.c ****     USBFS_Stop_DMA(USBFS_MAX_EP);
 736:Generated_Source\PSoC5/USBFS.c **** #endif /* (USBFS_EP_MANAGEMENT_DMA) */
 737:Generated_Source\PSoC5/USBFS.c **** 
 738:Generated_Source\PSoC5/USBFS.c ****     enableInterrupts = CyEnterCriticalSection();
 533              		.loc 1 738 0
 534 0002 FFF7FEFF 		bl	CyEnterCriticalSection
 535              	.LVL42:
 739:Generated_Source\PSoC5/USBFS.c **** 
 740:Generated_Source\PSoC5/USBFS.c ****     /* Disable USB IP to respond to USB traffic. */
 741:Generated_Source\PSoC5/USBFS.c ****     USBFS_CR0_REG &= (uint8) ~USBFS_CR0_ENABLE;
 536              		.loc 1 741 0
 537 0006 244A     		ldr	r2, .L28
 538 0008 1378     		ldrb	r3, [r2]	@ zero_extendqisi2
 539 000a 03F07F03 		and	r3, r3, #127
 540 000e 1370     		strb	r3, [r2]
 742:Generated_Source\PSoC5/USBFS.c **** 
 743:Generated_Source\PSoC5/USBFS.c ****     /* Disable D+ pull-up. */
 744:Generated_Source\PSoC5/USBFS.c ****     USBFS_USBIO_CR1_REG &= (uint8) ~ USBFS_USBIO_CR1_USBPUEN;
 541              		.loc 1 744 0
 542 0010 0A32     		adds	r2, r2, #10
 543 0012 1378     		ldrb	r3, [r2]	@ zero_extendqisi2
 544 0014 03F0FB03 		and	r3, r3, #251
 545 0018 1370     		strb	r3, [r2]
 745:Generated_Source\PSoC5/USBFS.c **** 
 746:Generated_Source\PSoC5/USBFS.c **** #if (CY_PSOC4)
 747:Generated_Source\PSoC5/USBFS.c ****     /* Disable USBFS block. */
 748:Generated_Source\PSoC5/USBFS.c ****     USBFS_POWER_CTRL_REG &= (uint32) ~USBFS_POWER_CTRL_ENABLE;
 749:Generated_Source\PSoC5/USBFS.c **** #else
 750:Generated_Source\PSoC5/USBFS.c ****     /* Clear power active and standby mode templates. */
 751:Generated_Source\PSoC5/USBFS.c ****     USBFS_PM_ACT_CFG_REG  &= (uint8) ~USBFS_PM_ACT_EN_FSUSB;
 546              		.loc 1 751 0
 547 001a A2F5E352 		sub	r2, r2, #7264
 548 001e 0D3A     		subs	r2, r2, #13
 549 0020 1378     		ldrb	r3, [r2]	@ zero_extendqisi2
 550 0022 03F0FE03 		and	r3, r3, #254
 551 0026 1370     		strb	r3, [r2]
ARM GAS  C:\Users\bkettle\AppData\Local\Temp\cc8tpVDe.s 			page 24


 752:Generated_Source\PSoC5/USBFS.c ****     USBFS_PM_STBY_CFG_REG &= (uint8) ~USBFS_PM_STBY_EN_FSUSB;
 552              		.loc 1 752 0
 553 0028 1032     		adds	r2, r2, #16
 554 002a 1378     		ldrb	r3, [r2]	@ zero_extendqisi2
 555 002c 03F0FE03 		and	r3, r3, #254
 556 0030 1370     		strb	r3, [r2]
 753:Generated_Source\PSoC5/USBFS.c **** 
 754:Generated_Source\PSoC5/USBFS.c ****     /* Ensure single-ended disable bits are high (PRT15.INP_DIS[7:6])
 755:Generated_Source\PSoC5/USBFS.c ****      * (input receiver disabled). */
 756:Generated_Source\PSoC5/USBFS.c ****     USBFS_DM_INP_DIS_REG |= (uint8) USBFS_DM_MASK;
 557              		.loc 1 756 0
 558 0032 1A4B     		ldr	r3, .L28+4
 559 0034 1A78     		ldrb	r2, [r3]	@ zero_extendqisi2
 560 0036 42F08002 		orr	r2, r2, #128
 561 003a 1A70     		strb	r2, [r3]
 757:Generated_Source\PSoC5/USBFS.c ****     USBFS_DP_INP_DIS_REG |= (uint8) USBFS_DP_MASK;
 562              		.loc 1 757 0
 563 003c 1A78     		ldrb	r2, [r3]	@ zero_extendqisi2
 564 003e 42F04002 		orr	r2, r2, #64
 565 0042 1A70     		strb	r2, [r3]
 758:Generated_Source\PSoC5/USBFS.c **** 
 759:Generated_Source\PSoC5/USBFS.c **** #endif /* (CY_PSOC4) */
 760:Generated_Source\PSoC5/USBFS.c **** 
 761:Generated_Source\PSoC5/USBFS.c ****     CyExitCriticalSection(enableInterrupts);
 566              		.loc 1 761 0
 567 0044 FFF7FEFF 		bl	CyExitCriticalSection
 568              	.LVL43:
 762:Generated_Source\PSoC5/USBFS.c **** 
 763:Generated_Source\PSoC5/USBFS.c ****     /* Disable component interrupts. */
 764:Generated_Source\PSoC5/USBFS.c **** #if (CY_PSOC4)
 765:Generated_Source\PSoC5/USBFS.c ****     CyIntDisable(USBFS_INTR_HI_VECT_NUM);
 766:Generated_Source\PSoC5/USBFS.c ****     CyIntDisable(USBFS_INTR_LO_VECT_NUM);
 767:Generated_Source\PSoC5/USBFS.c ****     CyIntDisable(USBFS_INTR_MED_VECT_NUM);
 768:Generated_Source\PSoC5/USBFS.c **** #else
 769:Generated_Source\PSoC5/USBFS.c **** 
 770:Generated_Source\PSoC5/USBFS.c ****     CyIntDisable(USBFS_BUS_RESET_VECT_NUM);
 569              		.loc 1 770 0
 570 0048 154B     		ldr	r3, .L28+8
 571 004a 4FF40002 		mov	r2, #8388608
 572 004e 1A60     		str	r2, [r3]
 771:Generated_Source\PSoC5/USBFS.c ****     CyIntDisable(USBFS_EP_0_VECT_NUM);
 573              		.loc 1 771 0
 574 0050 4FF08072 		mov	r2, #16777216
 575 0054 1A60     		str	r2, [r3]
 772:Generated_Source\PSoC5/USBFS.c **** 
 773:Generated_Source\PSoC5/USBFS.c ****     #if (USBFS_SOF_ISR_ACTIVE)
 774:Generated_Source\PSoC5/USBFS.c ****         CyIntDisable(USBFS_SOF_VECT_NUM);
 576              		.loc 1 774 0
 577 0056 4FF40012 		mov	r2, #2097152
 578 005a 1A60     		str	r2, [r3]
 775:Generated_Source\PSoC5/USBFS.c ****     #endif /* (USBFS_SOF_ISR_ACTIVE) */
 776:Generated_Source\PSoC5/USBFS.c **** 
 777:Generated_Source\PSoC5/USBFS.c ****     #if (USBFS_EP1_ISR_ACTIVE)
 778:Generated_Source\PSoC5/USBFS.c ****         CyIntDisable(USBFS_EP_1_VECT_NUM);
 579              		.loc 1 778 0
 580 005c 0222     		movs	r2, #2
 581 005e 1A60     		str	r2, [r3]
ARM GAS  C:\Users\bkettle\AppData\Local\Temp\cc8tpVDe.s 			page 25


 779:Generated_Source\PSoC5/USBFS.c ****     #endif /* (USBFS_EP1_ISR_ACTIVE) */
 780:Generated_Source\PSoC5/USBFS.c **** 
 781:Generated_Source\PSoC5/USBFS.c ****     #if (USBFS_EP2_ISR_ACTIVE)
 782:Generated_Source\PSoC5/USBFS.c ****         CyIntDisable(USBFS_EP_2_VECT_NUM);
 582              		.loc 1 782 0
 583 0060 0422     		movs	r2, #4
 584 0062 1A60     		str	r2, [r3]
 783:Generated_Source\PSoC5/USBFS.c ****     #endif /* (USBFS_EP2_ISR_ACTIVE) */
 784:Generated_Source\PSoC5/USBFS.c **** 
 785:Generated_Source\PSoC5/USBFS.c ****     #if (USBFS_EP3_ISR_ACTIVE)
 786:Generated_Source\PSoC5/USBFS.c ****         CyIntDisable(USBFS_EP_3_VECT_NUM);
 585              		.loc 1 786 0
 586 0064 0822     		movs	r2, #8
 587 0066 1A60     		str	r2, [r3]
 787:Generated_Source\PSoC5/USBFS.c ****     #endif /* (USBFS_EP3_ISR_ACTIVE) */
 788:Generated_Source\PSoC5/USBFS.c **** 
 789:Generated_Source\PSoC5/USBFS.c ****     #if (USBFS_EP4_ISR_ACTIVE)
 790:Generated_Source\PSoC5/USBFS.c ****         CyIntDisable(USBFS_EP_4_VECT_NUM);
 588              		.loc 1 790 0
 589 0068 1022     		movs	r2, #16
 590 006a 1A60     		str	r2, [r3]
 791:Generated_Source\PSoC5/USBFS.c ****     #endif /* (USBFS_EP4_ISR_ACTIVE) */
 792:Generated_Source\PSoC5/USBFS.c **** 
 793:Generated_Source\PSoC5/USBFS.c ****     #if (USBFS_EP5_ISR_ACTIVE)
 794:Generated_Source\PSoC5/USBFS.c ****         CyIntDisable(USBFS_EP_5_VECT_NUM);
 591              		.loc 1 794 0
 592 006c 2022     		movs	r2, #32
 593 006e 1A60     		str	r2, [r3]
 795:Generated_Source\PSoC5/USBFS.c ****     #endif /* (USBFS_EP5_ISR_ACTIVE) */
 796:Generated_Source\PSoC5/USBFS.c **** 
 797:Generated_Source\PSoC5/USBFS.c ****     #if (USBFS_EP6_ISR_ACTIVE)
 798:Generated_Source\PSoC5/USBFS.c ****         CyIntDisable(USBFS_EP_6_VECT_NUM);
 799:Generated_Source\PSoC5/USBFS.c ****     #endif /* USBFS_EP6_ISR_REMOVE */
 800:Generated_Source\PSoC5/USBFS.c **** 
 801:Generated_Source\PSoC5/USBFS.c ****     #if (USBFS_EP7_ISR_ACTIVE)
 802:Generated_Source\PSoC5/USBFS.c ****         CyIntDisable(USBFS_EP_7_VECT_NUM);
 803:Generated_Source\PSoC5/USBFS.c ****     #endif /* (USBFS_EP7_ISR_ACTIVE) */
 804:Generated_Source\PSoC5/USBFS.c **** 
 805:Generated_Source\PSoC5/USBFS.c ****     #if (USBFS_EP8_ISR_ACTIVE)
 806:Generated_Source\PSoC5/USBFS.c ****         CyIntDisable(USBFS_EP_8_VECT_NUM);
 807:Generated_Source\PSoC5/USBFS.c ****     #endif /* (USBFS_EP8_ISR_ACTIVE) */
 808:Generated_Source\PSoC5/USBFS.c **** 
 809:Generated_Source\PSoC5/USBFS.c ****     #if (USBFS_DP_ISR_ACTIVE)
 810:Generated_Source\PSoC5/USBFS.c ****         /* Clear active mode Dp interrupt source history. */
 811:Generated_Source\PSoC5/USBFS.c ****         (void) USBFS_Dp_ClearInterrupt();
 594              		.loc 1 811 0
 595 0070 FFF7FEFF 		bl	USBFS_Dp_ClearInterrupt
 596              	.LVL44:
 812:Generated_Source\PSoC5/USBFS.c ****         CyIntClearPending(USBFS_DP_INTC_VECT_NUM);
 597              		.loc 1 812 0
 598 0074 4FF48052 		mov	r2, #4096
 599 0078 0A4B     		ldr	r3, .L28+12
 600 007a 1A60     		str	r2, [r3]
 813:Generated_Source\PSoC5/USBFS.c ****     #endif /* (USBFS_DP_ISR_ACTIVE). */
 814:Generated_Source\PSoC5/USBFS.c **** 
 815:Generated_Source\PSoC5/USBFS.c **** #endif /* (CY_PSOC4) */
 816:Generated_Source\PSoC5/USBFS.c **** 
ARM GAS  C:\Users\bkettle\AppData\Local\Temp\cc8tpVDe.s 			page 26


 817:Generated_Source\PSoC5/USBFS.c ****     /* Reset component internal variables. */
 818:Generated_Source\PSoC5/USBFS.c ****     USBFS_configurationChanged = 0u;
 601              		.loc 1 818 0
 602 007c 0023     		movs	r3, #0
 603 007e 0A4A     		ldr	r2, .L28+16
 604 0080 1370     		strb	r3, [r2]
 819:Generated_Source\PSoC5/USBFS.c ****     USBFS_configuration   = 0u;
 605              		.loc 1 819 0
 606 0082 0A4A     		ldr	r2, .L28+20
 607 0084 1370     		strb	r3, [r2]
 820:Generated_Source\PSoC5/USBFS.c ****     USBFS_interfaceNumber = 0u;
 608              		.loc 1 820 0
 609 0086 0A4A     		ldr	r2, .L28+24
 610 0088 1370     		strb	r3, [r2]
 821:Generated_Source\PSoC5/USBFS.c ****     USBFS_deviceAddress   = 0u;
 611              		.loc 1 821 0
 612 008a 0A4A     		ldr	r2, .L28+28
 613 008c 1370     		strb	r3, [r2]
 822:Generated_Source\PSoC5/USBFS.c ****     USBFS_deviceStatus    = 0u;
 614              		.loc 1 822 0
 615 008e 0A4A     		ldr	r2, .L28+32
 616 0090 1370     		strb	r3, [r2]
 823:Generated_Source\PSoC5/USBFS.c **** 
 824:Generated_Source\PSoC5/USBFS.c ****     /* It is mandatory for correct device startup. */
 825:Generated_Source\PSoC5/USBFS.c ****     USBFS_initVar = 0u;
 617              		.loc 1 825 0
 618 0092 0A4A     		ldr	r2, .L28+36
 619 0094 1370     		strb	r3, [r2]
 620 0096 08BD     		pop	{r3, pc}
 621              	.L29:
 622              		.align	2
 623              	.L28:
 624 0098 08600040 		.word	1073766408
 625 009c F8510040 		.word	1073762808
 626 00a0 80E100E0 		.word	-536813184
 627 00a4 80E200E0 		.word	-536812928
 628 00a8 00000000 		.word	USBFS_configurationChanged
 629 00ac 00000000 		.word	USBFS_configuration
 630 00b0 00000000 		.word	USBFS_interfaceNumber
 631 00b4 00000000 		.word	USBFS_deviceAddress
 632 00b8 00000000 		.word	USBFS_deviceStatus
 633 00bc 00000000 		.word	.LANCHOR0
 634              		.cfi_endproc
 635              	.LFE4:
 636              		.size	USBFS_Stop, .-USBFS_Stop
 637              		.section	.text.USBFS_CheckActivity,"ax",%progbits
 638              		.align	2
 639              		.global	USBFS_CheckActivity
 640              		.thumb
 641              		.thumb_func
 642              		.type	USBFS_CheckActivity, %function
 643              	USBFS_CheckActivity:
 644              	.LFB5:
 826:Generated_Source\PSoC5/USBFS.c **** }
 827:Generated_Source\PSoC5/USBFS.c **** 
 828:Generated_Source\PSoC5/USBFS.c **** 
 829:Generated_Source\PSoC5/USBFS.c **** /*******************************************************************************
ARM GAS  C:\Users\bkettle\AppData\Local\Temp\cc8tpVDe.s 			page 27


 830:Generated_Source\PSoC5/USBFS.c **** * Function Name: USBFS_CheckActivity
 831:Generated_Source\PSoC5/USBFS.c **** ****************************************************************************//**
 832:Generated_Source\PSoC5/USBFS.c **** *
 833:Generated_Source\PSoC5/USBFS.c **** *  This function returns the activity status of the bus. It clears the hardware
 834:Generated_Source\PSoC5/USBFS.c **** *  status to provide updated status on the next call of this function. It
 835:Generated_Source\PSoC5/USBFS.c **** *  provides a way to determine whether any USB bus activity occurred. The
 836:Generated_Source\PSoC5/USBFS.c **** *  application should use this function to determine if the USB suspend
 837:Generated_Source\PSoC5/USBFS.c **** *  conditions are met.
 838:Generated_Source\PSoC5/USBFS.c **** *
 839:Generated_Source\PSoC5/USBFS.c **** *
 840:Generated_Source\PSoC5/USBFS.c **** * \return
 841:Generated_Source\PSoC5/USBFS.c **** *  cystatus: Status of the bus since the last call of the function.
 842:Generated_Source\PSoC5/USBFS.c **** *  Return Value |   Description
 843:Generated_Source\PSoC5/USBFS.c **** *  -------------|---------------------------------------------------------------
 844:Generated_Source\PSoC5/USBFS.c **** *  1            |Bus activity was detected since the last call to this function
 845:Generated_Source\PSoC5/USBFS.c **** *  0            |Bus activity was not detected since the last call to this function
 846:Generated_Source\PSoC5/USBFS.c **** *
 847:Generated_Source\PSoC5/USBFS.c **** *
 848:Generated_Source\PSoC5/USBFS.c **** *******************************************************************************/
 849:Generated_Source\PSoC5/USBFS.c **** uint8 USBFS_CheckActivity(void) 
 850:Generated_Source\PSoC5/USBFS.c **** {
 645              		.loc 1 850 0
 646              		.cfi_startproc
 647              		@ args = 0, pretend = 0, frame = 0
 648              		@ frame_needed = 0, uses_anonymous_args = 0
 649              		@ link register save eliminated.
 851:Generated_Source\PSoC5/USBFS.c ****     uint8 cr1Reg = USBFS_CR1_REG;
 650              		.loc 1 851 0
 651 0000 064A     		ldr	r2, .L32
 652 0002 1378     		ldrb	r3, [r2]	@ zero_extendqisi2
 653 0004 DBB2     		uxtb	r3, r3
 654              	.LVL45:
 852:Generated_Source\PSoC5/USBFS.c **** 
 853:Generated_Source\PSoC5/USBFS.c ****     /* Clear bus activity. */
 854:Generated_Source\PSoC5/USBFS.c ****     USBFS_CR1_REG = (cr1Reg & (uint8) ~USBFS_CR1_BUS_ACTIVITY);
 655              		.loc 1 854 0
 656 0006 03F0FB01 		and	r1, r3, #251
 657 000a 1170     		strb	r1, [r2]
 658 000c 03F00403 		and	r3, r3, #4
 659              	.LVL46:
 855:Generated_Source\PSoC5/USBFS.c **** 
 856:Generated_Source\PSoC5/USBFS.c ****     /* Get bus activity. */
 857:Generated_Source\PSoC5/USBFS.c ****     return ((0u != (cr1Reg & USBFS_CR1_BUS_ACTIVITY)) ? (1u) : (0u));
 660              		.loc 1 857 0
 661 0010 03F0FF00 		and	r0, r3, #255
 662 0014 03B1     		cbz	r3, .L31
 663 0016 0120     		movs	r0, #1
 664              	.L31:
 858:Generated_Source\PSoC5/USBFS.c **** }
 665              		.loc 1 858 0 discriminator 4
 666 0018 7047     		bx	lr
 667              	.L33:
 668 001a 00BF     		.align	2
 669              	.L32:
 670 001c 09600040 		.word	1073766409
 671              		.cfi_endproc
 672              	.LFE5:
ARM GAS  C:\Users\bkettle\AppData\Local\Temp\cc8tpVDe.s 			page 28


 673              		.size	USBFS_CheckActivity, .-USBFS_CheckActivity
 674              		.section	.text.USBFS_GetConfiguration,"ax",%progbits
 675              		.align	2
 676              		.global	USBFS_GetConfiguration
 677              		.thumb
 678              		.thumb_func
 679              		.type	USBFS_GetConfiguration, %function
 680              	USBFS_GetConfiguration:
 681              	.LFB6:
 859:Generated_Source\PSoC5/USBFS.c **** 
 860:Generated_Source\PSoC5/USBFS.c **** 
 861:Generated_Source\PSoC5/USBFS.c **** /*******************************************************************************
 862:Generated_Source\PSoC5/USBFS.c **** * Function Name: USBFS_GetConfiguration
 863:Generated_Source\PSoC5/USBFS.c **** ****************************************************************************//**
 864:Generated_Source\PSoC5/USBFS.c **** *
 865:Generated_Source\PSoC5/USBFS.c **** *  This function gets the current configuration of the USB device.
 866:Generated_Source\PSoC5/USBFS.c **** *
 867:Generated_Source\PSoC5/USBFS.c **** * \return
 868:Generated_Source\PSoC5/USBFS.c **** *  Returns the currently assigned configuration. Returns 0 if the device
 869:Generated_Source\PSoC5/USBFS.c **** *  is not configured
 870:Generated_Source\PSoC5/USBFS.c **** *
 871:Generated_Source\PSoC5/USBFS.c **** *******************************************************************************/
 872:Generated_Source\PSoC5/USBFS.c **** uint8 USBFS_GetConfiguration(void) 
 873:Generated_Source\PSoC5/USBFS.c **** {
 682              		.loc 1 873 0
 683              		.cfi_startproc
 684              		@ args = 0, pretend = 0, frame = 0
 685              		@ frame_needed = 0, uses_anonymous_args = 0
 686              		@ link register save eliminated.
 874:Generated_Source\PSoC5/USBFS.c ****     return (USBFS_configuration);
 687              		.loc 1 874 0
 688 0000 014B     		ldr	r3, .L35
 689 0002 1878     		ldrb	r0, [r3]	@ zero_extendqisi2
 875:Generated_Source\PSoC5/USBFS.c **** }
 690              		.loc 1 875 0
 691 0004 7047     		bx	lr
 692              	.L36:
 693 0006 00BF     		.align	2
 694              	.L35:
 695 0008 00000000 		.word	USBFS_configuration
 696              		.cfi_endproc
 697              	.LFE6:
 698              		.size	USBFS_GetConfiguration, .-USBFS_GetConfiguration
 699              		.section	.text.USBFS_IsConfigurationChanged,"ax",%progbits
 700              		.align	2
 701              		.global	USBFS_IsConfigurationChanged
 702              		.thumb
 703              		.thumb_func
 704              		.type	USBFS_IsConfigurationChanged, %function
 705              	USBFS_IsConfigurationChanged:
 706              	.LFB7:
 876:Generated_Source\PSoC5/USBFS.c **** 
 877:Generated_Source\PSoC5/USBFS.c **** 
 878:Generated_Source\PSoC5/USBFS.c **** /*******************************************************************************
 879:Generated_Source\PSoC5/USBFS.c **** * Function Name: USBFS_IsConfigurationChanged
 880:Generated_Source\PSoC5/USBFS.c **** ****************************************************************************//**
 881:Generated_Source\PSoC5/USBFS.c **** *
ARM GAS  C:\Users\bkettle\AppData\Local\Temp\cc8tpVDe.s 			page 29


 882:Generated_Source\PSoC5/USBFS.c **** *  This function returns the clear-on-read configuration state.  It is useful
 883:Generated_Source\PSoC5/USBFS.c **** *  when the host sends double SET_CONFIGURATION request with the same 
 884:Generated_Source\PSoC5/USBFS.c **** *  configuration number or changes alternate settings of the interface. 
 885:Generated_Source\PSoC5/USBFS.c **** *  After configuration has been changed the OUT endpoints must be enabled and IN 
 886:Generated_Source\PSoC5/USBFS.c **** *  endpoint must be loaded with data to start communication with the host.
 887:Generated_Source\PSoC5/USBFS.c **** *
 888:Generated_Source\PSoC5/USBFS.c **** * \return
 889:Generated_Source\PSoC5/USBFS.c **** *  None-zero value when new configuration has been changed, otherwise zero is
 890:Generated_Source\PSoC5/USBFS.c **** *  returned.
 891:Generated_Source\PSoC5/USBFS.c **** *
 892:Generated_Source\PSoC5/USBFS.c **** * \globalvars
 893:Generated_Source\PSoC5/USBFS.c **** *
 894:Generated_Source\PSoC5/USBFS.c **** *  \ref USBFS_configurationChanged - This variable is set to 1 after
 895:Generated_Source\PSoC5/USBFS.c **** *   a SET_CONFIGURATION request and cleared in this function.
 896:Generated_Source\PSoC5/USBFS.c **** *
 897:Generated_Source\PSoC5/USBFS.c **** *******************************************************************************/
 898:Generated_Source\PSoC5/USBFS.c **** uint8 USBFS_IsConfigurationChanged(void) 
 899:Generated_Source\PSoC5/USBFS.c **** {
 707              		.loc 1 899 0
 708              		.cfi_startproc
 709              		@ args = 0, pretend = 0, frame = 0
 710              		@ frame_needed = 0, uses_anonymous_args = 0
 711              		@ link register save eliminated.
 712              	.LVL47:
 900:Generated_Source\PSoC5/USBFS.c ****     uint8 res = 0u;
 901:Generated_Source\PSoC5/USBFS.c **** 
 902:Generated_Source\PSoC5/USBFS.c ****     if (USBFS_configurationChanged != 0u)
 713              		.loc 1 902 0
 714 0000 064B     		ldr	r3, .L40
 715 0002 1B78     		ldrb	r3, [r3]	@ zero_extendqisi2
 716 0004 13F0FF0F 		tst	r3, #255
 717 0008 05D0     		beq	.L39
 903:Generated_Source\PSoC5/USBFS.c ****     {
 904:Generated_Source\PSoC5/USBFS.c ****         res = USBFS_configurationChanged;
 718              		.loc 1 904 0
 719 000a 044B     		ldr	r3, .L40
 720 000c 1878     		ldrb	r0, [r3]	@ zero_extendqisi2
 721 000e C0B2     		uxtb	r0, r0
 722              	.LVL48:
 905:Generated_Source\PSoC5/USBFS.c ****         USBFS_configurationChanged = 0u;
 723              		.loc 1 905 0
 724 0010 0022     		movs	r2, #0
 725 0012 1A70     		strb	r2, [r3]
 726 0014 7047     		bx	lr
 727              	.LVL49:
 728              	.L39:
 900:Generated_Source\PSoC5/USBFS.c ****     uint8 res = 0u;
 729              		.loc 1 900 0
 730 0016 0020     		movs	r0, #0
 731              	.LVL50:
 906:Generated_Source\PSoC5/USBFS.c ****     }
 907:Generated_Source\PSoC5/USBFS.c **** 
 908:Generated_Source\PSoC5/USBFS.c ****     return (res);
 909:Generated_Source\PSoC5/USBFS.c **** }
 732              		.loc 1 909 0
 733 0018 7047     		bx	lr
 734              	.L41:
ARM GAS  C:\Users\bkettle\AppData\Local\Temp\cc8tpVDe.s 			page 30


 735 001a 00BF     		.align	2
 736              	.L40:
 737 001c 00000000 		.word	USBFS_configurationChanged
 738              		.cfi_endproc
 739              	.LFE7:
 740              		.size	USBFS_IsConfigurationChanged, .-USBFS_IsConfigurationChanged
 741              		.section	.text.USBFS_GetInterfaceSetting,"ax",%progbits
 742              		.align	2
 743              		.global	USBFS_GetInterfaceSetting
 744              		.thumb
 745              		.thumb_func
 746              		.type	USBFS_GetInterfaceSetting, %function
 747              	USBFS_GetInterfaceSetting:
 748              	.LFB8:
 910:Generated_Source\PSoC5/USBFS.c **** 
 911:Generated_Source\PSoC5/USBFS.c **** 
 912:Generated_Source\PSoC5/USBFS.c **** /*******************************************************************************
 913:Generated_Source\PSoC5/USBFS.c **** * Function Name: USBFS_GetInterfaceSetting
 914:Generated_Source\PSoC5/USBFS.c **** ****************************************************************************//**
 915:Generated_Source\PSoC5/USBFS.c **** *
 916:Generated_Source\PSoC5/USBFS.c **** *  This function gets the current alternate setting for the specified interface.
 917:Generated_Source\PSoC5/USBFS.c **** *  It is useful to identify which alternate settings are active in the specified 
 918:Generated_Source\PSoC5/USBFS.c **** *  interface.
 919:Generated_Source\PSoC5/USBFS.c **** *
 920:Generated_Source\PSoC5/USBFS.c **** *  \param
 921:Generated_Source\PSoC5/USBFS.c **** *  interfaceNumber interface number
 922:Generated_Source\PSoC5/USBFS.c **** *
 923:Generated_Source\PSoC5/USBFS.c **** * \return
 924:Generated_Source\PSoC5/USBFS.c **** *  Returns the current alternate setting for the specified interface.
 925:Generated_Source\PSoC5/USBFS.c **** *
 926:Generated_Source\PSoC5/USBFS.c **** *******************************************************************************/
 927:Generated_Source\PSoC5/USBFS.c **** uint8  USBFS_GetInterfaceSetting(uint8 interfaceNumber)
 928:Generated_Source\PSoC5/USBFS.c ****                                                     
 929:Generated_Source\PSoC5/USBFS.c **** {
 749              		.loc 1 929 0
 750              		.cfi_startproc
 751              		@ args = 0, pretend = 0, frame = 0
 752              		@ frame_needed = 0, uses_anonymous_args = 0
 753              		@ link register save eliminated.
 754              	.LVL51:
 930:Generated_Source\PSoC5/USBFS.c ****     return (USBFS_interfaceSetting[interfaceNumber]);
 755              		.loc 1 930 0
 756 0000 014B     		ldr	r3, .L43
 757 0002 185C     		ldrb	r0, [r3, r0]	@ zero_extendqisi2
 758              	.LVL52:
 931:Generated_Source\PSoC5/USBFS.c **** }
 759              		.loc 1 931 0
 760 0004 7047     		bx	lr
 761              	.L44:
 762 0006 00BF     		.align	2
 763              	.L43:
 764 0008 00000000 		.word	USBFS_interfaceSetting
 765              		.cfi_endproc
 766              	.LFE8:
 767              		.size	USBFS_GetInterfaceSetting, .-USBFS_GetInterfaceSetting
 768              		.section	.text.USBFS_GetEPState,"ax",%progbits
 769              		.align	2
ARM GAS  C:\Users\bkettle\AppData\Local\Temp\cc8tpVDe.s 			page 31


 770              		.global	USBFS_GetEPState
 771              		.thumb
 772              		.thumb_func
 773              		.type	USBFS_GetEPState, %function
 774              	USBFS_GetEPState:
 775              	.LFB9:
 932:Generated_Source\PSoC5/USBFS.c **** 
 933:Generated_Source\PSoC5/USBFS.c **** 
 934:Generated_Source\PSoC5/USBFS.c **** /*******************************************************************************
 935:Generated_Source\PSoC5/USBFS.c **** * Function Name: USBFS_GetEPState
 936:Generated_Source\PSoC5/USBFS.c **** ****************************************************************************//**
 937:Generated_Source\PSoC5/USBFS.c **** *
 938:Generated_Source\PSoC5/USBFS.c **** *  This function returns the state of the requested endpoint.
 939:Generated_Source\PSoC5/USBFS.c **** *
 940:Generated_Source\PSoC5/USBFS.c **** * \param epNumber Data endpoint number
 941:Generated_Source\PSoC5/USBFS.c **** *
 942:Generated_Source\PSoC5/USBFS.c **** * \return
 943:Generated_Source\PSoC5/USBFS.c **** *  Returns the current state of the specified USBFS endpoint. Symbolic names and
 944:Generated_Source\PSoC5/USBFS.c **** *  their associated values are given in the following table. Use these constants
 945:Generated_Source\PSoC5/USBFS.c **** *  whenever you write code to change the state of the endpoints, such as ISR
 946:Generated_Source\PSoC5/USBFS.c **** *  code, to handle data sent or received.
 947:Generated_Source\PSoC5/USBFS.c **** *
 948:Generated_Source\PSoC5/USBFS.c **** *  Return Value           | Description
 949:Generated_Source\PSoC5/USBFS.c **** *  -----------------------|-----------------------------------------------------
 950:Generated_Source\PSoC5/USBFS.c **** *  USBFS_NO_EVENT_PENDING |The endpoint is awaiting SIE action
 951:Generated_Source\PSoC5/USBFS.c **** *  USBFS_EVENT_PENDING    |The endpoint is awaiting CPU action
 952:Generated_Source\PSoC5/USBFS.c **** *  USBFS_NO_EVENT_ALLOWED |The endpoint is locked from access
 953:Generated_Source\PSoC5/USBFS.c **** *  USBFS_IN_BUFFER_FULL   |The IN endpoint is loaded and the mode is set to ACK IN
 954:Generated_Source\PSoC5/USBFS.c **** *  USBFS_IN_BUFFER_EMPTY  |An IN transaction occurred and more data can be loaded
 955:Generated_Source\PSoC5/USBFS.c **** *  USBFS_OUT_BUFFER_EMPTY |The OUT endpoint is set to ACK OUT and is waiting for data
 956:Generated_Source\PSoC5/USBFS.c **** *  USBFS_OUT_BUFFER_FULL  |An OUT transaction has occurred and data can be read
 957:Generated_Source\PSoC5/USBFS.c **** *
 958:Generated_Source\PSoC5/USBFS.c **** *******************************************************************************/
 959:Generated_Source\PSoC5/USBFS.c **** uint8 USBFS_GetEPState(uint8 epNumber) 
 960:Generated_Source\PSoC5/USBFS.c **** {
 776              		.loc 1 960 0
 777              		.cfi_startproc
 778              		@ args = 0, pretend = 0, frame = 0
 779              		@ frame_needed = 0, uses_anonymous_args = 0
 780              		@ link register save eliminated.
 781              	.LVL53:
 961:Generated_Source\PSoC5/USBFS.c ****     return (USBFS_EP[epNumber].apiEpState);
 782              		.loc 1 961 0
 783 0000 00EB4000 		add	r0, r0, r0, lsl #1
 784              	.LVL54:
 785 0004 8300     		lsls	r3, r0, #2
 786 0006 024A     		ldr	r2, .L46
 787 0008 1344     		add	r3, r3, r2
 788 000a 5878     		ldrb	r0, [r3, #1]	@ zero_extendqisi2
 962:Generated_Source\PSoC5/USBFS.c **** }
 789              		.loc 1 962 0
 790 000c 7047     		bx	lr
 791              	.L47:
 792 000e 00BF     		.align	2
 793              	.L46:
 794 0010 00000000 		.word	USBFS_EP
 795              		.cfi_endproc
ARM GAS  C:\Users\bkettle\AppData\Local\Temp\cc8tpVDe.s 			page 32


 796              	.LFE9:
 797              		.size	USBFS_GetEPState, .-USBFS_GetEPState
 798              		.section	.text.USBFS_GetEPCount,"ax",%progbits
 799              		.align	2
 800              		.global	USBFS_GetEPCount
 801              		.thumb
 802              		.thumb_func
 803              		.type	USBFS_GetEPCount, %function
 804              	USBFS_GetEPCount:
 805              	.LFB10:
 963:Generated_Source\PSoC5/USBFS.c **** 
 964:Generated_Source\PSoC5/USBFS.c **** 
 965:Generated_Source\PSoC5/USBFS.c **** /*******************************************************************************
 966:Generated_Source\PSoC5/USBFS.c **** * Function Name: USBFS_GetEPCount
 967:Generated_Source\PSoC5/USBFS.c **** ****************************************************************************//**
 968:Generated_Source\PSoC5/USBFS.c **** *
 969:Generated_Source\PSoC5/USBFS.c **** *  This function supports Data Endpoints only(EP1-EP8).
 970:Generated_Source\PSoC5/USBFS.c **** *  Returns the transfer count for the requested endpoint.  The value from
 971:Generated_Source\PSoC5/USBFS.c **** *  the count registers includes 2 counts for the two byte checksum of the
 972:Generated_Source\PSoC5/USBFS.c **** *  packet.  This function subtracts the two counts.
 973:Generated_Source\PSoC5/USBFS.c **** *
 974:Generated_Source\PSoC5/USBFS.c **** *  \param epNumber Data Endpoint Number.
 975:Generated_Source\PSoC5/USBFS.c **** *                   Valid values are between 1 and 8.
 976:Generated_Source\PSoC5/USBFS.c **** *
 977:Generated_Source\PSoC5/USBFS.c **** * \return
 978:Generated_Source\PSoC5/USBFS.c **** *  Returns the current byte count from the specified endpoint or 0 for an
 979:Generated_Source\PSoC5/USBFS.c **** *  invalid endpoint.
 980:Generated_Source\PSoC5/USBFS.c **** *
 981:Generated_Source\PSoC5/USBFS.c **** *******************************************************************************/
 982:Generated_Source\PSoC5/USBFS.c **** uint16 USBFS_GetEPCount(uint8 epNumber) 
 983:Generated_Source\PSoC5/USBFS.c **** {
 806              		.loc 1 983 0
 807              		.cfi_startproc
 808              		@ args = 0, pretend = 0, frame = 0
 809              		@ frame_needed = 0, uses_anonymous_args = 0
 810              		@ link register save eliminated.
 811              	.LVL55:
 984:Generated_Source\PSoC5/USBFS.c ****     uint16 cntr = 0u;
 985:Generated_Source\PSoC5/USBFS.c **** 
 986:Generated_Source\PSoC5/USBFS.c ****     if ((epNumber > USBFS_EP0) && (epNumber < USBFS_MAX_EP))
 812              		.loc 1 986 0
 813 0000 431E     		subs	r3, r0, #1
 814 0002 DBB2     		uxtb	r3, r3
 815 0004 072B     		cmp	r3, #7
 816 0006 0BD8     		bhi	.L50
 987:Generated_Source\PSoC5/USBFS.c ****     {
 988:Generated_Source\PSoC5/USBFS.c ****         /* Get 11-bits EP counter where epCnt0 - 3 bits MSB and epCnt1 - 8 bits LSB. */
 989:Generated_Source\PSoC5/USBFS.c ****         cntr  = ((uint16) USBFS_SIE_EP_BASE.sieEp[epNumber].epCnt0) & USBFS_EPX_CNT0_MASK;
 817              		.loc 1 989 0
 818 0008 064B     		ldr	r3, .L51
 819 000a 0001     		lsls	r0, r0, #4
 820              	.LVL56:
 821 000c 1A18     		adds	r2, r3, r0
 822 000e 185C     		ldrb	r0, [r3, r0]	@ zero_extendqisi2
 823 0010 00F00F00 		and	r0, r0, #15
 824              	.LVL57:
 990:Generated_Source\PSoC5/USBFS.c ****         cntr  = ((uint16) (cntr << 8u)) | ((uint16) USBFS_SIE_EP_BASE.sieEp[epNumber].epCnt1);
ARM GAS  C:\Users\bkettle\AppData\Local\Temp\cc8tpVDe.s 			page 33


 825              		.loc 1 990 0
 826 0014 5378     		ldrb	r3, [r2, #1]	@ zero_extendqisi2
 827 0016 43EA0020 		orr	r0, r3, r0, lsl #8
 828              	.LVL58:
 991:Generated_Source\PSoC5/USBFS.c ****         cntr -= USBFS_EPX_CNTX_CRC_COUNT;
 829              		.loc 1 991 0
 830 001a 0238     		subs	r0, r0, #2
 831              	.LVL59:
 832 001c 80B2     		uxth	r0, r0
 833              	.LVL60:
 834 001e 7047     		bx	lr
 835              	.LVL61:
 836              	.L50:
 984:Generated_Source\PSoC5/USBFS.c **** 
 837              		.loc 1 984 0
 838 0020 0020     		movs	r0, #0
 839              	.LVL62:
 992:Generated_Source\PSoC5/USBFS.c ****     }
 993:Generated_Source\PSoC5/USBFS.c **** 
 994:Generated_Source\PSoC5/USBFS.c ****     return (cntr);
 995:Generated_Source\PSoC5/USBFS.c **** }
 840              		.loc 1 995 0
 841 0022 7047     		bx	lr
 842              	.L52:
 843              		.align	2
 844              	.L51:
 845 0024 FC5F0040 		.word	1073766396
 846              		.cfi_endproc
 847              	.LFE10:
 848              		.size	USBFS_GetEPCount, .-USBFS_GetEPCount
 849              		.section	.text.USBFS_LoadInEP,"ax",%progbits
 850              		.align	2
 851              		.global	USBFS_LoadInEP
 852              		.thumb
 853              		.thumb_func
 854              		.type	USBFS_LoadInEP, %function
 855              	USBFS_LoadInEP:
 856              	.LFB11:
 996:Generated_Source\PSoC5/USBFS.c **** 
 997:Generated_Source\PSoC5/USBFS.c **** 
 998:Generated_Source\PSoC5/USBFS.c **** #if (USBFS_EP_MANAGEMENT_DMA)
 999:Generated_Source\PSoC5/USBFS.c **** #if (CY_PSOC4)
1000:Generated_Source\PSoC5/USBFS.c ****     /*******************************************************************************
1001:Generated_Source\PSoC5/USBFS.c ****     * Function Name: USBFS_InitEpDma
1002:Generated_Source\PSoC5/USBFS.c ****     ****************************************************************************//**
1003:Generated_Source\PSoC5/USBFS.c ****     *
1004:Generated_Source\PSoC5/USBFS.c ****     *  This function configures priority for all DMA channels utilized by the
1005:Generated_Source\PSoC5/USBFS.c ****     *  component. Also sets callbacks for DMA auto mode.
1006:Generated_Source\PSoC5/USBFS.c ****     *
1007:Generated_Source\PSoC5/USBFS.c ****     *******************************************************************************/
1008:Generated_Source\PSoC5/USBFS.c ****     static void USBFS_InitEpDma(void)
1009:Generated_Source\PSoC5/USBFS.c ****     {
1010:Generated_Source\PSoC5/USBFS.c ****     #if (USBFS_DMA1_ACTIVE)
1011:Generated_Source\PSoC5/USBFS.c ****         CYDMA_CH_CTL_BASE.ctl[USBFS_ep1_dma_CHANNEL] = USBFS_ep1_dma_CHANNEL_CFG;
1012:Generated_Source\PSoC5/USBFS.c ****     #endif /* (USBFS_DMA1_ACTIVE) */
1013:Generated_Source\PSoC5/USBFS.c **** 
1014:Generated_Source\PSoC5/USBFS.c ****     #if (USBFS_DMA2_ACTIVE)
ARM GAS  C:\Users\bkettle\AppData\Local\Temp\cc8tpVDe.s 			page 34


1015:Generated_Source\PSoC5/USBFS.c ****         CYDMA_CH_CTL_BASE.ctl[USBFS_ep2_dma_CHANNEL] = USBFS_ep2_dma_CHANNEL_CFG;
1016:Generated_Source\PSoC5/USBFS.c ****     #endif /* (USBFS_DMA2_ACTIVE) */
1017:Generated_Source\PSoC5/USBFS.c **** 
1018:Generated_Source\PSoC5/USBFS.c ****     #if (USBFS_DMA3_ACTIVE)
1019:Generated_Source\PSoC5/USBFS.c ****         CYDMA_CH_CTL_BASE.ctl[USBFS_ep3_dma_CHANNEL] = USBFS_ep3_dma_CHANNEL_CFG;
1020:Generated_Source\PSoC5/USBFS.c ****     #endif /* (USBFS_DMA3_ACTIVE) */
1021:Generated_Source\PSoC5/USBFS.c **** 
1022:Generated_Source\PSoC5/USBFS.c ****     #if (USBFS_DMA4_ACTIVE)
1023:Generated_Source\PSoC5/USBFS.c ****         CYDMA_CH_CTL_BASE.ctl[USBFS_ep4_dma_CHANNEL] = USBFS_ep4_dma_CHANNEL_CFG;
1024:Generated_Source\PSoC5/USBFS.c ****     #endif /* (USBFS_DMA4_ACTIVE) */
1025:Generated_Source\PSoC5/USBFS.c **** 
1026:Generated_Source\PSoC5/USBFS.c ****     #if (USBFS_DMA5_ACTIVE)
1027:Generated_Source\PSoC5/USBFS.c ****         CYDMA_CH_CTL_BASE.ctl[USBFS_ep5_dma_CHANNEL] = USBFS_ep5_dma_CHANNEL_CFG;
1028:Generated_Source\PSoC5/USBFS.c ****     #endif /* (USBFS_DMA5_ACTIVE) */
1029:Generated_Source\PSoC5/USBFS.c **** 
1030:Generated_Source\PSoC5/USBFS.c ****     #if (USBFS_DMA6_ACTIVE)
1031:Generated_Source\PSoC5/USBFS.c ****         CYDMA_CH_CTL_BASE.ctl[USBFS_ep6_dma_CHANNEL] = USBFS_ep6_dma_CHANNEL_CFG;
1032:Generated_Source\PSoC5/USBFS.c ****     #endif /* (USBFS_DMA6_ACTIVE) */
1033:Generated_Source\PSoC5/USBFS.c **** 
1034:Generated_Source\PSoC5/USBFS.c ****     #if (USBFS_DMA7_ACTIVE)
1035:Generated_Source\PSoC5/USBFS.c ****         CYDMA_CH_CTL_BASE.ctl[USBFS_ep7_dma_CHANNEL] = USBFS_ep7_dma_CHANNEL_CFG;
1036:Generated_Source\PSoC5/USBFS.c ****     #endif /* (USBFS_DMA7_ACTIVE) */
1037:Generated_Source\PSoC5/USBFS.c **** 
1038:Generated_Source\PSoC5/USBFS.c ****     #if (USBFS_DMA8_ACTIVE)
1039:Generated_Source\PSoC5/USBFS.c ****         CYDMA_CH_CTL_BASE.ctl[USBFS_ep8_dma_CHANNEL] = USBFS_ep8_dma_CHANNEL_CFG;
1040:Generated_Source\PSoC5/USBFS.c ****     #endif /* (USBFS_DMA8_ACTIVE) */
1041:Generated_Source\PSoC5/USBFS.c **** 
1042:Generated_Source\PSoC5/USBFS.c ****     #if (USBFS_EP_MANAGEMENT_DMA_AUTO)
1043:Generated_Source\PSoC5/USBFS.c ****         /* Initialize DMA channel callbacks. */
1044:Generated_Source\PSoC5/USBFS.c ****         #if (USBFS_DMA1_ACTIVE)
1045:Generated_Source\PSoC5/USBFS.c ****             (void) USBFS_ep1_dma_SetInterruptCallback(&USBFS_EP1_DMA_DONE_ISR);
1046:Generated_Source\PSoC5/USBFS.c ****         #endif /* (USBFS_DMA1_ACTIVE) */
1047:Generated_Source\PSoC5/USBFS.c **** 
1048:Generated_Source\PSoC5/USBFS.c ****         #if (USBFS_DMA2_ACTIVE)
1049:Generated_Source\PSoC5/USBFS.c ****             (void) USBFS_ep2_dma_SetInterruptCallback(&USBFS_EP2_DMA_DONE_ISR);
1050:Generated_Source\PSoC5/USBFS.c ****         #endif /* (USBFS_DMA2_ACTIVE) */
1051:Generated_Source\PSoC5/USBFS.c **** 
1052:Generated_Source\PSoC5/USBFS.c ****         #if (USBFS_DMA3_ACTIVE)
1053:Generated_Source\PSoC5/USBFS.c ****             (void) USBFS_ep3_dma_SetInterruptCallback(&USBFS_EP3_DMA_DONE_ISR);
1054:Generated_Source\PSoC5/USBFS.c ****         #endif /* (USBFS_DMA3_ACTIVE) */
1055:Generated_Source\PSoC5/USBFS.c **** 
1056:Generated_Source\PSoC5/USBFS.c ****         #if (USBFS_DMA4_ACTIVE)
1057:Generated_Source\PSoC5/USBFS.c ****             (void) USBFS_ep4_dma_SetInterruptCallback(&USBFS_EP4_DMA_DONE_ISR);
1058:Generated_Source\PSoC5/USBFS.c ****         #endif /* (USBFS_DMA4_ACTIVE) */
1059:Generated_Source\PSoC5/USBFS.c **** 
1060:Generated_Source\PSoC5/USBFS.c ****         #if (USBFS_DMA5_ACTIVE)
1061:Generated_Source\PSoC5/USBFS.c ****             (void) USBFS_ep5_dma_SetInterruptCallback(&USBFS_EP5_DMA_DONE_ISR);
1062:Generated_Source\PSoC5/USBFS.c ****         #endif /* (USBFS_DMA5_ACTIVE) */
1063:Generated_Source\PSoC5/USBFS.c **** 
1064:Generated_Source\PSoC5/USBFS.c ****         #if (USBFS_DMA6_ACTIVE)
1065:Generated_Source\PSoC5/USBFS.c ****             (void) USBFS_ep6_dma_SetInterruptCallback(&USBFS_EP6_DMA_DONE_ISR);
1066:Generated_Source\PSoC5/USBFS.c ****         #endif /* (USBFS_DMA6_ACTIVE) */
1067:Generated_Source\PSoC5/USBFS.c **** 
1068:Generated_Source\PSoC5/USBFS.c ****         #if (USBFS_DMA7_ACTIVE)
1069:Generated_Source\PSoC5/USBFS.c ****             (void) USBFS_ep7_dma_SetInterruptCallback(&USBFS_EP7_DMA_DONE_ISR);
1070:Generated_Source\PSoC5/USBFS.c ****         #endif /* (USBFS_DMA7_ACTIVE) */
1071:Generated_Source\PSoC5/USBFS.c **** 
ARM GAS  C:\Users\bkettle\AppData\Local\Temp\cc8tpVDe.s 			page 35


1072:Generated_Source\PSoC5/USBFS.c ****         #if (USBFS_DMA8_ACTIVE)
1073:Generated_Source\PSoC5/USBFS.c ****             (void) USBFS_ep8_dma_SetInterruptCallback(&USBFS_EP8_DMA_DONE_ISR);
1074:Generated_Source\PSoC5/USBFS.c ****         #endif /* (USBFS_DMA8_ACTIVE) */
1075:Generated_Source\PSoC5/USBFS.c ****     #endif /* (USBFS_EP_MANAGEMENT_DMA_AUTO) */
1076:Generated_Source\PSoC5/USBFS.c ****     }
1077:Generated_Source\PSoC5/USBFS.c **** #else
1078:Generated_Source\PSoC5/USBFS.c **** 
1079:Generated_Source\PSoC5/USBFS.c **** 
1080:Generated_Source\PSoC5/USBFS.c ****     /***************************************************************************
1081:Generated_Source\PSoC5/USBFS.c ****     * Function Name: USBFS_InitEP_DMA
1082:Generated_Source\PSoC5/USBFS.c ****     ************************************************************************//**
1083:Generated_Source\PSoC5/USBFS.c ****     *
1084:Generated_Source\PSoC5/USBFS.c ****     *  This function allocates and initializes a DMA channel to be used by the
1085:Generated_Source\PSoC5/USBFS.c ****     *  USBFS_LoadInEP() or USBFS_ReadOutEP() APIs for data
1086:Generated_Source\PSoC5/USBFS.c ****     *  transfer. It is available when the Endpoint Memory Management parameter
1087:Generated_Source\PSoC5/USBFS.c ****     *  is set to DMA.
1088:Generated_Source\PSoC5/USBFS.c ****     *
1089:Generated_Source\PSoC5/USBFS.c ****     *  This function is automatically called from the USBFS_LoadInEP() and USBFS_ReadOutEP() APIs.
1090:Generated_Source\PSoC5/USBFS.c ****     *
1091:Generated_Source\PSoC5/USBFS.c ****     *  \param epNumber Contains the data endpoint number.
1092:Generated_Source\PSoC5/USBFS.c ****     *            Valid values are between 1 and 8.
1093:Generated_Source\PSoC5/USBFS.c ****     *  \param *pData Pointer to a data array that is related to the EP transfers.
1094:Generated_Source\PSoC5/USBFS.c ****     *
1095:Generated_Source\PSoC5/USBFS.c ****     * \reentrant No.
1096:Generated_Source\PSoC5/USBFS.c ****     *
1097:Generated_Source\PSoC5/USBFS.c ****     ***************************************************************************/
1098:Generated_Source\PSoC5/USBFS.c ****     void USBFS_InitEP_DMA(uint8 epNumber, const uint8 *pData)
1099:Generated_Source\PSoC5/USBFS.c ****                                                                     
1100:Generated_Source\PSoC5/USBFS.c ****     {
1101:Generated_Source\PSoC5/USBFS.c ****         uint16 src;
1102:Generated_Source\PSoC5/USBFS.c ****         uint16 dst;
1103:Generated_Source\PSoC5/USBFS.c **** 
1104:Generated_Source\PSoC5/USBFS.c ****     #if (CY_PSOC3)
1105:Generated_Source\PSoC5/USBFS.c ****         src = HI16(CYDEV_SRAM_BASE);
1106:Generated_Source\PSoC5/USBFS.c ****         dst = HI16(CYDEV_PERIPH_BASE);
1107:Generated_Source\PSoC5/USBFS.c ****         pData = pData;
1108:Generated_Source\PSoC5/USBFS.c ****     #else
1109:Generated_Source\PSoC5/USBFS.c ****         if ((USBFS_EP[epNumber].addr & USBFS_DIR_IN) != 0u)
1110:Generated_Source\PSoC5/USBFS.c ****         {
1111:Generated_Source\PSoC5/USBFS.c ****             /* IN endpoint: source is memory buffer. */
1112:Generated_Source\PSoC5/USBFS.c ****             src = HI16(pData);
1113:Generated_Source\PSoC5/USBFS.c ****             dst = HI16(CYDEV_PERIPH_BASE);
1114:Generated_Source\PSoC5/USBFS.c ****         }
1115:Generated_Source\PSoC5/USBFS.c ****         else
1116:Generated_Source\PSoC5/USBFS.c ****         {
1117:Generated_Source\PSoC5/USBFS.c ****             /* OUT endpoint: source is USB IP memory buffer. */
1118:Generated_Source\PSoC5/USBFS.c ****             src = HI16(CYDEV_PERIPH_BASE);
1119:Generated_Source\PSoC5/USBFS.c ****             dst = HI16(pData);
1120:Generated_Source\PSoC5/USBFS.c ****         }
1121:Generated_Source\PSoC5/USBFS.c ****     #endif  /* (CY_PSOC3) */
1122:Generated_Source\PSoC5/USBFS.c **** 
1123:Generated_Source\PSoC5/USBFS.c ****         switch(epNumber)
1124:Generated_Source\PSoC5/USBFS.c ****         {
1125:Generated_Source\PSoC5/USBFS.c ****     #if (USBFS_DMA1_ACTIVE)
1126:Generated_Source\PSoC5/USBFS.c ****         case USBFS_EP1:
1127:Generated_Source\PSoC5/USBFS.c ****             USBFS_DmaChan[epNumber] = USBFS_ep1_DmaInitialize(USBFS_DMA_BYTES_PER_BURST,
1128:Generated_Source\PSoC5/USBFS.c ****                                                                                     USBFS_DMA_REQUE
ARM GAS  C:\Users\bkettle\AppData\Local\Temp\cc8tpVDe.s 			page 36


1129:Generated_Source\PSoC5/USBFS.c ****             break;
1130:Generated_Source\PSoC5/USBFS.c ****     #endif /* (USBFS_DMA1_ACTIVE) */
1131:Generated_Source\PSoC5/USBFS.c **** 
1132:Generated_Source\PSoC5/USBFS.c ****     #if (USBFS_DMA2_ACTIVE)
1133:Generated_Source\PSoC5/USBFS.c ****         case USBFS_EP2:
1134:Generated_Source\PSoC5/USBFS.c ****             USBFS_DmaChan[epNumber] = USBFS_ep2_DmaInitialize(USBFS_DMA_BYTES_PER_BURST,
1135:Generated_Source\PSoC5/USBFS.c ****                                                                                     USBFS_DMA_REQUE
1136:Generated_Source\PSoC5/USBFS.c ****             break;
1137:Generated_Source\PSoC5/USBFS.c ****     #endif /* (USBFS_DMA2_ACTIVE) */
1138:Generated_Source\PSoC5/USBFS.c **** 
1139:Generated_Source\PSoC5/USBFS.c ****     #if (USBFS_DMA3_ACTIVE)
1140:Generated_Source\PSoC5/USBFS.c ****             case USBFS_EP3:
1141:Generated_Source\PSoC5/USBFS.c ****                 USBFS_DmaChan[epNumber] = USBFS_ep3_DmaInitialize(USBFS_DMA_BYTES_PER_BURST,
1142:Generated_Source\PSoC5/USBFS.c ****                                                                                         USBFS_DMA_R
1143:Generated_Source\PSoC5/USBFS.c ****             break;
1144:Generated_Source\PSoC5/USBFS.c ****     #endif /* (USBFS_DMA3_ACTIVE) */
1145:Generated_Source\PSoC5/USBFS.c **** 
1146:Generated_Source\PSoC5/USBFS.c ****     #if (USBFS_DMA4_ACTIVE)
1147:Generated_Source\PSoC5/USBFS.c ****             case USBFS_EP4:
1148:Generated_Source\PSoC5/USBFS.c ****                 USBFS_DmaChan[epNumber] = USBFS_ep4_DmaInitialize(USBFS_DMA_BYTES_PER_BURST,
1149:Generated_Source\PSoC5/USBFS.c ****                                                                                         USBFS_DMA_R
1150:Generated_Source\PSoC5/USBFS.c ****             break;
1151:Generated_Source\PSoC5/USBFS.c ****     #endif /* (USBFS_DMA4_ACTIVE) */
1152:Generated_Source\PSoC5/USBFS.c **** 
1153:Generated_Source\PSoC5/USBFS.c ****     #if (USBFS_DMA5_ACTIVE)
1154:Generated_Source\PSoC5/USBFS.c ****             case USBFS_EP5:
1155:Generated_Source\PSoC5/USBFS.c ****                 USBFS_DmaChan[epNumber] = USBFS_ep5_DmaInitialize(USBFS_DMA_BYTES_PER_BURST,
1156:Generated_Source\PSoC5/USBFS.c ****                                                                                         USBFS_DMA_R
1157:Generated_Source\PSoC5/USBFS.c ****             break;
1158:Generated_Source\PSoC5/USBFS.c ****     #endif /* (USBFS_DMA5_ACTIVE) */
1159:Generated_Source\PSoC5/USBFS.c **** 
1160:Generated_Source\PSoC5/USBFS.c ****     #if (USBFS_DMA6_ACTIVE)
1161:Generated_Source\PSoC5/USBFS.c ****         case USBFS_EP6:
1162:Generated_Source\PSoC5/USBFS.c ****             USBFS_DmaChan[epNumber] = USBFS_ep6_DmaInitialize(USBFS_DMA_BYTES_PER_BURST,
1163:Generated_Source\PSoC5/USBFS.c ****                                                                                     USBFS_DMA_REQUE
1164:Generated_Source\PSoC5/USBFS.c ****             break;
1165:Generated_Source\PSoC5/USBFS.c ****     #endif /* (USBFS_DMA6_ACTIVE) */
1166:Generated_Source\PSoC5/USBFS.c **** 
1167:Generated_Source\PSoC5/USBFS.c ****     #if (USBFS_DMA7_ACTIVE)
1168:Generated_Source\PSoC5/USBFS.c ****         case USBFS_EP7:
1169:Generated_Source\PSoC5/USBFS.c ****                 USBFS_DmaChan[epNumber] = USBFS_ep7_DmaInitialize(USBFS_DMA_BYTES_PER_BURST,
1170:Generated_Source\PSoC5/USBFS.c ****                                                                                         USBFS_DMA_R
1171:Generated_Source\PSoC5/USBFS.c ****             break;
1172:Generated_Source\PSoC5/USBFS.c ****     #endif /* (USBFS_DMA7_ACTIVE) */
1173:Generated_Source\PSoC5/USBFS.c **** 
1174:Generated_Source\PSoC5/USBFS.c ****     #if (USBFS_DMA8_ACTIVE)
1175:Generated_Source\PSoC5/USBFS.c ****         case USBFS_EP8:
1176:Generated_Source\PSoC5/USBFS.c ****                 USBFS_DmaChan[epNumber] = USBFS_ep8_DmaInitialize(USBFS_DMA_BYTES_PER_BURST,
1177:Generated_Source\PSoC5/USBFS.c ****                                                                                         USBFS_DMA_R
1178:Generated_Source\PSoC5/USBFS.c ****             break;
1179:Generated_Source\PSoC5/USBFS.c ****     #endif /* (USBFS_DMA8_ACTIVE) */
1180:Generated_Source\PSoC5/USBFS.c **** 
1181:Generated_Source\PSoC5/USBFS.c ****         default:
1182:Generated_Source\PSoC5/USBFS.c ****             /* Do nothing for endpoints other than 1-8. */
1183:Generated_Source\PSoC5/USBFS.c ****             break;
1184:Generated_Source\PSoC5/USBFS.c ****         }
1185:Generated_Source\PSoC5/USBFS.c **** 
ARM GAS  C:\Users\bkettle\AppData\Local\Temp\cc8tpVDe.s 			page 37


1186:Generated_Source\PSoC5/USBFS.c ****         if ((epNumber > USBFS_EP0) && (epNumber < USBFS_MAX_EP))
1187:Generated_Source\PSoC5/USBFS.c ****         {
1188:Generated_Source\PSoC5/USBFS.c ****             USBFS_DmaTd[epNumber] = CyDmaTdAllocate();
1189:Generated_Source\PSoC5/USBFS.c **** 
1190:Generated_Source\PSoC5/USBFS.c ****         #if (USBFS_EP_MANAGEMENT_DMA_AUTO && (USBFS_EP_DMA_AUTO_OPT == 0u))
1191:Generated_Source\PSoC5/USBFS.c ****             USBFS_DmaNextTd[epNumber] = CyDmaTdAllocate();
1192:Generated_Source\PSoC5/USBFS.c ****         #endif /* (USBFS_EP_MANAGEMENT_DMA_AUTO && (USBFS_EP_DMA_AUTO_OPT == 0u)) */
1193:Generated_Source\PSoC5/USBFS.c ****         }
1194:Generated_Source\PSoC5/USBFS.c ****     }
1195:Generated_Source\PSoC5/USBFS.c **** #endif /* (CY_PSOC4) */
1196:Generated_Source\PSoC5/USBFS.c **** 
1197:Generated_Source\PSoC5/USBFS.c ****     /***************************************************************************
1198:Generated_Source\PSoC5/USBFS.c ****     * Function Name: USBFS_Stop_DMA
1199:Generated_Source\PSoC5/USBFS.c ****     ************************************************************************//**
1200:Generated_Source\PSoC5/USBFS.c ****     *  
1201:Generated_Source\PSoC5/USBFS.c ****     *  This function stops DMA channel associated with endpoint. It is available 
1202:Generated_Source\PSoC5/USBFS.c ****     *  when the Endpoint Buffer Management parameter is set to DMA. Call this 
1203:Generated_Source\PSoC5/USBFS.c ****     *  function when endpoint direction is changed from IN to OUT or vice versa 
1204:Generated_Source\PSoC5/USBFS.c ****     *  to trigger DMA re-configuration when USBFS_LoadInEP() or 
1205:Generated_Source\PSoC5/USBFS.c ****     *  USBFS_ReadOutEP() functions are called the first time. 
1206:Generated_Source\PSoC5/USBFS.c ****     *  
1207:Generated_Source\PSoC5/USBFS.c ****     *  \param epNumber: The data endpoint number for which associated DMA 
1208:Generated_Source\PSoC5/USBFS.c ****     *  channel is stopped. The range of valid values is between 1 and 8. To stop 
1209:Generated_Source\PSoC5/USBFS.c ****     *  all DMAs associated with endpoints call this function with 
1210:Generated_Source\PSoC5/USBFS.c ****     *  USBFS_MAX_EP argument.
1211:Generated_Source\PSoC5/USBFS.c ****     *
1212:Generated_Source\PSoC5/USBFS.c ****     * \reentrant
1213:Generated_Source\PSoC5/USBFS.c ****     *  No.
1214:Generated_Source\PSoC5/USBFS.c ****     *
1215:Generated_Source\PSoC5/USBFS.c ****     ***************************************************************************/
1216:Generated_Source\PSoC5/USBFS.c ****     void USBFS_Stop_DMA(uint8 epNumber) 
1217:Generated_Source\PSoC5/USBFS.c ****     {
1218:Generated_Source\PSoC5/USBFS.c ****         uint8 i;
1219:Generated_Source\PSoC5/USBFS.c **** 
1220:Generated_Source\PSoC5/USBFS.c ****         i = (epNumber < USBFS_MAX_EP) ? epNumber : USBFS_EP1;
1221:Generated_Source\PSoC5/USBFS.c **** 
1222:Generated_Source\PSoC5/USBFS.c ****         do
1223:Generated_Source\PSoC5/USBFS.c ****         {
1224:Generated_Source\PSoC5/USBFS.c ****         #if (CY_PSOC4)
1225:Generated_Source\PSoC5/USBFS.c ****             if (0u != USBFS_DmaChan[i])
1226:Generated_Source\PSoC5/USBFS.c ****             {
1227:Generated_Source\PSoC5/USBFS.c ****                 USBFS_CyDmaChDisable(USBFS_DmaChan[i]);
1228:Generated_Source\PSoC5/USBFS.c ****             }
1229:Generated_Source\PSoC5/USBFS.c ****         #else
1230:Generated_Source\PSoC5/USBFS.c ****             if(USBFS_DmaTd[i] != DMA_INVALID_TD)
1231:Generated_Source\PSoC5/USBFS.c ****             {
1232:Generated_Source\PSoC5/USBFS.c ****                 (void) CyDmaChDisable(USBFS_DmaChan[i]);
1233:Generated_Source\PSoC5/USBFS.c ****                 CyDmaTdFree(USBFS_DmaTd[i]);
1234:Generated_Source\PSoC5/USBFS.c ****                 USBFS_DmaTd[i] = DMA_INVALID_TD;
1235:Generated_Source\PSoC5/USBFS.c ****             }
1236:Generated_Source\PSoC5/USBFS.c **** 
1237:Generated_Source\PSoC5/USBFS.c ****             #if (USBFS_EP_MANAGEMENT_DMA_AUTO && (USBFS_EP_DMA_AUTO_OPT == 0u))
1238:Generated_Source\PSoC5/USBFS.c ****                 if(USBFS_DmaNextTd[i] != DMA_INVALID_TD)
1239:Generated_Source\PSoC5/USBFS.c ****                 {
1240:Generated_Source\PSoC5/USBFS.c ****                     CyDmaTdFree(USBFS_DmaNextTd[i]);
1241:Generated_Source\PSoC5/USBFS.c ****                     USBFS_DmaNextTd[i] = DMA_INVALID_TD;
1242:Generated_Source\PSoC5/USBFS.c ****                 }
ARM GAS  C:\Users\bkettle\AppData\Local\Temp\cc8tpVDe.s 			page 38


1243:Generated_Source\PSoC5/USBFS.c ****             #endif /* (USBFS_EP_MANAGEMENT_DMA_AUTO && (USBFS_EP_DMA_AUTO_OPT == 0u)) */
1244:Generated_Source\PSoC5/USBFS.c **** 
1245:Generated_Source\PSoC5/USBFS.c ****         #endif /* (CY_PSOC4) */
1246:Generated_Source\PSoC5/USBFS.c ****             i++;
1247:Generated_Source\PSoC5/USBFS.c ****         }
1248:Generated_Source\PSoC5/USBFS.c ****         while ((i < USBFS_MAX_EP) && (epNumber == USBFS_MAX_EP));
1249:Generated_Source\PSoC5/USBFS.c ****     }
1250:Generated_Source\PSoC5/USBFS.c **** #endif /* (USBFS_EP_MANAGEMENT_DMA) */
1251:Generated_Source\PSoC5/USBFS.c **** 
1252:Generated_Source\PSoC5/USBFS.c **** 
1253:Generated_Source\PSoC5/USBFS.c **** #if (CY_PSOC3 || CY_PSOC5)
1254:Generated_Source\PSoC5/USBFS.c **** #if (USBFS_EP_MANAGEMENT_DMA_AUTO && (USBFS_EP_DMA_AUTO_OPT == 0u))
1255:Generated_Source\PSoC5/USBFS.c ****     /***************************************************************************
1256:Generated_Source\PSoC5/USBFS.c ****     * Function Name: USBFS_LoadNextInEP
1257:Generated_Source\PSoC5/USBFS.c ****     ************************************************************************//**
1258:Generated_Source\PSoC5/USBFS.c ****     *
1259:Generated_Source\PSoC5/USBFS.c ****     * Summary:
1260:Generated_Source\PSoC5/USBFS.c ****     *  This internal function is used for IN endpoint DMA reconfiguration in
1261:Generated_Source\PSoC5/USBFS.c ****     *  Auto DMA mode.
1262:Generated_Source\PSoC5/USBFS.c ****     *
1263:Generated_Source\PSoC5/USBFS.c ****     * Parameters:
1264:Generated_Source\PSoC5/USBFS.c ****     *  epNumber: Contains the data endpoint number.
1265:Generated_Source\PSoC5/USBFS.c ****     *  mode:   0 - Configure DMA to send the the rest of data.
1266:Generated_Source\PSoC5/USBFS.c ****     *          1 - Configure DMA to repeat 2 last bytes of the first burst.
1267:Generated_Source\PSoC5/USBFS.c ****     *
1268:Generated_Source\PSoC5/USBFS.c ****     ***************************************************************************/
1269:Generated_Source\PSoC5/USBFS.c ****     void USBFS_LoadNextInEP(uint8 epNumber, uint8 mode) 
1270:Generated_Source\PSoC5/USBFS.c ****     {
1271:Generated_Source\PSoC5/USBFS.c ****         reg16 *convert;
1272:Generated_Source\PSoC5/USBFS.c **** 
1273:Generated_Source\PSoC5/USBFS.c ****         if (mode == 0u)
1274:Generated_Source\PSoC5/USBFS.c ****         {
1275:Generated_Source\PSoC5/USBFS.c ****             /* Configure DMA to send rest of data. */
1276:Generated_Source\PSoC5/USBFS.c ****             /* CyDmaTdSetConfiguration API is optimized to change transfer length only and configur
1277:Generated_Source\PSoC5/USBFS.c ****             convert = (reg16 *) &CY_DMA_TDMEM_STRUCT_PTR[USBFS_DmaTd[epNumber]].TD0[0u];
1278:Generated_Source\PSoC5/USBFS.c ****             /* Set transfer length. */
1279:Generated_Source\PSoC5/USBFS.c ****             CY_SET_REG16(convert, USBFS_inLength[epNumber] - USBFS_DMA_BYTES_PER_BURST);
1280:Generated_Source\PSoC5/USBFS.c ****             /* CyDmaTdSetAddress API is optimized to change source address only. */
1281:Generated_Source\PSoC5/USBFS.c ****             convert = (reg16 *) &CY_DMA_TDMEM_STRUCT_PTR[USBFS_DmaTd[epNumber]].TD1[0u];
1282:Generated_Source\PSoC5/USBFS.c ****             CY_SET_REG16(convert, LO16((uint32)USBFS_inDataPointer[epNumber] +
1283:Generated_Source\PSoC5/USBFS.c ****                                             USBFS_DMA_BYTES_PER_BURST));
1284:Generated_Source\PSoC5/USBFS.c ****             USBFS_inBufFull[epNumber] = 1u;
1285:Generated_Source\PSoC5/USBFS.c ****         }
1286:Generated_Source\PSoC5/USBFS.c ****         else
1287:Generated_Source\PSoC5/USBFS.c ****         {
1288:Generated_Source\PSoC5/USBFS.c ****             /* Configure DMA to repeat 2 last bytes of the first burst. */
1289:Generated_Source\PSoC5/USBFS.c ****             /* CyDmaTdSetConfiguration API is optimized to change transfer length only and configur
1290:Generated_Source\PSoC5/USBFS.c ****             convert = (reg16 *) &CY_DMA_TDMEM_STRUCT_PTR[USBFS_DmaTd[epNumber]].TD0[0u];
1291:Generated_Source\PSoC5/USBFS.c ****             /* Set transfer length. */
1292:Generated_Source\PSoC5/USBFS.c ****             CY_SET_REG16(convert, USBFS_DMA_BYTES_REPEAT);
1293:Generated_Source\PSoC5/USBFS.c ****             /* CyDmaTdSetAddress API is optimized to change source address only. */
1294:Generated_Source\PSoC5/USBFS.c ****             convert = (reg16 *) &CY_DMA_TDMEM_STRUCT_PTR[USBFS_DmaTd[epNumber]].TD1[0u];
1295:Generated_Source\PSoC5/USBFS.c ****             CY_SET_REG16(convert,  LO16((uint32)USBFS_inDataPointer[epNumber] +
1296:Generated_Source\PSoC5/USBFS.c ****                                    (USBFS_DMA_BYTES_PER_BURST - USBFS_DMA_BYTES_REPEAT)));
1297:Generated_Source\PSoC5/USBFS.c ****         }
1298:Generated_Source\PSoC5/USBFS.c **** 
1299:Generated_Source\PSoC5/USBFS.c ****         /* CyDmaChSetInitialTd API is optimized to initialize TD. */
ARM GAS  C:\Users\bkettle\AppData\Local\Temp\cc8tpVDe.s 			page 39


1300:Generated_Source\PSoC5/USBFS.c ****         CY_DMA_CH_STRUCT_PTR[USBFS_DmaChan[epNumber]].basic_status[1u] = USBFS_DmaTd[epNumber];
1301:Generated_Source\PSoC5/USBFS.c ****     }
1302:Generated_Source\PSoC5/USBFS.c **** #endif /* (USBFS_EP_MANAGEMENT_DMA_AUTO && (USBFS_EP_DMA_AUTO_OPT == 0u)) */
1303:Generated_Source\PSoC5/USBFS.c **** #endif /* (CY_PSOC3 || CY_PSOC5) */
1304:Generated_Source\PSoC5/USBFS.c **** 
1305:Generated_Source\PSoC5/USBFS.c **** 
1306:Generated_Source\PSoC5/USBFS.c **** /*******************************************************************************
1307:Generated_Source\PSoC5/USBFS.c **** * Function Name: USBFS_LoadInEP
1308:Generated_Source\PSoC5/USBFS.c **** ****************************************************************************//**
1309:Generated_Source\PSoC5/USBFS.c **** *
1310:Generated_Source\PSoC5/USBFS.c **** *  This function performs different functionality depending on the Component’s
1311:Generated_Source\PSoC5/USBFS.c **** *  configured Endpoint Buffer Management. This parameter is defined in
1312:Generated_Source\PSoC5/USBFS.c **** *  the Descriptor Root in Component Configure window.
1313:Generated_Source\PSoC5/USBFS.c **** *
1314:Generated_Source\PSoC5/USBFS.c **** *  *Manual (Static/Dynamic Allocation):*
1315:Generated_Source\PSoC5/USBFS.c **** *  This function loads and enables the specified USB data endpoint for an IN
1316:Generated_Source\PSoC5/USBFS.c **** *  data transfer.
1317:Generated_Source\PSoC5/USBFS.c **** *
1318:Generated_Source\PSoC5/USBFS.c **** *  *DMA with Manual Buffer Management:*
1319:Generated_Source\PSoC5/USBFS.c **** *  Configures DMA for a data transfer from system RAM to endpoint buffer.
1320:Generated_Source\PSoC5/USBFS.c **** *  Generates request for a transfer.
1321:Generated_Source\PSoC5/USBFS.c **** *
1322:Generated_Source\PSoC5/USBFS.c **** *  *DMA with Automatic Buffer Management:*
1323:Generated_Source\PSoC5/USBFS.c **** *  Configures DMA. This is required only once, so it is done only when parameter
1324:Generated_Source\PSoC5/USBFS.c **** *  pData is not NULL. When the pData pointer is NULL, the function skips this
1325:Generated_Source\PSoC5/USBFS.c **** *  task. Sets Data ready status: This generates the first DMA transfer and
1326:Generated_Source\PSoC5/USBFS.c **** *  prepares data in endpoint buffer.
1327:Generated_Source\PSoC5/USBFS.c **** *
1328:Generated_Source\PSoC5/USBFS.c **** *  \param epNumber Contains the data endpoint number.
1329:Generated_Source\PSoC5/USBFS.c **** *            Valid values are between 1 and 8.
1330:Generated_Source\PSoC5/USBFS.c **** *  \param *pData A pointer to a data array from which the data for the endpoint space
1331:Generated_Source\PSoC5/USBFS.c **** *          is loaded.
1332:Generated_Source\PSoC5/USBFS.c **** *  \param length The number of bytes to transfer from the array and then send as
1333:Generated_Source\PSoC5/USBFS.c **** *          a result of an IN request. Valid values are between 0 and 512
1334:Generated_Source\PSoC5/USBFS.c **** *          (1023 for DMA with Automatic Buffer Management mode). The value 512
1335:Generated_Source\PSoC5/USBFS.c **** *          is applicable if only one endpoint is used.
1336:Generated_Source\PSoC5/USBFS.c **** *
1337:Generated_Source\PSoC5/USBFS.c **** *
1338:Generated_Source\PSoC5/USBFS.c **** * \reentrant
1339:Generated_Source\PSoC5/USBFS.c **** *  No.
1340:Generated_Source\PSoC5/USBFS.c **** *
1341:Generated_Source\PSoC5/USBFS.c **** *******************************************************************************/
1342:Generated_Source\PSoC5/USBFS.c **** void USBFS_LoadInEP(uint8 epNumber, const uint8 pData[], uint16 length)
1343:Generated_Source\PSoC5/USBFS.c ****                                                                         
1344:Generated_Source\PSoC5/USBFS.c **** {
 857              		.loc 1 1344 0
 858              		.cfi_startproc
 859              		@ args = 0, pretend = 0, frame = 0
 860              		@ frame_needed = 0, uses_anonymous_args = 0
 861              		@ link register save eliminated.
 862              	.LVL63:
1345:Generated_Source\PSoC5/USBFS.c ****     if ((epNumber > USBFS_EP0) && (epNumber < USBFS_MAX_EP))
 863              		.loc 1 1345 0
 864 0000 431E     		subs	r3, r0, #1
 865 0002 DBB2     		uxtb	r3, r3
 866 0004 072B     		cmp	r3, #7
 867 0006 3CD8     		bhi	.L62
ARM GAS  C:\Users\bkettle\AppData\Local\Temp\cc8tpVDe.s 			page 40


1344:Generated_Source\PSoC5/USBFS.c ****     if ((epNumber > USBFS_EP0) && (epNumber < USBFS_MAX_EP))
 868              		.loc 1 1344 0
 869 0008 F0B4     		push	{r4, r5, r6, r7}
 870              		.cfi_def_cfa_offset 16
 871              		.cfi_offset 4, -16
 872              		.cfi_offset 5, -12
 873              		.cfi_offset 6, -8
 874              		.cfi_offset 7, -4
1346:Generated_Source\PSoC5/USBFS.c ****     {
1347:Generated_Source\PSoC5/USBFS.c ****     #if (!USBFS_EP_MANAGEMENT_DMA_AUTO)
1348:Generated_Source\PSoC5/USBFS.c ****         /* Limit length to available buffer USB IP buffer size.*/
1349:Generated_Source\PSoC5/USBFS.c ****         if (length > (USBFS_EPX_DATA_BUF_MAX - USBFS_EP[epNumber].buffOffset))
 875              		.loc 1 1349 0
 876 000a 0746     		mov	r7, r0
 877 000c 00EB4004 		add	r4, r0, r0, lsl #1
 878 0010 A300     		lsls	r3, r4, #2
 879 0012 1C4C     		ldr	r4, .L63
 880 0014 2344     		add	r3, r3, r4
 881 0016 DB88     		ldrh	r3, [r3, #6]
 882 0018 9BB2     		uxth	r3, r3
 883 001a C3F50073 		rsb	r3, r3, #512
 884 001e 9A42     		cmp	r2, r3
 885 0020 08D9     		bls	.L55
1350:Generated_Source\PSoC5/USBFS.c ****         {
1351:Generated_Source\PSoC5/USBFS.c ****             length = USBFS_EPX_DATA_BUF_MAX - USBFS_EP[epNumber].buffOffset;
 886              		.loc 1 1351 0
 887 0022 00EB4002 		add	r2, r0, r0, lsl #1
 888              	.LVL64:
 889 0026 9300     		lsls	r3, r2, #2
 890 0028 2344     		add	r3, r3, r4
 891 002a DA88     		ldrh	r2, [r3, #6]
 892 002c 92B2     		uxth	r2, r2
 893 002e C2F50072 		rsb	r2, r2, #512
 894 0032 92B2     		uxth	r2, r2
 895              	.LVL65:
 896              	.L55:
1352:Generated_Source\PSoC5/USBFS.c ****         }
1353:Generated_Source\PSoC5/USBFS.c ****     #endif /* (!USBFS_EP_MANAGEMENT_DMA_AUTO) */
1354:Generated_Source\PSoC5/USBFS.c **** 
1355:Generated_Source\PSoC5/USBFS.c ****         /* Set count and data toggle. */
1356:Generated_Source\PSoC5/USBFS.c ****         USBFS_SIE_EP_BASE.sieEp[epNumber].epCnt0 = (uint8) HI8(length) | USBFS_EP[epNumber].epToggl
 897              		.loc 1 1356 0
 898 0034 00EB4004 		add	r4, r0, r0, lsl #1
 899 0038 A300     		lsls	r3, r4, #2
 900 003a 124C     		ldr	r4, .L63
 901 003c 2344     		add	r3, r3, r4
 902 003e DB78     		ldrb	r3, [r3, #3]	@ zero_extendqisi2
 903 0040 43EA1223 		orr	r3, r3, r2, lsr #8
 904 0044 104D     		ldr	r5, .L63+4
 905 0046 0401     		lsls	r4, r0, #4
 906 0048 2E19     		adds	r6, r5, r4
 907 004a 2B55     		strb	r3, [r5, r4]
1357:Generated_Source\PSoC5/USBFS.c ****         USBFS_SIE_EP_BASE.sieEp[epNumber].epCnt1 = (uint8) LO8(length);
 908              		.loc 1 1357 0
 909 004c D3B2     		uxtb	r3, r2
 910 004e 7370     		strb	r3, [r6, #1]
1358:Generated_Source\PSoC5/USBFS.c **** 
ARM GAS  C:\Users\bkettle\AppData\Local\Temp\cc8tpVDe.s 			page 41


1359:Generated_Source\PSoC5/USBFS.c ****     #if (USBFS_EP_MANAGEMENT_MANUAL)
1360:Generated_Source\PSoC5/USBFS.c ****         if (NULL != pData)
 911              		.loc 1 1360 0
 912 0050 39B9     		cbnz	r1, .L59
 913              	.LBB2:
 914 0052 09E0     		b	.L57
 915              	.LVL66:
 916              	.L58:
1361:Generated_Source\PSoC5/USBFS.c ****         {
1362:Generated_Source\PSoC5/USBFS.c **** 			/* Copy data using arbiter data register. */
1363:Generated_Source\PSoC5/USBFS.c ****             uint16 i;
1364:Generated_Source\PSoC5/USBFS.c ****             for (i = 0u; i < length; ++i)
1365:Generated_Source\PSoC5/USBFS.c ****             {
1366:Generated_Source\PSoC5/USBFS.c ****                 USBFS_ARB_EP_BASE.arbEp[epNumber].rwDr = pData[i];
 917              		.loc 1 1366 0 discriminator 3
 918 0054 CE5C     		ldrb	r6, [r1, r3]	@ zero_extendqisi2
 919 0056 3D01     		lsls	r5, r7, #4
 920 0058 0C4C     		ldr	r4, .L63+8
 921 005a 6655     		strb	r6, [r4, r5]
1364:Generated_Source\PSoC5/USBFS.c ****             {
 922              		.loc 1 1364 0 discriminator 3
 923 005c 0133     		adds	r3, r3, #1
 924              	.LVL67:
 925 005e 9BB2     		uxth	r3, r3
 926              	.LVL68:
 927 0060 00E0     		b	.L56
 928              	.LVL69:
 929              	.L59:
 930              	.LBE2:
 931 0062 0023     		movs	r3, #0
 932              	.L56:
 933              	.LVL70:
 934              	.LBB3:
1364:Generated_Source\PSoC5/USBFS.c ****             {
 935              		.loc 1 1364 0 is_stmt 0 discriminator 1
 936 0064 9A42     		cmp	r2, r3
 937 0066 F5D8     		bhi	.L58
 938              	.LVL71:
 939              	.L57:
 940              	.LBE3:
1367:Generated_Source\PSoC5/USBFS.c ****             }
1368:Generated_Source\PSoC5/USBFS.c ****         }
1369:Generated_Source\PSoC5/USBFS.c **** 
1370:Generated_Source\PSoC5/USBFS.c ****         /* IN endpoint buffer is full - read to be read. */
1371:Generated_Source\PSoC5/USBFS.c ****         USBFS_EP[epNumber].apiEpState = USBFS_NO_EVENT_PENDING;
 941              		.loc 1 1371 0 is_stmt 1
 942 0068 4200     		lsls	r2, r0, #1
 943              	.LVL72:
 944 006a 0244     		add	r2, r2, r0
 945 006c 9300     		lsls	r3, r2, #2
 946 006e 054A     		ldr	r2, .L63
 947 0070 1344     		add	r3, r3, r2
 948 0072 0022     		movs	r2, #0
 949 0074 5A70     		strb	r2, [r3, #1]
1372:Generated_Source\PSoC5/USBFS.c **** 
1373:Generated_Source\PSoC5/USBFS.c ****         /* Arm IN endpoint. */
1374:Generated_Source\PSoC5/USBFS.c ****         USBFS_SIE_EP_BASE.sieEp[epNumber].epCr0 = USBFS_EP[epNumber].epMode;
ARM GAS  C:\Users\bkettle\AppData\Local\Temp\cc8tpVDe.s 			page 42


 950              		.loc 1 1374 0
 951 0076 5A79     		ldrb	r2, [r3, #5]	@ zero_extendqisi2
 952 0078 D2B2     		uxtb	r2, r2
 953 007a 0001     		lsls	r0, r0, #4
 954              	.LVL73:
 955 007c 044B     		ldr	r3, .L63+12
 956 007e 1A54     		strb	r2, [r3, r0]
1375:Generated_Source\PSoC5/USBFS.c **** 
1376:Generated_Source\PSoC5/USBFS.c ****     #else
1377:Generated_Source\PSoC5/USBFS.c **** 
1378:Generated_Source\PSoC5/USBFS.c ****         #if (CY_PSOC3 || CY_PSOC5LP)
1379:Generated_Source\PSoC5/USBFS.c ****             /* Initialize DMA if it was not initialized. */
1380:Generated_Source\PSoC5/USBFS.c ****             if (DMA_INVALID_TD == USBFS_DmaTd[epNumber])
1381:Generated_Source\PSoC5/USBFS.c ****             {
1382:Generated_Source\PSoC5/USBFS.c ****                 USBFS_InitEP_DMA(epNumber, pData);
1383:Generated_Source\PSoC5/USBFS.c ****             }
1384:Generated_Source\PSoC5/USBFS.c ****         #endif /* (CY_PSOC3 || CY_PSOC5LP) */
1385:Generated_Source\PSoC5/USBFS.c **** 
1386:Generated_Source\PSoC5/USBFS.c ****         #if (USBFS_EP_MANAGEMENT_DMA_MANUAL)
1387:Generated_Source\PSoC5/USBFS.c ****             /* IN endpoint buffer will be fully loaded by DMA shortly. */
1388:Generated_Source\PSoC5/USBFS.c ****             USBFS_EP[epNumber].apiEpState = USBFS_NO_EVENT_PENDING;
1389:Generated_Source\PSoC5/USBFS.c **** 
1390:Generated_Source\PSoC5/USBFS.c ****             if ((pData != NULL) && (length > 0u))
1391:Generated_Source\PSoC5/USBFS.c ****             {
1392:Generated_Source\PSoC5/USBFS.c ****             #if (CY_PSOC4)
1393:Generated_Source\PSoC5/USBFS.c ****                 uint32 channelNum = (uint32) USBFS_DmaChan[epNumber];
1394:Generated_Source\PSoC5/USBFS.c **** 
1395:Generated_Source\PSoC5/USBFS.c ****                 /* Disable DMA channel: start configuration. */
1396:Generated_Source\PSoC5/USBFS.c ****                 USBFS_CyDmaChDisable(channelNum);
1397:Generated_Source\PSoC5/USBFS.c **** 
1398:Generated_Source\PSoC5/USBFS.c ****                 /* Configure source and destination. */
1399:Generated_Source\PSoC5/USBFS.c ****                 USBFS_CyDmaSetSrcAddress(channelNum, USBFS_DMA_DESCR0, (void*) pData);
1400:Generated_Source\PSoC5/USBFS.c ****                 USBFS_CyDmaSetDstAddress(channelNum, USBFS_DMA_DESCR0, (void*) &USBFS_ARB_EP_BASE.a
1401:Generated_Source\PSoC5/USBFS.c **** 
1402:Generated_Source\PSoC5/USBFS.c ****                 /* Configure DMA descriptor. */
1403:Generated_Source\PSoC5/USBFS.c ****                 --length;
1404:Generated_Source\PSoC5/USBFS.c ****                 USBFS_CyDmaSetConfiguration(channelNum, USBFS_DMA_DESCR0, USBFS_DMA_COMMON_CFG | le
1405:Generated_Source\PSoC5/USBFS.c ****                                                         CYDMA_BYTE | CYDMA_ELEMENT_WORD | CYDMA_INC
1406:Generated_Source\PSoC5/USBFS.c **** 
1407:Generated_Source\PSoC5/USBFS.c ****                 /* Validate descriptor to execute on following DMA request. */
1408:Generated_Source\PSoC5/USBFS.c ****                 USBFS_CyDmaValidateDescriptor(channelNum, USBFS_DMA_DESCR0);
1409:Generated_Source\PSoC5/USBFS.c **** 
1410:Generated_Source\PSoC5/USBFS.c ****                 /* Enable DMA channel: configuration complete. */
1411:Generated_Source\PSoC5/USBFS.c ****                 USBFS_CyDmaChEnable(channelNum);
1412:Generated_Source\PSoC5/USBFS.c ****             #else
1413:Generated_Source\PSoC5/USBFS.c ****                 /* Configure DMA to transfer data. */
1414:Generated_Source\PSoC5/USBFS.c ****                 (void) CyDmaChDisable(USBFS_DmaChan[epNumber]);
1415:Generated_Source\PSoC5/USBFS.c ****                 (void) CyDmaTdSetConfiguration(USBFS_DmaTd[epNumber], length, CY_DMA_DISABLE_TD, TD
1416:Generated_Source\PSoC5/USBFS.c ****                 (void) CyDmaTdSetAddress(USBFS_DmaTd[epNumber], LO16((uint32) pData), LO16((uint32)
1417:Generated_Source\PSoC5/USBFS.c **** 
1418:Generated_Source\PSoC5/USBFS.c ****                 /* Enable DMA channel. */
1419:Generated_Source\PSoC5/USBFS.c ****                 (void) CyDmaChSetInitialTd(USBFS_DmaChan[epNumber], USBFS_DmaTd[epNumber]);
1420:Generated_Source\PSoC5/USBFS.c ****                 (void) CyDmaChEnable(USBFS_DmaChan[epNumber], 1u);
1421:Generated_Source\PSoC5/USBFS.c ****             #endif /* (CY_PSOC4) */
1422:Generated_Source\PSoC5/USBFS.c **** 
1423:Generated_Source\PSoC5/USBFS.c ****                 /* Generate DMA request. */
1424:Generated_Source\PSoC5/USBFS.c ****                 USBFS_ARB_EP_BASE.arbEp[epNumber].epCfg |=  (uint8)  USBFS_ARB_EPX_CFG_DMA_REQ;
ARM GAS  C:\Users\bkettle\AppData\Local\Temp\cc8tpVDe.s 			page 43


1425:Generated_Source\PSoC5/USBFS.c ****                 USBFS_ARB_EP_BASE.arbEp[epNumber].epCfg &=  (uint8) ~USBFS_ARB_EPX_CFG_DMA_REQ;
1426:Generated_Source\PSoC5/USBFS.c **** 
1427:Generated_Source\PSoC5/USBFS.c ****                 /* IN endpoint will be armed in ARB_ISR(source: IN_BUF_FULL) after first DMA transf
1428:Generated_Source\PSoC5/USBFS.c ****             }
1429:Generated_Source\PSoC5/USBFS.c ****             else
1430:Generated_Source\PSoC5/USBFS.c ****             {
1431:Generated_Source\PSoC5/USBFS.c ****                 /* When zero-length packet: arm IN endpoint directly. */
1432:Generated_Source\PSoC5/USBFS.c ****                 USBFS_SIE_EP_BASE.sieEp[epNumber].epCr0 = USBFS_EP[epNumber].epMode;
1433:Generated_Source\PSoC5/USBFS.c ****             }
1434:Generated_Source\PSoC5/USBFS.c ****         #endif /* (USBFS_EP_MANAGEMENT_DMA_MANUAL) */
1435:Generated_Source\PSoC5/USBFS.c **** 
1436:Generated_Source\PSoC5/USBFS.c ****         #if (USBFS_EP_MANAGEMENT_DMA_AUTO)
1437:Generated_Source\PSoC5/USBFS.c ****             if (pData != NULL)
1438:Generated_Source\PSoC5/USBFS.c ****             {
1439:Generated_Source\PSoC5/USBFS.c ****             #if (CY_PSOC4)
1440:Generated_Source\PSoC5/USBFS.c ****                 uint32 channelNum = (uint32) USBFS_DmaChan[epNumber];
1441:Generated_Source\PSoC5/USBFS.c **** 
1442:Generated_Source\PSoC5/USBFS.c ****                 /* Store address of buffer. */
1443:Generated_Source\PSoC5/USBFS.c ****                 USBFS_DmaEpBufferAddrBackup[epNumber] = (uint32) pData;
1444:Generated_Source\PSoC5/USBFS.c **** 
1445:Generated_Source\PSoC5/USBFS.c ****                 /* Disable DMA channel: start configuration. */
1446:Generated_Source\PSoC5/USBFS.c ****                 USBFS_CyDmaChDisable(channelNum);
1447:Generated_Source\PSoC5/USBFS.c **** 
1448:Generated_Source\PSoC5/USBFS.c ****                 /* Set destination address. */
1449:Generated_Source\PSoC5/USBFS.c ****                 USBFS_CyDmaSetDstAddress(channelNum, USBFS_DMA_DESCR0, (void*) &USBFS_ARB_EP_BASE.a
1450:Generated_Source\PSoC5/USBFS.c ****                 USBFS_CyDmaSetDstAddress(channelNum, USBFS_DMA_DESCR1, (void*) &USBFS_ARB_EP_BASE.a
1451:Generated_Source\PSoC5/USBFS.c **** 
1452:Generated_Source\PSoC5/USBFS.c ****                 /* Configure DMA descriptor. */
1453:Generated_Source\PSoC5/USBFS.c ****                 USBFS_CyDmaSetConfiguration(channelNum, USBFS_DMA_DESCR0, USBFS_DMA_COMMON_CFG  |
1454:Generated_Source\PSoC5/USBFS.c ****                                                         CYDMA_BYTE | CYDMA_ELEMENT_WORD | CYDMA_INC
1455:Generated_Source\PSoC5/USBFS.c **** 
1456:Generated_Source\PSoC5/USBFS.c ****                 /* Configure DMA descriptor. */
1457:Generated_Source\PSoC5/USBFS.c ****                 USBFS_CyDmaSetConfiguration(channelNum, USBFS_DMA_DESCR1, USBFS_DMA_COMMON_CFG  |
1458:Generated_Source\PSoC5/USBFS.c ****                                                         CYDMA_BYTE | CYDMA_ELEMENT_WORD | CYDMA_INC
1459:Generated_Source\PSoC5/USBFS.c **** 
1460:Generated_Source\PSoC5/USBFS.c ****                 /* Enable interrupt from DMA channel. */
1461:Generated_Source\PSoC5/USBFS.c ****                 USBFS_CyDmaSetInterruptMask(channelNum);
1462:Generated_Source\PSoC5/USBFS.c **** 
1463:Generated_Source\PSoC5/USBFS.c **** 
1464:Generated_Source\PSoC5/USBFS.c ****                 /* Enable DMA channel: configuration complete. */
1465:Generated_Source\PSoC5/USBFS.c ****                 USBFS_CyDmaChEnable(channelNum);
1466:Generated_Source\PSoC5/USBFS.c **** 
1467:Generated_Source\PSoC5/USBFS.c ****             #else
1468:Generated_Source\PSoC5/USBFS.c ****                 (void) CyDmaChDisable(USBFS_DmaChan[epNumber]);
1469:Generated_Source\PSoC5/USBFS.c **** 
1470:Generated_Source\PSoC5/USBFS.c ****                 #if (USBFS_EP_DMA_AUTO_OPT == 0u)
1471:Generated_Source\PSoC5/USBFS.c ****                     USBFS_inLength[epNumber] = length;
1472:Generated_Source\PSoC5/USBFS.c ****                     USBFS_inDataPointer[epNumber] = pData;
1473:Generated_Source\PSoC5/USBFS.c **** 
1474:Generated_Source\PSoC5/USBFS.c ****                     /* Configure DMA to send data only for first burst */
1475:Generated_Source\PSoC5/USBFS.c ****                     (void) CyDmaTdSetConfiguration(USBFS_DmaTd[epNumber],
1476:Generated_Source\PSoC5/USBFS.c ****                         (length > USBFS_DMA_BYTES_PER_BURST) ? USBFS_DMA_BYTES_PER_BURST : length,
1477:Generated_Source\PSoC5/USBFS.c ****                         USBFS_DmaNextTd[epNumber], TD_TERMIN_EN | TD_INC_SRC_ADR);
1478:Generated_Source\PSoC5/USBFS.c ****                     (void) CyDmaTdSetAddress(USBFS_DmaTd[epNumber], LO16((uint32) pData),
1479:Generated_Source\PSoC5/USBFS.c ****                                                                                LO16((uint32) &USBFS
1480:Generated_Source\PSoC5/USBFS.c **** 
1481:Generated_Source\PSoC5/USBFS.c ****                     /* The second TD will be executed only when the first one fails.
ARM GAS  C:\Users\bkettle\AppData\Local\Temp\cc8tpVDe.s 			page 44


1482:Generated_Source\PSoC5/USBFS.c ****                     *  The intention of this TD is to generate NRQ interrupt
1483:Generated_Source\PSoC5/USBFS.c ****                     *  and repeat 2 last bytes of the first burst.
1484:Generated_Source\PSoC5/USBFS.c ****                     */
1485:Generated_Source\PSoC5/USBFS.c ****                     (void) CyDmaTdSetConfiguration(USBFS_DmaNextTd[epNumber], 1u,
1486:Generated_Source\PSoC5/USBFS.c ****                                                    USBFS_DmaNextTd[epNumber],
1487:Generated_Source\PSoC5/USBFS.c ****                                                    USBFS_epX_TD_TERMOUT_EN[epNumber]);
1488:Generated_Source\PSoC5/USBFS.c **** 
1489:Generated_Source\PSoC5/USBFS.c ****                     /* Configure DmaNextTd to clear Data Ready status. */
1490:Generated_Source\PSoC5/USBFS.c ****                     (void) CyDmaTdSetAddress(USBFS_DmaNextTd[epNumber], LO16((uint32) &clearInDataR
1491:Generated_Source\PSoC5/USBFS.c ****                                                                                    LO16((uint32) &U
1492:Generated_Source\PSoC5/USBFS.c ****                 #else
1493:Generated_Source\PSoC5/USBFS.c ****                     /* Configure DMA to send all data. */
1494:Generated_Source\PSoC5/USBFS.c ****                     (void) CyDmaTdSetConfiguration(USBFS_DmaTd[epNumber], length,
1495:Generated_Source\PSoC5/USBFS.c ****                                                    USBFS_DmaTd[epNumber], TD_TERMIN_EN | TD_INC_SRC
1496:Generated_Source\PSoC5/USBFS.c ****                     (void) CyDmaTdSetAddress(USBFS_DmaTd[epNumber], LO16((uint32) pData),
1497:Generated_Source\PSoC5/USBFS.c ****                                                                                LO16((uint32) &USBFS
1498:Generated_Source\PSoC5/USBFS.c ****                 #endif /* (USBFS_EP_DMA_AUTO_OPT == 0u) */
1499:Generated_Source\PSoC5/USBFS.c **** 
1500:Generated_Source\PSoC5/USBFS.c ****                 /* Clear any potential pending DMA requests before starting DMA channel to transfer
1501:Generated_Source\PSoC5/USBFS.c ****                 (void) CyDmaClearPendingDrq(USBFS_DmaChan[epNumber]);
1502:Generated_Source\PSoC5/USBFS.c ****                 /* Enable DMA. */
1503:Generated_Source\PSoC5/USBFS.c ****                 (void) CyDmaChSetInitialTd(USBFS_DmaChan[epNumber], USBFS_DmaTd[epNumber]);
1504:Generated_Source\PSoC5/USBFS.c ****                 (void) CyDmaChEnable(USBFS_DmaChan[epNumber], 1u);
1505:Generated_Source\PSoC5/USBFS.c ****             #endif /* (CY_PSOC4) */
1506:Generated_Source\PSoC5/USBFS.c ****             }
1507:Generated_Source\PSoC5/USBFS.c ****             else
1508:Generated_Source\PSoC5/USBFS.c ****             {
1509:Generated_Source\PSoC5/USBFS.c ****                 /* IN endpoint buffer (32 bytes) will shortly be preloaded by DMA. */
1510:Generated_Source\PSoC5/USBFS.c ****                 USBFS_EP[epNumber].apiEpState = USBFS_NO_EVENT_PENDING;
1511:Generated_Source\PSoC5/USBFS.c **** 
1512:Generated_Source\PSoC5/USBFS.c ****                 if (length > 0u)
1513:Generated_Source\PSoC5/USBFS.c ****                 {
1514:Generated_Source\PSoC5/USBFS.c ****                 #if (CY_PSOC4)
1515:Generated_Source\PSoC5/USBFS.c ****                     uint32 lengthDescr0, lengthDescr1;
1516:Generated_Source\PSoC5/USBFS.c ****                     uint32 channelNum = (uint32) USBFS_DmaChan[epNumber];
1517:Generated_Source\PSoC5/USBFS.c **** 
1518:Generated_Source\PSoC5/USBFS.c ****                     /* Get number of full bursts. */
1519:Generated_Source\PSoC5/USBFS.c ****                     USBFS_DmaEpBurstCnt[epNumber] = (uint8) (length / USBFS_DMA_BYTES_PER_BURST);
1520:Generated_Source\PSoC5/USBFS.c **** 
1521:Generated_Source\PSoC5/USBFS.c ****                     /* Get number of elements in the last burst. */
1522:Generated_Source\PSoC5/USBFS.c ****                     USBFS_DmaEpLastBurstEl[epNumber] = (uint8) (length % USBFS_DMA_BYTES_PER_BURST)
1523:Generated_Source\PSoC5/USBFS.c **** 
1524:Generated_Source\PSoC5/USBFS.c ****                     /* Get total number of bursts. */
1525:Generated_Source\PSoC5/USBFS.c ****                     USBFS_DmaEpBurstCnt[epNumber] += (0u != USBFS_DmaEpLastBurstEl[epNumber]) ? 1u 
1526:Generated_Source\PSoC5/USBFS.c **** 
1527:Generated_Source\PSoC5/USBFS.c ****                     /* Adjust number of data elements transferred in last burst. */
1528:Generated_Source\PSoC5/USBFS.c ****                     USBFS_DmaEpLastBurstEl[epNumber] = (0u != USBFS_DmaEpLastBurstEl[epNumber]) ?
1529:Generated_Source\PSoC5/USBFS.c ****                                                                           (USBFS_DmaEpLastBurstEl[e
1530:Generated_Source\PSoC5/USBFS.c ****                                                                           (USBFS_DMA_BYTES_PER_BURS
1531:Generated_Source\PSoC5/USBFS.c **** 
1532:Generated_Source\PSoC5/USBFS.c ****                     /* Get number of data elements to transfer for descriptor 0 and 1. */
1533:Generated_Source\PSoC5/USBFS.c ****                     lengthDescr0 = (1u == USBFS_DmaEpBurstCnt[epNumber]) ? USBFS_DmaEpLastBurstEl[e
1534:Generated_Source\PSoC5/USBFS.c ****                     lengthDescr1 = (2u == USBFS_DmaEpBurstCnt[epNumber]) ? USBFS_DmaEpLastBurstEl[e
1535:Generated_Source\PSoC5/USBFS.c **** 
1536:Generated_Source\PSoC5/USBFS.c **** 
1537:Generated_Source\PSoC5/USBFS.c ****                     /* Mark which descriptor is last one to execute. */
1538:Generated_Source\PSoC5/USBFS.c ****                     USBFS_DmaEpLastBurstEl[epNumber] |= (0u != (USBFS_DmaEpBurstCnt[epNumber] & 0x1
ARM GAS  C:\Users\bkettle\AppData\Local\Temp\cc8tpVDe.s 			page 45


1539:Generated_Source\PSoC5/USBFS.c ****                                                                             USBFS_DMA_DESCR0_MASK :
1540:Generated_Source\PSoC5/USBFS.c **** 
1541:Generated_Source\PSoC5/USBFS.c ****                     /* Restore DMA settings for current transfer. */
1542:Generated_Source\PSoC5/USBFS.c ****                     USBFS_CyDmaChDisable(channelNum);
1543:Generated_Source\PSoC5/USBFS.c **** 
1544:Generated_Source\PSoC5/USBFS.c ****                     /* Restore destination address for input endpoint. */
1545:Generated_Source\PSoC5/USBFS.c ****                     USBFS_CyDmaSetSrcAddress(channelNum, USBFS_DMA_DESCR0, (void*) ((uint32) USBFS_
1546:Generated_Source\PSoC5/USBFS.c ****                     USBFS_CyDmaSetSrcAddress(channelNum, USBFS_DMA_DESCR1, (void*) ((uint32) USBFS_
1547:Generated_Source\PSoC5/USBFS.c ****                                                                                                    
1548:Generated_Source\PSoC5/USBFS.c **** 
1549:Generated_Source\PSoC5/USBFS.c ****                     /* Set number of elements to transfer. */
1550:Generated_Source\PSoC5/USBFS.c ****                     USBFS_CyDmaSetNumDataElements(channelNum, USBFS_DMA_DESCR0, lengthDescr0);
1551:Generated_Source\PSoC5/USBFS.c ****                     USBFS_CyDmaSetNumDataElements(channelNum, USBFS_DMA_DESCR1, lengthDescr1);
1552:Generated_Source\PSoC5/USBFS.c **** 
1553:Generated_Source\PSoC5/USBFS.c ****                     /* Validate descriptor 0 and command to start with it. */
1554:Generated_Source\PSoC5/USBFS.c ****                     USBFS_CyDmaValidateDescriptor(channelNum, USBFS_DMA_DESCR0);
1555:Generated_Source\PSoC5/USBFS.c ****                     USBFS_CyDmaSetDescriptor0Next(channelNum);
1556:Generated_Source\PSoC5/USBFS.c **** 
1557:Generated_Source\PSoC5/USBFS.c ****                     /* Validate descriptor 1. */
1558:Generated_Source\PSoC5/USBFS.c ****                     if (USBFS_DmaEpBurstCnt[epNumber] > 1u)
1559:Generated_Source\PSoC5/USBFS.c ****                     {
1560:Generated_Source\PSoC5/USBFS.c ****                         USBFS_CyDmaValidateDescriptor(channelNum, USBFS_DMA_DESCR1); 
1561:Generated_Source\PSoC5/USBFS.c ****                     }                   
1562:Generated_Source\PSoC5/USBFS.c **** 
1563:Generated_Source\PSoC5/USBFS.c ****                     /* Adjust burst counter taking to account: 2 valid descriptors and interrupt tr
1564:Generated_Source\PSoC5/USBFS.c ****                     USBFS_DmaEpBurstCnt[epNumber] = USBFS_DMA_GET_BURST_CNT(USBFS_DmaEpBurstCnt[epN
1565:Generated_Source\PSoC5/USBFS.c **** 
1566:Generated_Source\PSoC5/USBFS.c ****                     /* Enable DMA channel: configuration complete. */
1567:Generated_Source\PSoC5/USBFS.c ****                     USBFS_CyDmaChEnable(channelNum);
1568:Generated_Source\PSoC5/USBFS.c **** 
1569:Generated_Source\PSoC5/USBFS.c ****                 #elif (USBFS_EP_DMA_AUTO_OPT == 0u)
1570:Generated_Source\PSoC5/USBFS.c ****                     USBFS_inLength[epNumber]  = length;
1571:Generated_Source\PSoC5/USBFS.c ****                     USBFS_inBufFull[epNumber] = 0u;
1572:Generated_Source\PSoC5/USBFS.c **** 
1573:Generated_Source\PSoC5/USBFS.c ****                     (void) CyDmaChDisable(USBFS_DmaChan[epNumber]);
1574:Generated_Source\PSoC5/USBFS.c ****                     /* Configure DMA to send data only for first burst. */
1575:Generated_Source\PSoC5/USBFS.c ****                     (void) CyDmaTdSetConfiguration(
1576:Generated_Source\PSoC5/USBFS.c ****                         USBFS_DmaTd[epNumber], (length > USBFS_DMA_BYTES_PER_BURST) ?
1577:Generated_Source\PSoC5/USBFS.c ****                         USBFS_DMA_BYTES_PER_BURST : length,
1578:Generated_Source\PSoC5/USBFS.c ****                         USBFS_DmaNextTd[epNumber], TD_TERMIN_EN | TD_INC_SRC_ADR );
1579:Generated_Source\PSoC5/USBFS.c ****                     (void) CyDmaTdSetAddress(USBFS_DmaTd[epNumber], LO16((uint32)  USBFS_inDataPoin
1580:Generated_Source\PSoC5/USBFS.c ****                                                                                LO16((uint32) &USBFS
1581:Generated_Source\PSoC5/USBFS.c ****                     /* Clear Any potential pending DMA requests before starting DMA channel to tran
1582:Generated_Source\PSoC5/USBFS.c ****                     (void) CyDmaClearPendingDrq(USBFS_DmaChan[epNumber]);
1583:Generated_Source\PSoC5/USBFS.c ****                     /* Enable DMA. */
1584:Generated_Source\PSoC5/USBFS.c ****                     (void) CyDmaChSetInitialTd(USBFS_DmaChan[epNumber], USBFS_DmaTd[epNumber]);
1585:Generated_Source\PSoC5/USBFS.c ****                     (void) CyDmaChEnable(USBFS_DmaChan[epNumber], 1u);
1586:Generated_Source\PSoC5/USBFS.c ****                 #endif /* (CY_PSOC4) */
1587:Generated_Source\PSoC5/USBFS.c **** 
1588:Generated_Source\PSoC5/USBFS.c ****                 #if !defined (USBFS_MANUAL_IN_EP_ARM)
1589:Generated_Source\PSoC5/USBFS.c ****                     /* Set IN data ready to generate DMA request to load data into endpoint buffer.
1590:Generated_Source\PSoC5/USBFS.c ****                     USBFS_ARB_EP_BASE.arbEp[epNumber].epCfg |= USBFS_ARB_EPX_CFG_IN_DATA_RDY;
1591:Generated_Source\PSoC5/USBFS.c ****                 #endif  /* (USBFS_MANUAL_IN_EP_ARM) */
1592:Generated_Source\PSoC5/USBFS.c **** 
1593:Generated_Source\PSoC5/USBFS.c ****                     /* IN endpoint will be armed in ARB_ISR(source: IN_BUF_FULL) after first DMA tr
1594:Generated_Source\PSoC5/USBFS.c ****                 }
1595:Generated_Source\PSoC5/USBFS.c ****                 else
ARM GAS  C:\Users\bkettle\AppData\Local\Temp\cc8tpVDe.s 			page 46


1596:Generated_Source\PSoC5/USBFS.c ****                 {
1597:Generated_Source\PSoC5/USBFS.c ****                     /* When zero-length packet: arm IN endpoint directly. */
1598:Generated_Source\PSoC5/USBFS.c ****                     USBFS_SIE_EP_BASE.sieEp[epNumber].epCr0 = USBFS_EP[epNumber].epMode;
1599:Generated_Source\PSoC5/USBFS.c ****                 }
1600:Generated_Source\PSoC5/USBFS.c ****             }
1601:Generated_Source\PSoC5/USBFS.c ****         #endif /* (USBFS_EP_MANAGEMENT_DMA_AUTO) */
1602:Generated_Source\PSoC5/USBFS.c ****     #endif /* (USBFS_EP_MANAGEMENT_MANUAL) */
1603:Generated_Source\PSoC5/USBFS.c ****     }
1604:Generated_Source\PSoC5/USBFS.c **** }
 957              		.loc 1 1604 0
 958 0080 F0BC     		pop	{r4, r5, r6, r7}
 959              		.cfi_restore 7
 960              		.cfi_restore 6
 961              		.cfi_restore 5
 962              		.cfi_restore 4
 963              		.cfi_def_cfa_offset 0
 964              	.L62:
 965 0082 7047     		bx	lr
 966              	.L64:
 967              		.align	2
 968              	.L63:
 969 0084 00000000 		.word	USBFS_EP
 970 0088 FC5F0040 		.word	1073766396
 971 008c 78600040 		.word	1073766520
 972 0090 FE5F0040 		.word	1073766398
 973              		.cfi_endproc
 974              	.LFE11:
 975              		.size	USBFS_LoadInEP, .-USBFS_LoadInEP
 976              		.section	.text.USBFS_EnableOutEP,"ax",%progbits
 977              		.align	2
 978              		.global	USBFS_EnableOutEP
 979              		.thumb
 980              		.thumb_func
 981              		.type	USBFS_EnableOutEP, %function
 982              	USBFS_EnableOutEP:
 983              	.LFB13:
1605:Generated_Source\PSoC5/USBFS.c **** 
1606:Generated_Source\PSoC5/USBFS.c **** 
1607:Generated_Source\PSoC5/USBFS.c **** /*******************************************************************************
1608:Generated_Source\PSoC5/USBFS.c **** * Function Name: USBFS_ReadOutEP
1609:Generated_Source\PSoC5/USBFS.c **** ****************************************************************************//**
1610:Generated_Source\PSoC5/USBFS.c **** *
1611:Generated_Source\PSoC5/USBFS.c **** *   This function performs different functionality depending on the Component’s
1612:Generated_Source\PSoC5/USBFS.c **** *   configured Endpoint Buffer Management. This parameter is defined in the
1613:Generated_Source\PSoC5/USBFS.c **** *   Descriptor Root in Component Configure window.
1614:Generated_Source\PSoC5/USBFS.c **** *
1615:Generated_Source\PSoC5/USBFS.c **** *   *Manual (Static/Dynamic Allocation):*
1616:Generated_Source\PSoC5/USBFS.c **** *   This function moves the specified number of bytes from endpoint buffer to
1617:Generated_Source\PSoC5/USBFS.c **** *   system RAM. The number of bytes actually transferred from endpoint buffer to
1618:Generated_Source\PSoC5/USBFS.c **** *   system RAM is the lesser of the actual number of bytes sent by the host or
1619:Generated_Source\PSoC5/USBFS.c **** *   the number of bytes requested by the length parameter.
1620:Generated_Source\PSoC5/USBFS.c **** *
1621:Generated_Source\PSoC5/USBFS.c **** *   *DMA with Manual Buffer Management:*
1622:Generated_Source\PSoC5/USBFS.c **** *   Configure DMA to transfer data from endpoint buffer to system RAM. Generate
1623:Generated_Source\PSoC5/USBFS.c **** *   a DMA request. The firmware must wait until the DMA completes the data
1624:Generated_Source\PSoC5/USBFS.c **** *   transfer after calling the USBFS_ReadOutEP() API. For example,
1625:Generated_Source\PSoC5/USBFS.c **** *   by checking EPstate:
ARM GAS  C:\Users\bkettle\AppData\Local\Temp\cc8tpVDe.s 			page 47


1626:Generated_Source\PSoC5/USBFS.c **** *
1627:Generated_Source\PSoC5/USBFS.c **** *   \snippet /USBFS_sut_02.cydsn/main.c checking EPstatey
1628:Generated_Source\PSoC5/USBFS.c **** *
1629:Generated_Source\PSoC5/USBFS.c **** *   The USBFS_EnableOutEP() has to be called to allow host to write data into
1630:Generated_Source\PSoC5/USBFS.c **** *   the endpoint buffer after DMA has completed transfer data from OUT endpoint
1631:Generated_Source\PSoC5/USBFS.c **** *   buffer to SRAM.
1632:Generated_Source\PSoC5/USBFS.c **** *
1633:Generated_Source\PSoC5/USBFS.c **** *   *DMA with Automatic Buffer Management:*
1634:Generated_Source\PSoC5/USBFS.c **** *   Configure DMA. This is required only once and automatically generates DMA
1635:Generated_Source\PSoC5/USBFS.c **** *   requests as data arrives
1636:Generated_Source\PSoC5/USBFS.c **** *
1637:Generated_Source\PSoC5/USBFS.c **** *  \param epNumber: Contains the data endpoint number.
1638:Generated_Source\PSoC5/USBFS.c **** *            Valid values are between 1 and 8.
1639:Generated_Source\PSoC5/USBFS.c **** *  \param pData: A pointer to a data array from which the data for the endpoint
1640:Generated_Source\PSoC5/USBFS.c **** *         space is loaded.
1641:Generated_Source\PSoC5/USBFS.c **** *  \param length: The number of bytes to transfer from the USB Out endpoint and
1642:Generated_Source\PSoC5/USBFS.c **** *          loads it into data array. Valid values are between 0 and 1023. The
1643:Generated_Source\PSoC5/USBFS.c **** *          function moves fewer than the requested number of bytes if the host
1644:Generated_Source\PSoC5/USBFS.c **** *          sends fewer bytes than requested.
1645:Generated_Source\PSoC5/USBFS.c **** *
1646:Generated_Source\PSoC5/USBFS.c **** * \return
1647:Generated_Source\PSoC5/USBFS.c **** *  Number of bytes received, 0 for an invalid endpoint.
1648:Generated_Source\PSoC5/USBFS.c **** *
1649:Generated_Source\PSoC5/USBFS.c **** * \reentrant
1650:Generated_Source\PSoC5/USBFS.c **** *  No.
1651:Generated_Source\PSoC5/USBFS.c **** *
1652:Generated_Source\PSoC5/USBFS.c **** *******************************************************************************/
1653:Generated_Source\PSoC5/USBFS.c **** uint16 USBFS_ReadOutEP(uint8 epNumber, uint8 pData[], uint16 length)
1654:Generated_Source\PSoC5/USBFS.c ****                                                                         
1655:Generated_Source\PSoC5/USBFS.c **** {
1656:Generated_Source\PSoC5/USBFS.c ****     if ((pData != NULL) && (epNumber > USBFS_EP0) && (epNumber < USBFS_MAX_EP))
1657:Generated_Source\PSoC5/USBFS.c ****     {
1658:Generated_Source\PSoC5/USBFS.c ****     #if (!USBFS_EP_MANAGEMENT_DMA_AUTO)
1659:Generated_Source\PSoC5/USBFS.c ****         /* Adjust requested length to available data. */
1660:Generated_Source\PSoC5/USBFS.c ****         length = (length > USBFS_GetEPCount(epNumber)) ? USBFS_GetEPCount(epNumber) : length;
1661:Generated_Source\PSoC5/USBFS.c ****     #endif /* (!USBFS_EP_MANAGEMENT_DMA_AUTO) */
1662:Generated_Source\PSoC5/USBFS.c **** 
1663:Generated_Source\PSoC5/USBFS.c ****     #if (USBFS_EP_MANAGEMENT_MANUAL)
1664:Generated_Source\PSoC5/USBFS.c ****         {
1665:Generated_Source\PSoC5/USBFS.c ****             /* Copy data using arbiter data register. */
1666:Generated_Source\PSoC5/USBFS.c ****             uint16 i;
1667:Generated_Source\PSoC5/USBFS.c ****             for (i = 0u; i < length; ++i)
1668:Generated_Source\PSoC5/USBFS.c ****             {
1669:Generated_Source\PSoC5/USBFS.c ****                 pData[i] = (uint8) USBFS_ARB_EP_BASE.arbEp[epNumber].rwDr;
1670:Generated_Source\PSoC5/USBFS.c ****             }
1671:Generated_Source\PSoC5/USBFS.c ****         }
1672:Generated_Source\PSoC5/USBFS.c **** 
1673:Generated_Source\PSoC5/USBFS.c ****         /* Arm OUT endpoint after data has been copied from endpoint buffer. */
1674:Generated_Source\PSoC5/USBFS.c ****         USBFS_EnableOutEP(epNumber);
1675:Generated_Source\PSoC5/USBFS.c ****     #else
1676:Generated_Source\PSoC5/USBFS.c **** 
1677:Generated_Source\PSoC5/USBFS.c ****         #if (CY_PSOC3 || CY_PSOC5LP)
1678:Generated_Source\PSoC5/USBFS.c ****             /* Initialize DMA if it was not initialized. */
1679:Generated_Source\PSoC5/USBFS.c ****             if (DMA_INVALID_TD == USBFS_DmaTd[epNumber])
1680:Generated_Source\PSoC5/USBFS.c ****             {
1681:Generated_Source\PSoC5/USBFS.c ****                 USBFS_InitEP_DMA(epNumber, pData);
1682:Generated_Source\PSoC5/USBFS.c ****             }
ARM GAS  C:\Users\bkettle\AppData\Local\Temp\cc8tpVDe.s 			page 48


1683:Generated_Source\PSoC5/USBFS.c ****         #endif /* (CY_PSOC3 || CY_PSOC5LP) */
1684:Generated_Source\PSoC5/USBFS.c **** 
1685:Generated_Source\PSoC5/USBFS.c ****         #if (USBFS_EP_MANAGEMENT_DMA_MANUAL)
1686:Generated_Source\PSoC5/USBFS.c ****         #if (CY_PSOC4)
1687:Generated_Source\PSoC5/USBFS.c ****         {
1688:Generated_Source\PSoC5/USBFS.c ****             uint32 channelNum = (uint32) USBFS_DmaChan[epNumber];
1689:Generated_Source\PSoC5/USBFS.c **** 
1690:Generated_Source\PSoC5/USBFS.c ****             /* Disable DMA channel: start configuration. */
1691:Generated_Source\PSoC5/USBFS.c ****             USBFS_CyDmaChDisable(channelNum);
1692:Generated_Source\PSoC5/USBFS.c **** 
1693:Generated_Source\PSoC5/USBFS.c ****             /* Configure source and destination. */
1694:Generated_Source\PSoC5/USBFS.c ****             USBFS_CyDmaSetSrcAddress(channelNum, USBFS_DMA_DESCR0, (void*) &USBFS_ARB_EP_BASE.arbEp
1695:Generated_Source\PSoC5/USBFS.c ****             USBFS_CyDmaSetDstAddress(channelNum, USBFS_DMA_DESCR0, (void*) pData);
1696:Generated_Source\PSoC5/USBFS.c **** 
1697:Generated_Source\PSoC5/USBFS.c ****             /* Configure DMA descriptor. */
1698:Generated_Source\PSoC5/USBFS.c ****             USBFS_CyDmaSetConfiguration(channelNum, USBFS_DMA_DESCR0, USBFS_DMA_COMMON_CFG | (uint1
1699:Generated_Source\PSoC5/USBFS.c ****                                                     CYDMA_BYTE | CYDMA_WORD_ELEMENT | CYDMA_INC_DST
1700:Generated_Source\PSoC5/USBFS.c **** 
1701:Generated_Source\PSoC5/USBFS.c ****             /* Validate descriptor to execute on following DMA request. */
1702:Generated_Source\PSoC5/USBFS.c ****             USBFS_CyDmaValidateDescriptor(channelNum, USBFS_DMA_DESCR0);
1703:Generated_Source\PSoC5/USBFS.c **** 
1704:Generated_Source\PSoC5/USBFS.c ****             /* Enable DMA channel: configuration complete. */
1705:Generated_Source\PSoC5/USBFS.c ****             USBFS_CyDmaChEnable(channelNum);
1706:Generated_Source\PSoC5/USBFS.c ****         }
1707:Generated_Source\PSoC5/USBFS.c ****         #else
1708:Generated_Source\PSoC5/USBFS.c ****             /* Configure DMA to transfer data. */
1709:Generated_Source\PSoC5/USBFS.c ****             (void) CyDmaChDisable(USBFS_DmaChan[epNumber]);
1710:Generated_Source\PSoC5/USBFS.c ****             (void) CyDmaTdSetConfiguration(USBFS_DmaTd[epNumber], length, CY_DMA_DISABLE_TD, TD_TER
1711:Generated_Source\PSoC5/USBFS.c ****             (void) CyDmaTdSetAddress(USBFS_DmaTd[epNumber], LO16((uint32) &USBFS_ARB_EP_BASE.arbEp[
1712:Generated_Source\PSoC5/USBFS.c **** 
1713:Generated_Source\PSoC5/USBFS.c ****             /* Enable DMA channel. */
1714:Generated_Source\PSoC5/USBFS.c ****             (void) CyDmaChSetInitialTd(USBFS_DmaChan[epNumber], USBFS_DmaTd[epNumber]);
1715:Generated_Source\PSoC5/USBFS.c ****             (void) CyDmaChEnable(USBFS_DmaChan[epNumber], 1u);
1716:Generated_Source\PSoC5/USBFS.c ****         #endif /* (CY_PSOC4) */
1717:Generated_Source\PSoC5/USBFS.c **** 
1718:Generated_Source\PSoC5/USBFS.c ****             /* Generate DMA request. */
1719:Generated_Source\PSoC5/USBFS.c ****             USBFS_ARB_EP_BASE.arbEp[epNumber].epCfg |=  (uint8)  USBFS_ARB_EPX_CFG_DMA_REQ;
1720:Generated_Source\PSoC5/USBFS.c ****             USBFS_ARB_EP_BASE.arbEp[epNumber].epCfg &=  (uint8) ~USBFS_ARB_EPX_CFG_DMA_REQ;
1721:Generated_Source\PSoC5/USBFS.c **** 
1722:Generated_Source\PSoC5/USBFS.c ****             /* OUT endpoint has to be armed again by user when DMA transfers have been completed.
1723:Generated_Source\PSoC5/USBFS.c ****             * NO_EVENT_PENDING: notifies that data has been copied from endpoint buffer.
1724:Generated_Source\PSoC5/USBFS.c ****             */
1725:Generated_Source\PSoC5/USBFS.c **** 
1726:Generated_Source\PSoC5/USBFS.c ****         #endif /* (USBFS_EP_MANAGEMENT_DMA_MANUAL) */
1727:Generated_Source\PSoC5/USBFS.c **** 
1728:Generated_Source\PSoC5/USBFS.c ****         #if (USBFS_EP_MANAGEMENT_DMA_AUTO)
1729:Generated_Source\PSoC5/USBFS.c ****         #if (CY_PSOC4)
1730:Generated_Source\PSoC5/USBFS.c ****         {
1731:Generated_Source\PSoC5/USBFS.c ****             uint32 channelNum = (uint32) USBFS_DmaChan[epNumber];
1732:Generated_Source\PSoC5/USBFS.c ****             uint32 lengthDescr0, lengthDescr1;
1733:Generated_Source\PSoC5/USBFS.c **** 
1734:Generated_Source\PSoC5/USBFS.c ****             /* Get number of full bursts. */
1735:Generated_Source\PSoC5/USBFS.c ****             USBFS_DmaEpBurstCnt[epNumber] = (uint8) (length / USBFS_DMA_BYTES_PER_BURST);
1736:Generated_Source\PSoC5/USBFS.c **** 
1737:Generated_Source\PSoC5/USBFS.c ****             /* Get number of elements in the last burst. */
1738:Generated_Source\PSoC5/USBFS.c ****             USBFS_DmaEpLastBurstEl[epNumber] = (uint8) (length % USBFS_DMA_BYTES_PER_BURST);
1739:Generated_Source\PSoC5/USBFS.c **** 
ARM GAS  C:\Users\bkettle\AppData\Local\Temp\cc8tpVDe.s 			page 49


1740:Generated_Source\PSoC5/USBFS.c ****             /* Get total number of bursts. */
1741:Generated_Source\PSoC5/USBFS.c ****             USBFS_DmaEpBurstCnt[epNumber] += (0u != USBFS_DmaEpLastBurstEl[epNumber]) ? 1u : 0u;
1742:Generated_Source\PSoC5/USBFS.c **** 
1743:Generated_Source\PSoC5/USBFS.c ****             /* Adjust number of the data elements transfered in last burst. */
1744:Generated_Source\PSoC5/USBFS.c ****             USBFS_DmaEpLastBurstEl[epNumber] = (0u != USBFS_DmaEpLastBurstEl[epNumber]) ?
1745:Generated_Source\PSoC5/USBFS.c ****                                                                   (USBFS_DmaEpLastBurstEl[epNumber]
1746:Generated_Source\PSoC5/USBFS.c ****                                                                   (USBFS_DMA_BYTES_PER_BURST - 1u);
1747:Generated_Source\PSoC5/USBFS.c **** 
1748:Generated_Source\PSoC5/USBFS.c ****             /* Get number of data elements to transfer for descriptor 0 and 1. */
1749:Generated_Source\PSoC5/USBFS.c ****             lengthDescr0 = (1u == USBFS_DmaEpBurstCnt[epNumber]) ? USBFS_DmaEpLastBurstEl[epNumber]
1750:Generated_Source\PSoC5/USBFS.c ****             lengthDescr1 = (2u == USBFS_DmaEpBurstCnt[epNumber]) ? USBFS_DmaEpLastBurstEl[epNumber]
1751:Generated_Source\PSoC5/USBFS.c **** 
1752:Generated_Source\PSoC5/USBFS.c ****             /* Mark if revert number of data elements in descriptor after transfer completion. */
1753:Generated_Source\PSoC5/USBFS.c ****             USBFS_DmaEpLastBurstEl[epNumber] |= (USBFS_DmaEpBurstCnt[epNumber] > 2u) ? USBFS_DMA_DE
1754:Generated_Source\PSoC5/USBFS.c **** 
1755:Generated_Source\PSoC5/USBFS.c ****             /* Mark last descriptor to be executed. */
1756:Generated_Source\PSoC5/USBFS.c ****             USBFS_DmaEpLastBurstEl[epNumber] |= (0u != (USBFS_DmaEpBurstCnt[epNumber] & 0x1u)) ?
1757:Generated_Source\PSoC5/USBFS.c ****                                                                     USBFS_DMA_DESCR0_MASK : USBFS_D
1758:Generated_Source\PSoC5/USBFS.c **** 
1759:Generated_Source\PSoC5/USBFS.c ****             /* Store address of buffer and burst counter for endpoint. */
1760:Generated_Source\PSoC5/USBFS.c ****             USBFS_DmaEpBufferAddrBackup[epNumber] = (uint32) pData;
1761:Generated_Source\PSoC5/USBFS.c ****             USBFS_DmaEpBurstCntBackup[epNumber]   = USBFS_DmaEpBurstCnt[epNumber];
1762:Generated_Source\PSoC5/USBFS.c **** 
1763:Generated_Source\PSoC5/USBFS.c ****             /* Adjust burst counter taking to account: 2 valid descriptors and interrupt trigger af
1764:Generated_Source\PSoC5/USBFS.c ****             USBFS_DmaEpBurstCnt[epNumber] = USBFS_DMA_GET_BURST_CNT(USBFS_DmaEpBurstCnt[epNumber]);
1765:Generated_Source\PSoC5/USBFS.c **** 
1766:Generated_Source\PSoC5/USBFS.c ****             /* Disable DMA channel: start configuration. */
1767:Generated_Source\PSoC5/USBFS.c ****             USBFS_CyDmaChDisable(channelNum);
1768:Generated_Source\PSoC5/USBFS.c **** 
1769:Generated_Source\PSoC5/USBFS.c ****             /* Set destination address. */
1770:Generated_Source\PSoC5/USBFS.c ****             USBFS_CyDmaSetSrcAddress(channelNum, USBFS_DMA_DESCR0, (void*) &USBFS_ARB_EP_BASE.arbEp
1771:Generated_Source\PSoC5/USBFS.c ****             USBFS_CyDmaSetSrcAddress(channelNum, USBFS_DMA_DESCR1, (void*) &USBFS_ARB_EP_BASE.arbEp
1772:Generated_Source\PSoC5/USBFS.c **** 
1773:Generated_Source\PSoC5/USBFS.c ****             USBFS_CyDmaSetDstAddress(channelNum, USBFS_DMA_DESCR0, (void*) ((uint32) pData));
1774:Generated_Source\PSoC5/USBFS.c ****             USBFS_CyDmaSetDstAddress(channelNum, USBFS_DMA_DESCR1, (void*) ((uint32) pData + USBFS_
1775:Generated_Source\PSoC5/USBFS.c **** 
1776:Generated_Source\PSoC5/USBFS.c ****             /* Configure DMA descriptor. */
1777:Generated_Source\PSoC5/USBFS.c ****             USBFS_CyDmaSetConfiguration(channelNum, USBFS_DMA_DESCR0, USBFS_DMA_COMMON_CFG  | lengt
1778:Generated_Source\PSoC5/USBFS.c ****                                                     CYDMA_BYTE | CYDMA_WORD_ELEMENT | CYDMA_INC_DST
1779:Generated_Source\PSoC5/USBFS.c **** 
1780:Generated_Source\PSoC5/USBFS.c ****             /* Configure DMA descriptor. */
1781:Generated_Source\PSoC5/USBFS.c ****             USBFS_CyDmaSetConfiguration(channelNum, USBFS_DMA_DESCR1, USBFS_DMA_COMMON_CFG  | lengt
1782:Generated_Source\PSoC5/USBFS.c ****                                                     CYDMA_BYTE | CYDMA_WORD_ELEMENT | CYDMA_INC_DST
1783:Generated_Source\PSoC5/USBFS.c **** 
1784:Generated_Source\PSoC5/USBFS.c ****             /* Enable interrupt from DMA channel. */
1785:Generated_Source\PSoC5/USBFS.c ****             USBFS_CyDmaSetInterruptMask(channelNum);
1786:Generated_Source\PSoC5/USBFS.c **** 
1787:Generated_Source\PSoC5/USBFS.c ****             /* Validate DMA descriptor 0 and 1. */
1788:Generated_Source\PSoC5/USBFS.c ****             USBFS_CyDmaValidateDescriptor(channelNum, USBFS_DMA_DESCR0);
1789:Generated_Source\PSoC5/USBFS.c **** 
1790:Generated_Source\PSoC5/USBFS.c ****             if (USBFS_DmaEpBurstCntBackup[epNumber] > 1u)
1791:Generated_Source\PSoC5/USBFS.c ****             {
1792:Generated_Source\PSoC5/USBFS.c ****                 USBFS_CyDmaValidateDescriptor(channelNum, USBFS_DMA_DESCR1);
1793:Generated_Source\PSoC5/USBFS.c ****             }
1794:Generated_Source\PSoC5/USBFS.c **** 
1795:Generated_Source\PSoC5/USBFS.c ****             /* Enable DMA channel: configuration complete. */
1796:Generated_Source\PSoC5/USBFS.c ****             USBFS_CyDmaChEnable(channelNum);
ARM GAS  C:\Users\bkettle\AppData\Local\Temp\cc8tpVDe.s 			page 50


1797:Generated_Source\PSoC5/USBFS.c ****         }
1798:Generated_Source\PSoC5/USBFS.c ****         #else
1799:Generated_Source\PSoC5/USBFS.c ****             (void) CyDmaChDisable(USBFS_DmaChan[epNumber]);
1800:Generated_Source\PSoC5/USBFS.c ****             (void) CyDmaTdSetConfiguration(USBFS_DmaTd[epNumber], length,  USBFS_DmaTd[epNumber], T
1801:Generated_Source\PSoC5/USBFS.c ****             (void) CyDmaTdSetAddress(USBFS_DmaTd[epNumber], LO16((uint32) &USBFS_ARB_EP_BASE.arbEp[
1802:Generated_Source\PSoC5/USBFS.c **** 
1803:Generated_Source\PSoC5/USBFS.c ****             /* Clear Any potential pending DMA requests before starting DMA channel to transfer dat
1804:Generated_Source\PSoC5/USBFS.c ****             (void) CyDmaClearPendingDrq(USBFS_DmaChan[epNumber]);
1805:Generated_Source\PSoC5/USBFS.c **** 
1806:Generated_Source\PSoC5/USBFS.c ****             /* Enable DMA channel. */
1807:Generated_Source\PSoC5/USBFS.c ****             (void) CyDmaChSetInitialTd(USBFS_DmaChan[epNumber], USBFS_DmaTd[epNumber]);
1808:Generated_Source\PSoC5/USBFS.c ****             (void) CyDmaChEnable(USBFS_DmaChan[epNumber], 1u);
1809:Generated_Source\PSoC5/USBFS.c ****         #endif /* (CY_PSOC4) */
1810:Generated_Source\PSoC5/USBFS.c **** 
1811:Generated_Source\PSoC5/USBFS.c ****             /* OUT endpoint has to be armed again by user when DMA transfers have been completed.
1812:Generated_Source\PSoC5/USBFS.c ****             * NO_EVENT_PENDING: notifies that data has been copied from endpoint buffer.
1813:Generated_Source\PSoC5/USBFS.c ****             */
1814:Generated_Source\PSoC5/USBFS.c **** 
1815:Generated_Source\PSoC5/USBFS.c ****         #endif /* (USBFS_EP_MANAGEMENT_DMA_AUTO) */
1816:Generated_Source\PSoC5/USBFS.c ****     #endif /* (USBFS_EP_MANAGEMENT_MANUAL) */
1817:Generated_Source\PSoC5/USBFS.c ****     }
1818:Generated_Source\PSoC5/USBFS.c ****     else
1819:Generated_Source\PSoC5/USBFS.c ****     {
1820:Generated_Source\PSoC5/USBFS.c ****         length = 0u;
1821:Generated_Source\PSoC5/USBFS.c ****     }
1822:Generated_Source\PSoC5/USBFS.c **** 
1823:Generated_Source\PSoC5/USBFS.c ****     return (length);
1824:Generated_Source\PSoC5/USBFS.c **** }
1825:Generated_Source\PSoC5/USBFS.c **** 
1826:Generated_Source\PSoC5/USBFS.c **** 
1827:Generated_Source\PSoC5/USBFS.c **** #if (USBFS_16BITS_EP_ACCESS_ENABLE)
1828:Generated_Source\PSoC5/USBFS.c **** /*******************************************************************************
1829:Generated_Source\PSoC5/USBFS.c **** * Function Name: USBFS_LoadInEP16
1830:Generated_Source\PSoC5/USBFS.c **** ****************************************************************************//**
1831:Generated_Source\PSoC5/USBFS.c **** *
1832:Generated_Source\PSoC5/USBFS.c **** *  This function performs different functionality depending on the Component’s
1833:Generated_Source\PSoC5/USBFS.c **** *  configured Endpoint Buffer Management. This parameter is defined in
1834:Generated_Source\PSoC5/USBFS.c **** *  the Descriptor Root in Component Configure window.
1835:Generated_Source\PSoC5/USBFS.c **** *
1836:Generated_Source\PSoC5/USBFS.c **** *  *Manual (Static/Dynamic Allocation):*
1837:Generated_Source\PSoC5/USBFS.c **** *  This function loads and enables the specified USB data endpoint for an IN
1838:Generated_Source\PSoC5/USBFS.c **** *  data transfer.
1839:Generated_Source\PSoC5/USBFS.c **** *
1840:Generated_Source\PSoC5/USBFS.c **** *  *DMA with Manual Buffer Management:*
1841:Generated_Source\PSoC5/USBFS.c **** *  Configures DMA for a data transfer from system RAM to endpoint buffer.
1842:Generated_Source\PSoC5/USBFS.c **** *  Generates request for a transfer.
1843:Generated_Source\PSoC5/USBFS.c **** *
1844:Generated_Source\PSoC5/USBFS.c **** *  *DMA with Automatic Buffer Management:*
1845:Generated_Source\PSoC5/USBFS.c **** *  Configures DMA. This is required only once, so it is done only when parameter
1846:Generated_Source\PSoC5/USBFS.c **** *  pData is not NULL. When the pData pointer is NULL, the function skips this
1847:Generated_Source\PSoC5/USBFS.c **** *  task. Sets Data ready status: This generates the first DMA transfer and
1848:Generated_Source\PSoC5/USBFS.c **** *  prepares data in endpoint buffer.
1849:Generated_Source\PSoC5/USBFS.c **** *
1850:Generated_Source\PSoC5/USBFS.c **** *  \param epNumber Contains the data endpoint number.
1851:Generated_Source\PSoC5/USBFS.c **** *        Valid values are between 1 and 8.
1852:Generated_Source\PSoC5/USBFS.c **** *  \param *pData A pointer to a data array from which the data for the endpoint
1853:Generated_Source\PSoC5/USBFS.c **** *        space is loaded. It shall be ensured that this pointer address is even
ARM GAS  C:\Users\bkettle\AppData\Local\Temp\cc8tpVDe.s 			page 51


1854:Generated_Source\PSoC5/USBFS.c **** *        to ensure the 16-bit transfer is aligned to even address. Else, a hard
1855:Generated_Source\PSoC5/USBFS.c **** *        fault condition can occur.
1856:Generated_Source\PSoC5/USBFS.c **** *  \param length The number of bytes to transfer from the array and then send as
1857:Generated_Source\PSoC5/USBFS.c **** *        a result of an IN request. Valid values are between 0 and 512 (1023 for
1858:Generated_Source\PSoC5/USBFS.c **** *        DMA with Automatic Buffer Management mode). The value 512 is applicable
1859:Generated_Source\PSoC5/USBFS.c **** *        if only one endpoint is used.
1860:Generated_Source\PSoC5/USBFS.c **** *
1861:Generated_Source\PSoC5/USBFS.c **** * \reentrant
1862:Generated_Source\PSoC5/USBFS.c **** *  No.
1863:Generated_Source\PSoC5/USBFS.c **** *
1864:Generated_Source\PSoC5/USBFS.c **** *******************************************************************************/
1865:Generated_Source\PSoC5/USBFS.c **** void USBFS_LoadInEP16(uint8 epNumber, const uint8 pData[], uint16 length)
1866:Generated_Source\PSoC5/USBFS.c **** {
1867:Generated_Source\PSoC5/USBFS.c ****     /* Check array alignment on half-word boundary. */
1868:Generated_Source\PSoC5/USBFS.c ****     CYASSERT(0u == (((uint32) pData) & 0x01u));
1869:Generated_Source\PSoC5/USBFS.c **** 
1870:Generated_Source\PSoC5/USBFS.c ****     if ((epNumber > USBFS_EP0) && (epNumber < USBFS_MAX_EP))
1871:Generated_Source\PSoC5/USBFS.c ****     {
1872:Generated_Source\PSoC5/USBFS.c ****     #if (!USBFS_EP_MANAGEMENT_DMA_AUTO)
1873:Generated_Source\PSoC5/USBFS.c ****         /* Limit length to available buffer USB IP buffer size. */
1874:Generated_Source\PSoC5/USBFS.c ****         if (length > (USBFS_EPX_DATA_BUF_MAX - USBFS_EP[epNumber].buffOffset))
1875:Generated_Source\PSoC5/USBFS.c ****         {
1876:Generated_Source\PSoC5/USBFS.c ****             length = USBFS_EPX_DATA_BUF_MAX - USBFS_EP[epNumber].buffOffset;
1877:Generated_Source\PSoC5/USBFS.c ****         }
1878:Generated_Source\PSoC5/USBFS.c ****     #endif /* (!USBFS_EP_MANAGEMENT_DMA_AUTO) */
1879:Generated_Source\PSoC5/USBFS.c **** 
1880:Generated_Source\PSoC5/USBFS.c ****         /* Set count and data toggle. */
1881:Generated_Source\PSoC5/USBFS.c ****         USBFS_SIE_EP_BASE.sieEp[epNumber].epCnt0 = (uint32) HI8(length) | USBFS_EP[epNumber].epTogg
1882:Generated_Source\PSoC5/USBFS.c ****         USBFS_SIE_EP_BASE.sieEp[epNumber].epCnt1 = (uint32) LO8(length);
1883:Generated_Source\PSoC5/USBFS.c **** 
1884:Generated_Source\PSoC5/USBFS.c ****         /* Adjust requested length: 2 bytes are handled at one data register access. */
1885:Generated_Source\PSoC5/USBFS.c ****         length += (length & 0x01u);
1886:Generated_Source\PSoC5/USBFS.c **** 
1887:Generated_Source\PSoC5/USBFS.c ****     #if (USBFS_EP_MANAGEMENT_MANUAL)
1888:Generated_Source\PSoC5/USBFS.c ****         if (NULL != pData)
1889:Generated_Source\PSoC5/USBFS.c ****         {
1890:Generated_Source\PSoC5/USBFS.c ****             /* Convert uint8 array to uint16. */
1891:Generated_Source\PSoC5/USBFS.c ****             const uint16 *dataBuf = (uint16 *) pData;
1892:Generated_Source\PSoC5/USBFS.c **** 
1893:Generated_Source\PSoC5/USBFS.c ****             /* Copy data using 16-bits arbiter data register. */
1894:Generated_Source\PSoC5/USBFS.c ****             uint16 i;
1895:Generated_Source\PSoC5/USBFS.c ****             for (i = 0u; i < (length >> 1u); ++i)
1896:Generated_Source\PSoC5/USBFS.c ****             {
1897:Generated_Source\PSoC5/USBFS.c ****                 USBFS_ARB_EP16_BASE.arbEp[epNumber].rwDr16 = dataBuf[i];
1898:Generated_Source\PSoC5/USBFS.c ****             }
1899:Generated_Source\PSoC5/USBFS.c ****         }
1900:Generated_Source\PSoC5/USBFS.c **** 
1901:Generated_Source\PSoC5/USBFS.c ****         /* IN endpoint buffer is full - read to be read. */
1902:Generated_Source\PSoC5/USBFS.c ****         USBFS_EP[epNumber].apiEpState = USBFS_NO_EVENT_PENDING;
1903:Generated_Source\PSoC5/USBFS.c **** 
1904:Generated_Source\PSoC5/USBFS.c ****         /* Arm IN endpoint. */
1905:Generated_Source\PSoC5/USBFS.c ****         USBFS_SIE_EP_BASE.sieEp[epNumber].epCr0 = USBFS_EP[epNumber].epMode;
1906:Generated_Source\PSoC5/USBFS.c **** 
1907:Generated_Source\PSoC5/USBFS.c ****     #else
1908:Generated_Source\PSoC5/USBFS.c **** 
1909:Generated_Source\PSoC5/USBFS.c ****         #if (USBFS_EP_MANAGEMENT_DMA_MANUAL)
1910:Generated_Source\PSoC5/USBFS.c ****             /* IN endpoint buffer will be fully loaded by DMA shortly. */
ARM GAS  C:\Users\bkettle\AppData\Local\Temp\cc8tpVDe.s 			page 52


1911:Generated_Source\PSoC5/USBFS.c ****             USBFS_EP[epNumber].apiEpState = USBFS_NO_EVENT_PENDING;
1912:Generated_Source\PSoC5/USBFS.c **** 
1913:Generated_Source\PSoC5/USBFS.c ****             if ((pData != NULL) && (length > 0u))
1914:Generated_Source\PSoC5/USBFS.c ****             {
1915:Generated_Source\PSoC5/USBFS.c ****                 uint32 channelNum = (uint32) USBFS_DmaChan[epNumber];
1916:Generated_Source\PSoC5/USBFS.c **** 
1917:Generated_Source\PSoC5/USBFS.c ****                 /* Disable DMA channel: start configuration. */
1918:Generated_Source\PSoC5/USBFS.c ****                 USBFS_CyDmaChDisable(channelNum);
1919:Generated_Source\PSoC5/USBFS.c **** 
1920:Generated_Source\PSoC5/USBFS.c ****                 /* Configure source and destination. */
1921:Generated_Source\PSoC5/USBFS.c ****                 USBFS_CyDmaSetSrcAddress(channelNum, USBFS_DMA_DESCR0, (void*) pData);
1922:Generated_Source\PSoC5/USBFS.c ****                 USBFS_CyDmaSetDstAddress(channelNum, USBFS_DMA_DESCR0, (void*) &USBFS_ARB_EP16_BASE
1923:Generated_Source\PSoC5/USBFS.c **** 
1924:Generated_Source\PSoC5/USBFS.c ****                 /* Configure DMA descriptor. */
1925:Generated_Source\PSoC5/USBFS.c ****                 length = (length >> 1u) - 1u;
1926:Generated_Source\PSoC5/USBFS.c ****                 USBFS_CyDmaSetConfiguration(channelNum, USBFS_DMA_DESCR0, USBFS_DMA_COMMON_CFG | le
1927:Generated_Source\PSoC5/USBFS.c ****                                                         CYDMA_HALFWORD | CYDMA_ELEMENT_WORD | CYDMA
1928:Generated_Source\PSoC5/USBFS.c **** 
1929:Generated_Source\PSoC5/USBFS.c ****                 /* Validate descriptor to execute on following DMA request. */
1930:Generated_Source\PSoC5/USBFS.c ****                 USBFS_CyDmaValidateDescriptor(channelNum, USBFS_DMA_DESCR0);
1931:Generated_Source\PSoC5/USBFS.c **** 
1932:Generated_Source\PSoC5/USBFS.c ****                 /* Enable DMA channel: configuration complete. */
1933:Generated_Source\PSoC5/USBFS.c ****                 USBFS_CyDmaChEnable(channelNum);
1934:Generated_Source\PSoC5/USBFS.c **** 
1935:Generated_Source\PSoC5/USBFS.c ****                 /* Generate DMA request. */
1936:Generated_Source\PSoC5/USBFS.c ****                 USBFS_ARB_EP_BASE.arbEp[epNumber].epCfg |=  (uint32)  USBFS_ARB_EPX_CFG_DMA_REQ;
1937:Generated_Source\PSoC5/USBFS.c ****                 USBFS_ARB_EP_BASE.arbEp[epNumber].epCfg &=  (uint32) ~USBFS_ARB_EPX_CFG_DMA_REQ;
1938:Generated_Source\PSoC5/USBFS.c **** 
1939:Generated_Source\PSoC5/USBFS.c ****                 /* IN endpoint will be armed in ARB_ISR(source: IN_BUF_FULL) after first DMA transf
1940:Generated_Source\PSoC5/USBFS.c ****             }
1941:Generated_Source\PSoC5/USBFS.c ****             else
1942:Generated_Source\PSoC5/USBFS.c ****             {
1943:Generated_Source\PSoC5/USBFS.c ****                 /* When zero-length packet: arm IN endpoint directly. */
1944:Generated_Source\PSoC5/USBFS.c ****                 USBFS_SIE_EP_BASE.sieEp[epNumber].epCr0 = USBFS_EP[epNumber].epMode;
1945:Generated_Source\PSoC5/USBFS.c ****             }
1946:Generated_Source\PSoC5/USBFS.c ****         #endif /* (USBFS_EP_MANAGEMENT_DMA_MANUAL) */
1947:Generated_Source\PSoC5/USBFS.c **** 
1948:Generated_Source\PSoC5/USBFS.c ****         #if (USBFS_EP_MANAGEMENT_DMA_AUTO)
1949:Generated_Source\PSoC5/USBFS.c ****             if (pData != NULL)
1950:Generated_Source\PSoC5/USBFS.c ****             {
1951:Generated_Source\PSoC5/USBFS.c ****                 uint32 channelNum = (uint32) USBFS_DmaChan[epNumber];
1952:Generated_Source\PSoC5/USBFS.c **** 
1953:Generated_Source\PSoC5/USBFS.c ****                 /* Store address of buffer. */
1954:Generated_Source\PSoC5/USBFS.c ****                 USBFS_DmaEpBufferAddrBackup[epNumber] = (uint32) pData;
1955:Generated_Source\PSoC5/USBFS.c **** 
1956:Generated_Source\PSoC5/USBFS.c ****                 /* Disable DMA channel: start configuration. */
1957:Generated_Source\PSoC5/USBFS.c ****                 USBFS_CyDmaChDisable(channelNum);
1958:Generated_Source\PSoC5/USBFS.c **** 
1959:Generated_Source\PSoC5/USBFS.c ****                 /* Set destination address. */
1960:Generated_Source\PSoC5/USBFS.c ****                 USBFS_CyDmaSetDstAddress(channelNum, USBFS_DMA_DESCR0, (void*) &USBFS_ARB_EP16_BASE
1961:Generated_Source\PSoC5/USBFS.c ****                 USBFS_CyDmaSetDstAddress(channelNum, USBFS_DMA_DESCR1, (void*) &USBFS_ARB_EP16_BASE
1962:Generated_Source\PSoC5/USBFS.c **** 
1963:Generated_Source\PSoC5/USBFS.c ****                 /* Configure DMA descriptor. */
1964:Generated_Source\PSoC5/USBFS.c ****                 USBFS_CyDmaSetConfiguration(channelNum, USBFS_DMA_DESCR0, USBFS_DMA_COMMON_CFG  |
1965:Generated_Source\PSoC5/USBFS.c ****                                                         CYDMA_HALFWORD | CYDMA_ELEMENT_WORD | CYDMA
1966:Generated_Source\PSoC5/USBFS.c **** 
1967:Generated_Source\PSoC5/USBFS.c ****                 /* Configure DMA descriptor. */
ARM GAS  C:\Users\bkettle\AppData\Local\Temp\cc8tpVDe.s 			page 53


1968:Generated_Source\PSoC5/USBFS.c ****                 USBFS_CyDmaSetConfiguration(channelNum, USBFS_DMA_DESCR1, USBFS_DMA_COMMON_CFG  |
1969:Generated_Source\PSoC5/USBFS.c ****                                                         CYDMA_HALFWORD | CYDMA_ELEMENT_WORD | CYDMA
1970:Generated_Source\PSoC5/USBFS.c **** 
1971:Generated_Source\PSoC5/USBFS.c ****                 /* Enable interrupt from DMA channel. */
1972:Generated_Source\PSoC5/USBFS.c ****                 USBFS_CyDmaSetInterruptMask(channelNum);
1973:Generated_Source\PSoC5/USBFS.c **** 
1974:Generated_Source\PSoC5/USBFS.c ****                 /* Enable DMA channel: configuration complete. */
1975:Generated_Source\PSoC5/USBFS.c ****                 USBFS_CyDmaChEnable(channelNum);
1976:Generated_Source\PSoC5/USBFS.c ****             }
1977:Generated_Source\PSoC5/USBFS.c ****             else
1978:Generated_Source\PSoC5/USBFS.c ****             {
1979:Generated_Source\PSoC5/USBFS.c ****                 /* IN endpoint buffer (32 bytes) will shortly be preloaded by DMA. */
1980:Generated_Source\PSoC5/USBFS.c ****                 USBFS_EP[epNumber].apiEpState = USBFS_NO_EVENT_PENDING;
1981:Generated_Source\PSoC5/USBFS.c **** 
1982:Generated_Source\PSoC5/USBFS.c ****                 if (length > 0u)
1983:Generated_Source\PSoC5/USBFS.c ****                 {
1984:Generated_Source\PSoC5/USBFS.c ****                     uint32 lengthDescr0, lengthDescr1;
1985:Generated_Source\PSoC5/USBFS.c ****                     uint32 channelNum = (uint32) USBFS_DmaChan[epNumber];
1986:Generated_Source\PSoC5/USBFS.c **** 
1987:Generated_Source\PSoC5/USBFS.c ****                     /* Get number of full bursts. */
1988:Generated_Source\PSoC5/USBFS.c ****                     USBFS_DmaEpBurstCnt[epNumber] = (uint8) (length / USBFS_DMA_BYTES_PER_BURST);
1989:Generated_Source\PSoC5/USBFS.c **** 
1990:Generated_Source\PSoC5/USBFS.c ****                     /* Get number of elements in the last burst. */
1991:Generated_Source\PSoC5/USBFS.c ****                     USBFS_DmaEpLastBurstEl[epNumber] = (uint8) (length % USBFS_DMA_BYTES_PER_BURST)
1992:Generated_Source\PSoC5/USBFS.c **** 
1993:Generated_Source\PSoC5/USBFS.c ****                     /* Get total number of bursts. */
1994:Generated_Source\PSoC5/USBFS.c ****                     USBFS_DmaEpBurstCnt[epNumber] += (0u != USBFS_DmaEpLastBurstEl[epNumber]) ? 1u 
1995:Generated_Source\PSoC5/USBFS.c **** 
1996:Generated_Source\PSoC5/USBFS.c ****                     /* Adjust number of data elements transferred in last burst. */
1997:Generated_Source\PSoC5/USBFS.c ****                     USBFS_DmaEpLastBurstEl[epNumber] = (0u != USBFS_DmaEpLastBurstEl[epNumber]) ?
1998:Generated_Source\PSoC5/USBFS.c ****                                                                           ((USBFS_DmaEpLastBurstEl[
1999:Generated_Source\PSoC5/USBFS.c ****                                                                            (USBFS_DMA_HALFWORDS_PER
2000:Generated_Source\PSoC5/USBFS.c **** 
2001:Generated_Source\PSoC5/USBFS.c ****                     /* Get number of data elements to transfer for descriptor 0 and 1. */
2002:Generated_Source\PSoC5/USBFS.c ****                     lengthDescr0 = (1u == USBFS_DmaEpBurstCnt[epNumber]) ? USBFS_DmaEpLastBurstEl[e
2003:Generated_Source\PSoC5/USBFS.c ****                     lengthDescr1 = (2u == USBFS_DmaEpBurstCnt[epNumber]) ? USBFS_DmaEpLastBurstEl[e
2004:Generated_Source\PSoC5/USBFS.c **** 
2005:Generated_Source\PSoC5/USBFS.c ****                     /* Mark which descriptor is last one to execute. */
2006:Generated_Source\PSoC5/USBFS.c ****                     USBFS_DmaEpLastBurstEl[epNumber] |= (0u != (USBFS_DmaEpBurstCnt[epNumber] & 0x1
2007:Generated_Source\PSoC5/USBFS.c ****                                                                             USBFS_DMA_DESCR0_MASK :
2008:Generated_Source\PSoC5/USBFS.c **** 
2009:Generated_Source\PSoC5/USBFS.c ****                     /* Restore DMA settings for current transfer. */
2010:Generated_Source\PSoC5/USBFS.c ****                     USBFS_CyDmaChDisable(channelNum);
2011:Generated_Source\PSoC5/USBFS.c **** 
2012:Generated_Source\PSoC5/USBFS.c ****                     /* Restore destination address for input endpoint. */
2013:Generated_Source\PSoC5/USBFS.c ****                     USBFS_CyDmaSetSrcAddress(channelNum, USBFS_DMA_DESCR0, (void*) ((uint32) USBFS_
2014:Generated_Source\PSoC5/USBFS.c ****                     USBFS_CyDmaSetSrcAddress(channelNum, USBFS_DMA_DESCR1, (void*) ((uint32) USBFS_
2015:Generated_Source\PSoC5/USBFS.c ****                                                                                                    
2016:Generated_Source\PSoC5/USBFS.c **** 
2017:Generated_Source\PSoC5/USBFS.c ****                     /* Set number of elements to transfer. */
2018:Generated_Source\PSoC5/USBFS.c ****                     USBFS_CyDmaSetNumDataElements(channelNum, USBFS_DMA_DESCR0, lengthDescr0);
2019:Generated_Source\PSoC5/USBFS.c ****                     USBFS_CyDmaSetNumDataElements(channelNum, USBFS_DMA_DESCR1, lengthDescr1);
2020:Generated_Source\PSoC5/USBFS.c **** 
2021:Generated_Source\PSoC5/USBFS.c ****                     /* Validate descriptor 0 and command to start with it. */
2022:Generated_Source\PSoC5/USBFS.c ****                     USBFS_CyDmaValidateDescriptor(channelNum, USBFS_DMA_DESCR0);
2023:Generated_Source\PSoC5/USBFS.c ****                     USBFS_CyDmaSetDescriptor0Next(channelNum);
2024:Generated_Source\PSoC5/USBFS.c **** 
ARM GAS  C:\Users\bkettle\AppData\Local\Temp\cc8tpVDe.s 			page 54


2025:Generated_Source\PSoC5/USBFS.c ****                     /* Validate descriptor 1. */
2026:Generated_Source\PSoC5/USBFS.c ****                     if (USBFS_DmaEpBurstCnt[epNumber] > 1u)
2027:Generated_Source\PSoC5/USBFS.c ****                     {
2028:Generated_Source\PSoC5/USBFS.c ****                         USBFS_CyDmaValidateDescriptor(channelNum, USBFS_DMA_DESCR1);
2029:Generated_Source\PSoC5/USBFS.c ****                     }
2030:Generated_Source\PSoC5/USBFS.c **** 
2031:Generated_Source\PSoC5/USBFS.c ****                     /* Adjust burst counter taking to account: 2 valid descriptors and interrupt tr
2032:Generated_Source\PSoC5/USBFS.c ****                     USBFS_DmaEpBurstCnt[epNumber] = USBFS_DMA_GET_BURST_CNT(USBFS_DmaEpBurstCnt[epN
2033:Generated_Source\PSoC5/USBFS.c **** 
2034:Generated_Source\PSoC5/USBFS.c ****                     /* Enable DMA channel: configuration complete. */
2035:Generated_Source\PSoC5/USBFS.c ****                     USBFS_CyDmaChEnable(channelNum);
2036:Generated_Source\PSoC5/USBFS.c **** 
2037:Generated_Source\PSoC5/USBFS.c ****                 #if !defined (USBFS_MANUAL_IN_EP_ARM)
2038:Generated_Source\PSoC5/USBFS.c ****                     /* Set IN data ready to generate DMA request to load data into endpoint buffer.
2039:Generated_Source\PSoC5/USBFS.c ****                     USBFS_ARB_EP_BASE.arbEp[epNumber].epCfg |= USBFS_ARB_EPX_CFG_IN_DATA_RDY;
2040:Generated_Source\PSoC5/USBFS.c ****                 #endif  /* (USBFS_MANUAL_IN_EP_ARM) */
2041:Generated_Source\PSoC5/USBFS.c **** 
2042:Generated_Source\PSoC5/USBFS.c ****                     /* IN endpoint will be armed in ARB_ISR(source: IN_BUF_FULL) after first DMA tr
2043:Generated_Source\PSoC5/USBFS.c ****                 }
2044:Generated_Source\PSoC5/USBFS.c ****                 else
2045:Generated_Source\PSoC5/USBFS.c ****                 {
2046:Generated_Source\PSoC5/USBFS.c ****                     /* When zero-length packet: arm IN endpoint directly. */
2047:Generated_Source\PSoC5/USBFS.c ****                     USBFS_SIE_EP_BASE.sieEp[epNumber].epCr0 = USBFS_EP[epNumber].epMode;
2048:Generated_Source\PSoC5/USBFS.c ****                 }
2049:Generated_Source\PSoC5/USBFS.c ****             }
2050:Generated_Source\PSoC5/USBFS.c ****         #endif /* (USBFS_EP_MANAGEMENT_DMA_AUTO) */
2051:Generated_Source\PSoC5/USBFS.c ****     #endif /* (USBFS_EP_MANAGEMENT_MANUAL) */
2052:Generated_Source\PSoC5/USBFS.c ****     }
2053:Generated_Source\PSoC5/USBFS.c **** }
2054:Generated_Source\PSoC5/USBFS.c **** 
2055:Generated_Source\PSoC5/USBFS.c **** 
2056:Generated_Source\PSoC5/USBFS.c **** /*******************************************************************************
2057:Generated_Source\PSoC5/USBFS.c **** * Function Name: USBFS_ReadOutEP16
2058:Generated_Source\PSoC5/USBFS.c **** ****************************************************************************//**
2059:Generated_Source\PSoC5/USBFS.c **** *
2060:Generated_Source\PSoC5/USBFS.c **** *   This function performs different functionality depending on the Component’s
2061:Generated_Source\PSoC5/USBFS.c **** *   configured Endpoint Buffer Management. This parameter is defined in the
2062:Generated_Source\PSoC5/USBFS.c **** *   Descriptor Root in Component Configure window.
2063:Generated_Source\PSoC5/USBFS.c **** *
2064:Generated_Source\PSoC5/USBFS.c **** *   *Manual (Static/Dynamic Allocation):*
2065:Generated_Source\PSoC5/USBFS.c **** *   This function moves the specified number of bytes from endpoint buffer to
2066:Generated_Source\PSoC5/USBFS.c **** *   system RAM. The number of bytes actually transferred from endpoint buffer to
2067:Generated_Source\PSoC5/USBFS.c **** *   system RAM is the lesser of the actual number of bytes sent by the host or
2068:Generated_Source\PSoC5/USBFS.c **** *   the number of bytes requested by the length parameter.
2069:Generated_Source\PSoC5/USBFS.c **** *
2070:Generated_Source\PSoC5/USBFS.c **** *   *DMA with Manual Buffer Management:*
2071:Generated_Source\PSoC5/USBFS.c **** *   Configure DMA to transfer data from endpoint buffer to system RAM. Generate
2072:Generated_Source\PSoC5/USBFS.c **** *   a DMA request. The firmware must wait until the DMA completes the data
2073:Generated_Source\PSoC5/USBFS.c **** *   transfer after calling the USBFS_ReadOutEP() API. For example,
2074:Generated_Source\PSoC5/USBFS.c **** *   by checking EPstate:
2075:Generated_Source\PSoC5/USBFS.c **** *
2076:Generated_Source\PSoC5/USBFS.c **** *   \snippet /USBFS_sut_02.cydsn/main.c checking EPstatey
2077:Generated_Source\PSoC5/USBFS.c **** *
2078:Generated_Source\PSoC5/USBFS.c **** *   The USBFS_EnableOutEP() has to be called to allow host to write data into
2079:Generated_Source\PSoC5/USBFS.c **** *   the endpoint buffer after DMA has completed transfer data from OUT endpoint
2080:Generated_Source\PSoC5/USBFS.c **** *   buffer to SRAM.
2081:Generated_Source\PSoC5/USBFS.c **** *
ARM GAS  C:\Users\bkettle\AppData\Local\Temp\cc8tpVDe.s 			page 55


2082:Generated_Source\PSoC5/USBFS.c **** *   *DMA with Automatic Buffer Management:*
2083:Generated_Source\PSoC5/USBFS.c **** *   Configure DMA. This is required only once and automatically generates DMA
2084:Generated_Source\PSoC5/USBFS.c **** *   requests as data arrives
2085:Generated_Source\PSoC5/USBFS.c **** *
2086:Generated_Source\PSoC5/USBFS.c **** *  \param epNumber: Contains the data endpoint number.
2087:Generated_Source\PSoC5/USBFS.c **** *         Valid values are between 1 and 8.
2088:Generated_Source\PSoC5/USBFS.c **** *  \param pData: A pointer to a data array into which the data for the endpoint
2089:Generated_Source\PSoC5/USBFS.c **** *         space is copied. It shall be ensured that this pointer address is
2090:Generated_Source\PSoC5/USBFS.c **** *         even to ensure the 16-bit transfer is aligned to even address. Else,
2091:Generated_Source\PSoC5/USBFS.c **** *         a hard fault condition can occur.
2092:Generated_Source\PSoC5/USBFS.c **** *  \param length: The number of bytes to transfer from the USB Out endpoint and
2093:Generated_Source\PSoC5/USBFS.c **** *         loads it into data array. Valid values are between 0 and 1023. The
2094:Generated_Source\PSoC5/USBFS.c **** *         function moves fewer than the requested number of bytes if the host
2095:Generated_Source\PSoC5/USBFS.c **** *         sends fewer bytes than requested.
2096:Generated_Source\PSoC5/USBFS.c **** *
2097:Generated_Source\PSoC5/USBFS.c **** * \return
2098:Generated_Source\PSoC5/USBFS.c **** *  Number of bytes received, 0 for an invalid endpoint.
2099:Generated_Source\PSoC5/USBFS.c **** *
2100:Generated_Source\PSoC5/USBFS.c **** * \reentrant
2101:Generated_Source\PSoC5/USBFS.c **** *  No.
2102:Generated_Source\PSoC5/USBFS.c **** *
2103:Generated_Source\PSoC5/USBFS.c **** *******************************************************************************/
2104:Generated_Source\PSoC5/USBFS.c **** uint16 USBFS_ReadOutEP16(uint8 epNumber, uint8 pData[], uint16 length)
2105:Generated_Source\PSoC5/USBFS.c **** {
2106:Generated_Source\PSoC5/USBFS.c ****     uint32 adjLength;
2107:Generated_Source\PSoC5/USBFS.c **** 
2108:Generated_Source\PSoC5/USBFS.c ****     /* Check array alignment on half-word boundary */
2109:Generated_Source\PSoC5/USBFS.c ****     CYASSERT(0u == (((uint32) pData) & 0x01u));
2110:Generated_Source\PSoC5/USBFS.c **** 
2111:Generated_Source\PSoC5/USBFS.c ****     if ((pData != NULL) && (epNumber > USBFS_EP0) && (epNumber < USBFS_MAX_EP))
2112:Generated_Source\PSoC5/USBFS.c ****     {
2113:Generated_Source\PSoC5/USBFS.c ****     #if (!USBFS_EP_MANAGEMENT_DMA_AUTO)
2114:Generated_Source\PSoC5/USBFS.c ****         /* Adjust requested length to available data. */
2115:Generated_Source\PSoC5/USBFS.c ****         length = (length > USBFS_GetEPCount(epNumber)) ? USBFS_GetEPCount(epNumber) : length;
2116:Generated_Source\PSoC5/USBFS.c ****     #endif /* (!USBFS_EP_MANAGEMENT_DMA_AUTO) */
2117:Generated_Source\PSoC5/USBFS.c **** 
2118:Generated_Source\PSoC5/USBFS.c ****     /* Adjust requested length: 2 bytes are handled at one data register access. */
2119:Generated_Source\PSoC5/USBFS.c ****     adjLength =  length + ((uint32)length & 1u);
2120:Generated_Source\PSoC5/USBFS.c **** 
2121:Generated_Source\PSoC5/USBFS.c ****     #if (USBFS_EP_MANAGEMENT_MANUAL)
2122:Generated_Source\PSoC5/USBFS.c ****         {
2123:Generated_Source\PSoC5/USBFS.c ****             /* Convert uint8 array to uint16. */
2124:Generated_Source\PSoC5/USBFS.c ****             uint16 *dataBuf = (uint16 *) pData;
2125:Generated_Source\PSoC5/USBFS.c **** 
2126:Generated_Source\PSoC5/USBFS.c ****             /* Copy data using 16-bits arbiter data register. */
2127:Generated_Source\PSoC5/USBFS.c ****             uint16 i;
2128:Generated_Source\PSoC5/USBFS.c ****             for (i = 0u; i < (adjLength >> 1u); ++i)
2129:Generated_Source\PSoC5/USBFS.c ****             {
2130:Generated_Source\PSoC5/USBFS.c ****                 dataBuf[i] = (uint16) USBFS_ARB_EP16_BASE.arbEp[epNumber].rwDr16;
2131:Generated_Source\PSoC5/USBFS.c ****             }
2132:Generated_Source\PSoC5/USBFS.c ****         }
2133:Generated_Source\PSoC5/USBFS.c **** 
2134:Generated_Source\PSoC5/USBFS.c ****         /* Arm OUT endpoint after data has been read from endpoint buffer. */
2135:Generated_Source\PSoC5/USBFS.c ****         USBFS_EnableOutEP(epNumber);
2136:Generated_Source\PSoC5/USBFS.c ****     #else
2137:Generated_Source\PSoC5/USBFS.c **** 
2138:Generated_Source\PSoC5/USBFS.c ****         #if (USBFS_EP_MANAGEMENT_DMA_MANUAL)
ARM GAS  C:\Users\bkettle\AppData\Local\Temp\cc8tpVDe.s 			page 56


2139:Generated_Source\PSoC5/USBFS.c ****         {
2140:Generated_Source\PSoC5/USBFS.c ****             uint32 channelNum = (uint32) USBFS_DmaChan[epNumber];
2141:Generated_Source\PSoC5/USBFS.c **** 
2142:Generated_Source\PSoC5/USBFS.c ****             /* Disable DMA channel: start configuration. */
2143:Generated_Source\PSoC5/USBFS.c ****             USBFS_CyDmaChDisable(channelNum);
2144:Generated_Source\PSoC5/USBFS.c **** 
2145:Generated_Source\PSoC5/USBFS.c ****             /* Configure source and destination. */
2146:Generated_Source\PSoC5/USBFS.c ****             USBFS_CyDmaSetSrcAddress(channelNum, USBFS_DMA_DESCR0, (void*) &USBFS_ARB_EP16_BASE.arb
2147:Generated_Source\PSoC5/USBFS.c ****             USBFS_CyDmaSetDstAddress(channelNum, USBFS_DMA_DESCR0, (void*) pData);
2148:Generated_Source\PSoC5/USBFS.c **** 
2149:Generated_Source\PSoC5/USBFS.c ****             /* Configure DMA descriptor. */
2150:Generated_Source\PSoC5/USBFS.c ****             USBFS_CyDmaSetConfiguration(channelNum, USBFS_DMA_DESCR0, USBFS_DMA_COMMON_CFG | (uint1
2151:Generated_Source\PSoC5/USBFS.c ****                                                     CYDMA_HALFWORD | CYDMA_WORD_ELEMENT | CYDMA_INC
2152:Generated_Source\PSoC5/USBFS.c **** 
2153:Generated_Source\PSoC5/USBFS.c ****             /* Validate descriptor to execute on following DMA request. */
2154:Generated_Source\PSoC5/USBFS.c ****             USBFS_CyDmaValidateDescriptor(channelNum, USBFS_DMA_DESCR0);
2155:Generated_Source\PSoC5/USBFS.c **** 
2156:Generated_Source\PSoC5/USBFS.c ****             /* Enable DMA channel: configuration complete. */
2157:Generated_Source\PSoC5/USBFS.c ****             USBFS_CyDmaChEnable(channelNum);
2158:Generated_Source\PSoC5/USBFS.c **** 
2159:Generated_Source\PSoC5/USBFS.c ****             /* Generate DMA request. */
2160:Generated_Source\PSoC5/USBFS.c ****             USBFS_ARB_EP_BASE.arbEp[epNumber].epCfg |=  (uint32)  USBFS_ARB_EPX_CFG_DMA_REQ;
2161:Generated_Source\PSoC5/USBFS.c ****             USBFS_ARB_EP_BASE.arbEp[epNumber].epCfg &=  (uint32) ~USBFS_ARB_EPX_CFG_DMA_REQ;
2162:Generated_Source\PSoC5/USBFS.c **** 
2163:Generated_Source\PSoC5/USBFS.c ****             /* OUT endpoint has to be armed again by user when DMA transfers have been completed.
2164:Generated_Source\PSoC5/USBFS.c ****             * NO_EVENT_PENDING: notifies that data has been copied from endpoint buffer.
2165:Generated_Source\PSoC5/USBFS.c ****             */
2166:Generated_Source\PSoC5/USBFS.c ****         }
2167:Generated_Source\PSoC5/USBFS.c ****         #endif /* (USBFS_EP_MANAGEMENT_DMA_MANUAL) */
2168:Generated_Source\PSoC5/USBFS.c **** 
2169:Generated_Source\PSoC5/USBFS.c ****         #if (USBFS_EP_MANAGEMENT_DMA_AUTO)
2170:Generated_Source\PSoC5/USBFS.c ****         {
2171:Generated_Source\PSoC5/USBFS.c ****             uint32 lengthDescr0, lengthDescr1;
2172:Generated_Source\PSoC5/USBFS.c ****             uint32 channelNum = (uint32) USBFS_DmaChan[epNumber];
2173:Generated_Source\PSoC5/USBFS.c **** 
2174:Generated_Source\PSoC5/USBFS.c ****             /* Get number of full bursts. */
2175:Generated_Source\PSoC5/USBFS.c ****             USBFS_DmaEpBurstCnt[epNumber] = (uint8) (adjLength / USBFS_DMA_BYTES_PER_BURST);
2176:Generated_Source\PSoC5/USBFS.c **** 
2177:Generated_Source\PSoC5/USBFS.c ****             /* Get number of elements in last burst. */
2178:Generated_Source\PSoC5/USBFS.c ****             USBFS_DmaEpLastBurstEl[epNumber] = (uint8) (adjLength % USBFS_DMA_BYTES_PER_BURST);
2179:Generated_Source\PSoC5/USBFS.c **** 
2180:Generated_Source\PSoC5/USBFS.c ****             /* Get total number of bursts. */
2181:Generated_Source\PSoC5/USBFS.c ****             USBFS_DmaEpBurstCnt[epNumber] += (0u != USBFS_DmaEpLastBurstEl[epNumber]) ? 1u : 0u;
2182:Generated_Source\PSoC5/USBFS.c **** 
2183:Generated_Source\PSoC5/USBFS.c ****             /* Adjust number of data elements transferred in last burst. */
2184:Generated_Source\PSoC5/USBFS.c ****             USBFS_DmaEpLastBurstEl[epNumber] = (0u != USBFS_DmaEpLastBurstEl[epNumber]) ?
2185:Generated_Source\PSoC5/USBFS.c ****                                                                   ((USBFS_DmaEpLastBurstEl[epNumber
2186:Generated_Source\PSoC5/USBFS.c ****                                                                    (USBFS_DMA_HALFWORDS_PER_BURST -
2187:Generated_Source\PSoC5/USBFS.c **** 
2188:Generated_Source\PSoC5/USBFS.c ****             /* Get number of data elements to transfer for descriptor 0 and 1. */
2189:Generated_Source\PSoC5/USBFS.c ****             lengthDescr0 = (1u == USBFS_DmaEpBurstCnt[epNumber]) ? USBFS_DmaEpLastBurstEl[epNumber]
2190:Generated_Source\PSoC5/USBFS.c ****             lengthDescr1 = (2u == USBFS_DmaEpBurstCnt[epNumber]) ? USBFS_DmaEpLastBurstEl[epNumber]
2191:Generated_Source\PSoC5/USBFS.c **** 
2192:Generated_Source\PSoC5/USBFS.c ****             /* Mark last descriptor to be executed. */
2193:Generated_Source\PSoC5/USBFS.c ****             USBFS_DmaEpLastBurstEl[epNumber] |= (0u != (USBFS_DmaEpBurstCnt[epNumber] & 0x1u)) ?
2194:Generated_Source\PSoC5/USBFS.c ****                                                                     USBFS_DMA_DESCR0_MASK : USBFS_D
2195:Generated_Source\PSoC5/USBFS.c **** 
ARM GAS  C:\Users\bkettle\AppData\Local\Temp\cc8tpVDe.s 			page 57


2196:Generated_Source\PSoC5/USBFS.c ****             /* Mark if revert number of data elements in descriptor after transfer completion. */
2197:Generated_Source\PSoC5/USBFS.c ****             USBFS_DmaEpLastBurstEl[epNumber] |= (USBFS_DmaEpBurstCnt[epNumber] > 2u) ? USBFS_DMA_DE
2198:Generated_Source\PSoC5/USBFS.c **** 
2199:Generated_Source\PSoC5/USBFS.c ****             /* Mark that 16-bits access to data register is performed. */
2200:Generated_Source\PSoC5/USBFS.c ****             USBFS_DmaEpLastBurstEl[epNumber] |= USBFS_DMA_DESCR_16BITS;
2201:Generated_Source\PSoC5/USBFS.c **** 
2202:Generated_Source\PSoC5/USBFS.c ****             /* Store address of buffer and burst counter for endpoint. */
2203:Generated_Source\PSoC5/USBFS.c ****             USBFS_DmaEpBufferAddrBackup[epNumber] = (uint32) pData;
2204:Generated_Source\PSoC5/USBFS.c ****             USBFS_DmaEpBurstCntBackup[epNumber]   = USBFS_DmaEpBurstCnt[epNumber];
2205:Generated_Source\PSoC5/USBFS.c **** 
2206:Generated_Source\PSoC5/USBFS.c ****             /* Adjust burst counter taking to account: 2 valid descriptors and interrupt trigger af
2207:Generated_Source\PSoC5/USBFS.c ****             USBFS_DmaEpBurstCnt[epNumber] = USBFS_DMA_GET_BURST_CNT(USBFS_DmaEpBurstCnt[epNumber]);
2208:Generated_Source\PSoC5/USBFS.c **** 
2209:Generated_Source\PSoC5/USBFS.c ****             /* Disable DMA channel: start configuration. */
2210:Generated_Source\PSoC5/USBFS.c ****             USBFS_CyDmaChDisable(channelNum);
2211:Generated_Source\PSoC5/USBFS.c **** 
2212:Generated_Source\PSoC5/USBFS.c ****             /* Set destination address. */
2213:Generated_Source\PSoC5/USBFS.c ****             USBFS_CyDmaSetSrcAddress(channelNum, USBFS_DMA_DESCR0, (void*) &USBFS_ARB_EP16_BASE.arb
2214:Generated_Source\PSoC5/USBFS.c ****             USBFS_CyDmaSetSrcAddress(channelNum, USBFS_DMA_DESCR1, (void*) &USBFS_ARB_EP16_BASE.arb
2215:Generated_Source\PSoC5/USBFS.c **** 
2216:Generated_Source\PSoC5/USBFS.c ****             USBFS_CyDmaSetDstAddress(channelNum, USBFS_DMA_DESCR0, (void*) ((uint32) pData));
2217:Generated_Source\PSoC5/USBFS.c ****             USBFS_CyDmaSetDstAddress(channelNum, USBFS_DMA_DESCR1, (void*) ((uint32) pData + USBFS_
2218:Generated_Source\PSoC5/USBFS.c **** 
2219:Generated_Source\PSoC5/USBFS.c ****             /* Configure DMA descriptor 0. */
2220:Generated_Source\PSoC5/USBFS.c ****             USBFS_CyDmaSetConfiguration(channelNum, USBFS_DMA_DESCR0, USBFS_DMA_COMMON_CFG  | lengt
2221:Generated_Source\PSoC5/USBFS.c ****                                                     CYDMA_HALFWORD | CYDMA_WORD_ELEMENT | CYDMA_INC
2222:Generated_Source\PSoC5/USBFS.c **** 
2223:Generated_Source\PSoC5/USBFS.c ****             /* Configure DMA descriptor 1. */
2224:Generated_Source\PSoC5/USBFS.c ****             USBFS_CyDmaSetConfiguration(channelNum, USBFS_DMA_DESCR1, USBFS_DMA_COMMON_CFG  | lengt
2225:Generated_Source\PSoC5/USBFS.c ****                                                     CYDMA_HALFWORD | CYDMA_WORD_ELEMENT | CYDMA_INC
2226:Generated_Source\PSoC5/USBFS.c **** 
2227:Generated_Source\PSoC5/USBFS.c ****             /* Enable interrupt from DMA channel. */
2228:Generated_Source\PSoC5/USBFS.c ****             USBFS_CyDmaSetInterruptMask(channelNum);
2229:Generated_Source\PSoC5/USBFS.c **** 
2230:Generated_Source\PSoC5/USBFS.c ****             /* Validate DMA descriptor 0 and 1. */
2231:Generated_Source\PSoC5/USBFS.c ****             USBFS_CyDmaValidateDescriptor(channelNum, USBFS_DMA_DESCR0);
2232:Generated_Source\PSoC5/USBFS.c ****             
2233:Generated_Source\PSoC5/USBFS.c ****             if (USBFS_DmaEpBurstCntBackup[epNumber] > 1u)
2234:Generated_Source\PSoC5/USBFS.c ****             {
2235:Generated_Source\PSoC5/USBFS.c ****                 USBFS_CyDmaValidateDescriptor(channelNum, USBFS_DMA_DESCR1);
2236:Generated_Source\PSoC5/USBFS.c ****             }
2237:Generated_Source\PSoC5/USBFS.c **** 
2238:Generated_Source\PSoC5/USBFS.c ****             /* Enable DMA channel: configuration complete. */
2239:Generated_Source\PSoC5/USBFS.c ****             USBFS_CyDmaChEnable(channelNum);
2240:Generated_Source\PSoC5/USBFS.c **** 
2241:Generated_Source\PSoC5/USBFS.c ****             /* OUT endpoint has to be armed again by user when DMA transfers have been completed.
2242:Generated_Source\PSoC5/USBFS.c ****             * NO_EVENT_PENDING: notifies that data has been copied from endpoint buffer.
2243:Generated_Source\PSoC5/USBFS.c ****             */
2244:Generated_Source\PSoC5/USBFS.c ****         }
2245:Generated_Source\PSoC5/USBFS.c ****         #endif /* (USBFS_EP_MANAGEMENT_DMA_AUTO) */
2246:Generated_Source\PSoC5/USBFS.c ****     #endif /* (USBFS_EP_MANAGEMENT_MANUAL) */
2247:Generated_Source\PSoC5/USBFS.c ****     }
2248:Generated_Source\PSoC5/USBFS.c ****     else
2249:Generated_Source\PSoC5/USBFS.c ****     {
2250:Generated_Source\PSoC5/USBFS.c ****         length = 0u;
2251:Generated_Source\PSoC5/USBFS.c ****     }
2252:Generated_Source\PSoC5/USBFS.c **** 
ARM GAS  C:\Users\bkettle\AppData\Local\Temp\cc8tpVDe.s 			page 58


2253:Generated_Source\PSoC5/USBFS.c ****     return (length);
2254:Generated_Source\PSoC5/USBFS.c **** }
2255:Generated_Source\PSoC5/USBFS.c **** #endif /* (USBFS_16BITS_EP_ACCESS_ENABLE) */
2256:Generated_Source\PSoC5/USBFS.c **** 
2257:Generated_Source\PSoC5/USBFS.c **** 
2258:Generated_Source\PSoC5/USBFS.c **** /*******************************************************************************
2259:Generated_Source\PSoC5/USBFS.c **** * Function Name: USBFS_EnableOutEP
2260:Generated_Source\PSoC5/USBFS.c **** ****************************************************************************//**
2261:Generated_Source\PSoC5/USBFS.c **** *
2262:Generated_Source\PSoC5/USBFS.c **** *  This function enables the specified endpoint for OUT transfers. Do not call
2263:Generated_Source\PSoC5/USBFS.c **** *  this function for IN endpoints.
2264:Generated_Source\PSoC5/USBFS.c **** *
2265:Generated_Source\PSoC5/USBFS.c **** *  \param epNumber: Contains the data endpoint number. Valid values are between
2266:Generated_Source\PSoC5/USBFS.c **** *  1 and 8.
2267:Generated_Source\PSoC5/USBFS.c **** *
2268:Generated_Source\PSoC5/USBFS.c **** * \globalvars
2269:Generated_Source\PSoC5/USBFS.c **** *
2270:Generated_Source\PSoC5/USBFS.c **** *  \ref USBFS_EP[epNumber].apiEpState - set to NO_EVENT_PENDING
2271:Generated_Source\PSoC5/USBFS.c **** *
2272:Generated_Source\PSoC5/USBFS.c **** * \reentrant
2273:Generated_Source\PSoC5/USBFS.c **** *  No.
2274:Generated_Source\PSoC5/USBFS.c **** *
2275:Generated_Source\PSoC5/USBFS.c **** *******************************************************************************/
2276:Generated_Source\PSoC5/USBFS.c **** void USBFS_EnableOutEP(uint8 epNumber) 
2277:Generated_Source\PSoC5/USBFS.c **** {
 984              		.loc 1 2277 0
 985              		.cfi_startproc
 986              		@ args = 0, pretend = 0, frame = 0
 987              		@ frame_needed = 0, uses_anonymous_args = 0
 988              		@ link register save eliminated.
 989              	.LVL74:
2278:Generated_Source\PSoC5/USBFS.c ****     if ((epNumber > USBFS_EP0) && (epNumber < USBFS_MAX_EP))
 990              		.loc 1 2278 0
 991 0000 431E     		subs	r3, r0, #1
 992 0002 DBB2     		uxtb	r3, r3
 993 0004 072B     		cmp	r3, #7
 994 0006 0BD8     		bhi	.L65
2279:Generated_Source\PSoC5/USBFS.c ****     {
2280:Generated_Source\PSoC5/USBFS.c ****         USBFS_EP[epNumber].apiEpState = USBFS_NO_EVENT_PENDING;
 995              		.loc 1 2280 0
 996 0008 4200     		lsls	r2, r0, #1
 997 000a 0244     		add	r2, r2, r0
 998 000c 9300     		lsls	r3, r2, #2
 999 000e 054A     		ldr	r2, .L67
 1000 0010 1344     		add	r3, r3, r2
 1001 0012 0022     		movs	r2, #0
 1002 0014 5A70     		strb	r2, [r3, #1]
2281:Generated_Source\PSoC5/USBFS.c **** 
2282:Generated_Source\PSoC5/USBFS.c ****         /* Enable OUT endpoint to be written by Host. */
2283:Generated_Source\PSoC5/USBFS.c ****         USBFS_SIE_EP_BASE.sieEp[epNumber].epCr0 = USBFS_EP[epNumber].epMode;
 1003              		.loc 1 2283 0
 1004 0016 5A79     		ldrb	r2, [r3, #5]	@ zero_extendqisi2
 1005 0018 D2B2     		uxtb	r2, r2
 1006 001a 0001     		lsls	r0, r0, #4
 1007              	.LVL75:
 1008 001c 024B     		ldr	r3, .L67+4
 1009 001e 1A54     		strb	r2, [r3, r0]
ARM GAS  C:\Users\bkettle\AppData\Local\Temp\cc8tpVDe.s 			page 59


 1010              	.L65:
 1011 0020 7047     		bx	lr
 1012              	.L68:
 1013 0022 00BF     		.align	2
 1014              	.L67:
 1015 0024 00000000 		.word	USBFS_EP
 1016 0028 FE5F0040 		.word	1073766398
 1017              		.cfi_endproc
 1018              	.LFE13:
 1019              		.size	USBFS_EnableOutEP, .-USBFS_EnableOutEP
 1020              		.section	.text.USBFS_ReadOutEP,"ax",%progbits
 1021              		.align	2
 1022              		.global	USBFS_ReadOutEP
 1023              		.thumb
 1024              		.thumb_func
 1025              		.type	USBFS_ReadOutEP, %function
 1026              	USBFS_ReadOutEP:
 1027              	.LFB12:
1655:Generated_Source\PSoC5/USBFS.c ****     if ((pData != NULL) && (epNumber > USBFS_EP0) && (epNumber < USBFS_MAX_EP))
 1028              		.loc 1 1655 0
 1029              		.cfi_startproc
 1030              		@ args = 0, pretend = 0, frame = 0
 1031              		@ frame_needed = 0, uses_anonymous_args = 0
 1032              	.LVL76:
 1033 0000 70B5     		push	{r4, r5, r6, lr}
 1034              		.cfi_def_cfa_offset 16
 1035              		.cfi_offset 4, -16
 1036              		.cfi_offset 5, -12
 1037              		.cfi_offset 6, -8
 1038              		.cfi_offset 14, -4
1656:Generated_Source\PSoC5/USBFS.c ****     {
 1039              		.loc 1 1656 0
 1040 0002 D9B1     		cbz	r1, .L74
 1041 0004 0546     		mov	r5, r0
 1042 0006 1446     		mov	r4, r2
 1043 0008 0E46     		mov	r6, r1
1656:Generated_Source\PSoC5/USBFS.c ****     {
 1044              		.loc 1 1656 0 is_stmt 0 discriminator 1
 1045 000a C8B1     		cbz	r0, .L75
1656:Generated_Source\PSoC5/USBFS.c ****     {
 1046              		.loc 1 1656 0 discriminator 2
 1047 000c 0828     		cmp	r0, #8
 1048 000e 19D8     		bhi	.L76
1660:Generated_Source\PSoC5/USBFS.c ****     #endif /* (!USBFS_EP_MANAGEMENT_DMA_AUTO) */
 1049              		.loc 1 1660 0 is_stmt 1
 1050 0010 FFF7FEFF 		bl	USBFS_GetEPCount
 1051              	.LVL77:
 1052 0014 A042     		cmp	r0, r4
 1053 0016 03D2     		bcs	.L71
1660:Generated_Source\PSoC5/USBFS.c ****     #endif /* (!USBFS_EP_MANAGEMENT_DMA_AUTO) */
 1054              		.loc 1 1660 0 is_stmt 0 discriminator 1
 1055 0018 2846     		mov	r0, r5
 1056 001a FFF7FEFF 		bl	USBFS_GetEPCount
 1057              	.LVL78:
 1058 001e 0446     		mov	r4, r0
 1059              	.L71:
 1060              	.LVL79:
ARM GAS  C:\Users\bkettle\AppData\Local\Temp\cc8tpVDe.s 			page 60


 1061              	.LBB4:
1667:Generated_Source\PSoC5/USBFS.c ****             {
 1062              		.loc 1 1667 0 is_stmt 1 discriminator 4
 1063 0020 0023     		movs	r3, #0
 1064 0022 05E0     		b	.L72
 1065              	.LVL80:
 1066              	.L73:
1669:Generated_Source\PSoC5/USBFS.c ****             }
 1067              		.loc 1 1669 0 discriminator 3
 1068 0024 2901     		lsls	r1, r5, #4
 1069 0026 094A     		ldr	r2, .L78
 1070 0028 525C     		ldrb	r2, [r2, r1]	@ zero_extendqisi2
 1071 002a F254     		strb	r2, [r6, r3]
1667:Generated_Source\PSoC5/USBFS.c ****             {
 1072              		.loc 1 1667 0 discriminator 3
 1073 002c 0133     		adds	r3, r3, #1
 1074              	.LVL81:
 1075 002e 9BB2     		uxth	r3, r3
 1076              	.LVL82:
 1077              	.L72:
1667:Generated_Source\PSoC5/USBFS.c ****             {
 1078              		.loc 1 1667 0 is_stmt 0 discriminator 1
 1079 0030 A342     		cmp	r3, r4
 1080 0032 F7D3     		bcc	.L73
 1081              	.LBE4:
1674:Generated_Source\PSoC5/USBFS.c ****     #else
 1082              		.loc 1 1674 0 is_stmt 1
 1083 0034 2846     		mov	r0, r5
 1084 0036 FFF7FEFF 		bl	USBFS_EnableOutEP
 1085              	.LVL83:
 1086 003a 04E0     		b	.L70
 1087              	.LVL84:
 1088              	.L74:
1820:Generated_Source\PSoC5/USBFS.c ****     }
 1089              		.loc 1 1820 0
 1090 003c 0024     		movs	r4, #0
 1091 003e 02E0     		b	.L70
 1092              	.L75:
 1093 0040 0024     		movs	r4, #0
 1094 0042 00E0     		b	.L70
 1095              	.L76:
 1096 0044 0024     		movs	r4, #0
 1097              	.LVL85:
 1098              	.L70:
1824:Generated_Source\PSoC5/USBFS.c **** 
 1099              		.loc 1 1824 0
 1100 0046 2046     		mov	r0, r4
 1101 0048 70BD     		pop	{r4, r5, r6, pc}
 1102              	.LVL86:
 1103              	.L79:
 1104 004a 00BF     		.align	2
 1105              	.L78:
 1106 004c 78600040 		.word	1073766520
 1107              		.cfi_endproc
 1108              	.LFE12:
 1109              		.size	USBFS_ReadOutEP, .-USBFS_ReadOutEP
 1110              		.section	.text.USBFS_DisableOutEP,"ax",%progbits
ARM GAS  C:\Users\bkettle\AppData\Local\Temp\cc8tpVDe.s 			page 61


 1111              		.align	2
 1112              		.global	USBFS_DisableOutEP
 1113              		.thumb
 1114              		.thumb_func
 1115              		.type	USBFS_DisableOutEP, %function
 1116              	USBFS_DisableOutEP:
 1117              	.LFB14:
2284:Generated_Source\PSoC5/USBFS.c ****         
2285:Generated_Source\PSoC5/USBFS.c ****     }
2286:Generated_Source\PSoC5/USBFS.c **** }
2287:Generated_Source\PSoC5/USBFS.c **** 
2288:Generated_Source\PSoC5/USBFS.c **** 
2289:Generated_Source\PSoC5/USBFS.c **** /*******************************************************************************
2290:Generated_Source\PSoC5/USBFS.c **** * Function Name: USBFS_DisableOutEP
2291:Generated_Source\PSoC5/USBFS.c **** ****************************************************************************//**
2292:Generated_Source\PSoC5/USBFS.c **** *
2293:Generated_Source\PSoC5/USBFS.c **** *  This function disables the specified USBFS OUT endpoint. Do not call this
2294:Generated_Source\PSoC5/USBFS.c **** *  function for IN endpoints.
2295:Generated_Source\PSoC5/USBFS.c **** *
2296:Generated_Source\PSoC5/USBFS.c **** *  \param epNumber: Contains the data endpoint number.
2297:Generated_Source\PSoC5/USBFS.c **** *            Valid values are between 1 and 8.
2298:Generated_Source\PSoC5/USBFS.c **** *
2299:Generated_Source\PSoC5/USBFS.c **** *******************************************************************************/
2300:Generated_Source\PSoC5/USBFS.c **** void USBFS_DisableOutEP(uint8 epNumber) 
2301:Generated_Source\PSoC5/USBFS.c **** {
 1118              		.loc 1 2301 0
 1119              		.cfi_startproc
 1120              		@ args = 0, pretend = 0, frame = 0
 1121              		@ frame_needed = 0, uses_anonymous_args = 0
 1122              		@ link register save eliminated.
 1123              	.LVL87:
2302:Generated_Source\PSoC5/USBFS.c ****     if ((epNumber > USBFS_EP0) && (epNumber < USBFS_MAX_EP))
 1124              		.loc 1 2302 0
 1125 0000 431E     		subs	r3, r0, #1
 1126 0002 DBB2     		uxtb	r3, r3
 1127 0004 072B     		cmp	r3, #7
 1128 0006 03D8     		bhi	.L80
2303:Generated_Source\PSoC5/USBFS.c ****     {
2304:Generated_Source\PSoC5/USBFS.c ****         /* Set NAK response for OUT endpoint. */
2305:Generated_Source\PSoC5/USBFS.c ****         USBFS_SIE_EP_BASE.sieEp[epNumber].epCr0 = USBFS_MODE_NAK_OUT;
 1129              		.loc 1 2305 0
 1130 0008 0001     		lsls	r0, r0, #4
 1131              	.LVL88:
 1132 000a 024B     		ldr	r3, .L82
 1133 000c 0822     		movs	r2, #8
 1134 000e 1A54     		strb	r2, [r3, r0]
 1135              	.L80:
 1136 0010 7047     		bx	lr
 1137              	.L83:
 1138 0012 00BF     		.align	2
 1139              	.L82:
 1140 0014 FE5F0040 		.word	1073766398
 1141              		.cfi_endproc
 1142              	.LFE14:
 1143              		.size	USBFS_DisableOutEP, .-USBFS_DisableOutEP
 1144              		.section	.text.USBFS_Force,"ax",%progbits
 1145              		.align	2
ARM GAS  C:\Users\bkettle\AppData\Local\Temp\cc8tpVDe.s 			page 62


 1146              		.global	USBFS_Force
 1147              		.thumb
 1148              		.thumb_func
 1149              		.type	USBFS_Force, %function
 1150              	USBFS_Force:
 1151              	.LFB15:
2306:Generated_Source\PSoC5/USBFS.c ****     }
2307:Generated_Source\PSoC5/USBFS.c **** }
2308:Generated_Source\PSoC5/USBFS.c **** 
2309:Generated_Source\PSoC5/USBFS.c **** 
2310:Generated_Source\PSoC5/USBFS.c **** /*******************************************************************************
2311:Generated_Source\PSoC5/USBFS.c **** * Function Name: USBFS_Force
2312:Generated_Source\PSoC5/USBFS.c **** ****************************************************************************//**
2313:Generated_Source\PSoC5/USBFS.c **** *
2314:Generated_Source\PSoC5/USBFS.c **** *  This function forces a USB J, K, or SE0 state on the D+/D– lines. It provides
2315:Generated_Source\PSoC5/USBFS.c **** *  the necessary mechanism for a USB device application to perform a USB Remote
2316:Generated_Source\PSoC5/USBFS.c **** *  Wakeup. For more information, see the USB 2.0 Specification for details on
2317:Generated_Source\PSoC5/USBFS.c **** *  Suspend and Resume.
2318:Generated_Source\PSoC5/USBFS.c **** *
2319:Generated_Source\PSoC5/USBFS.c **** *  \param state A byte indicating which of the four bus states to enable.
2320:Generated_Source\PSoC5/USBFS.c **** *        Symbolic names  and their associated values are listed here:
2321:Generated_Source\PSoC5/USBFS.c **** *    State                      |Description
2322:Generated_Source\PSoC5/USBFS.c **** *    ---------------------------|----------------------------------------------
2323:Generated_Source\PSoC5/USBFS.c **** *    USBFS_FORCE_J   | Force a J State onto the D+/D– lines
2324:Generated_Source\PSoC5/USBFS.c **** *    USBFS_FORCE_K   | Force a K State onto the D+/D– lines
2325:Generated_Source\PSoC5/USBFS.c **** *    USBFS_FORCE_SE0 | Force a Single Ended 0 onto the D+/D– lines
2326:Generated_Source\PSoC5/USBFS.c **** *    USBFS_FORCE_NONE| Return bus to SIE control
2327:Generated_Source\PSoC5/USBFS.c **** *
2328:Generated_Source\PSoC5/USBFS.c **** *
2329:Generated_Source\PSoC5/USBFS.c **** *******************************************************************************/
2330:Generated_Source\PSoC5/USBFS.c **** void USBFS_Force(uint8 bState) 
2331:Generated_Source\PSoC5/USBFS.c **** {
 1152              		.loc 1 2331 0
 1153              		.cfi_startproc
 1154              		@ args = 0, pretend = 0, frame = 0
 1155              		@ frame_needed = 0, uses_anonymous_args = 0
 1156              		@ link register save eliminated.
 1157              	.LVL89:
2332:Generated_Source\PSoC5/USBFS.c ****     /* This registers is used only for manual control of SIE (no masking is
2333:Generated_Source\PSoC5/USBFS.c ****     * needed before write into it).
2334:Generated_Source\PSoC5/USBFS.c ****     */
2335:Generated_Source\PSoC5/USBFS.c ****     USBFS_USBIO_CR0_REG = bState;
 1158              		.loc 1 2335 0
 1159 0000 014B     		ldr	r3, .L85
 1160 0002 1870     		strb	r0, [r3]
 1161 0004 7047     		bx	lr
 1162              	.L86:
 1163 0006 00BF     		.align	2
 1164              	.L85:
 1165 0008 10600040 		.word	1073766416
 1166              		.cfi_endproc
 1167              	.LFE15:
 1168              		.size	USBFS_Force, .-USBFS_Force
 1169              		.section	.text.USBFS_GetEPAckState,"ax",%progbits
 1170              		.align	2
 1171              		.global	USBFS_GetEPAckState
 1172              		.thumb
ARM GAS  C:\Users\bkettle\AppData\Local\Temp\cc8tpVDe.s 			page 63


 1173              		.thumb_func
 1174              		.type	USBFS_GetEPAckState, %function
 1175              	USBFS_GetEPAckState:
 1176              	.LFB16:
2336:Generated_Source\PSoC5/USBFS.c **** }
2337:Generated_Source\PSoC5/USBFS.c **** 
2338:Generated_Source\PSoC5/USBFS.c **** 
2339:Generated_Source\PSoC5/USBFS.c **** /*******************************************************************************
2340:Generated_Source\PSoC5/USBFS.c **** * Function Name: USBFS_GetEPAckState
2341:Generated_Source\PSoC5/USBFS.c **** ****************************************************************************//**
2342:Generated_Source\PSoC5/USBFS.c **** *
2343:Generated_Source\PSoC5/USBFS.c **** *  This function determines whether an ACK transaction occurred on this endpoint
2344:Generated_Source\PSoC5/USBFS.c **** *  by reading the ACK bit in the control register of the endpoint. It does not
2345:Generated_Source\PSoC5/USBFS.c **** *  clear the ACK bit.
2346:Generated_Source\PSoC5/USBFS.c **** *
2347:Generated_Source\PSoC5/USBFS.c **** *  \param epNumber Contains the data endpoint number.
2348:Generated_Source\PSoC5/USBFS.c **** *            Valid values are between 1 and 8.
2349:Generated_Source\PSoC5/USBFS.c **** *
2350:Generated_Source\PSoC5/USBFS.c **** *  \return
2351:Generated_Source\PSoC5/USBFS.c **** *  If an ACKed transaction occurred, this function returns a non-zero value.
2352:Generated_Source\PSoC5/USBFS.c **** *  Otherwise, it returns zero.
2353:Generated_Source\PSoC5/USBFS.c **** *
2354:Generated_Source\PSoC5/USBFS.c **** *******************************************************************************/
2355:Generated_Source\PSoC5/USBFS.c **** uint8 USBFS_GetEPAckState(uint8 epNumber) 
2356:Generated_Source\PSoC5/USBFS.c **** {
 1177              		.loc 1 2356 0
 1178              		.cfi_startproc
 1179              		@ args = 0, pretend = 0, frame = 0
 1180              		@ frame_needed = 0, uses_anonymous_args = 0
 1181              		@ link register save eliminated.
 1182              	.LVL90:
2357:Generated_Source\PSoC5/USBFS.c ****     uint8 cr = 0u;
2358:Generated_Source\PSoC5/USBFS.c **** 
2359:Generated_Source\PSoC5/USBFS.c ****     if ((epNumber > USBFS_EP0) && (epNumber < USBFS_MAX_EP))
 1183              		.loc 1 2359 0
 1184 0000 431E     		subs	r3, r0, #1
 1185 0002 DBB2     		uxtb	r3, r3
 1186 0004 072B     		cmp	r3, #7
 1187 0006 06D8     		bhi	.L89
2360:Generated_Source\PSoC5/USBFS.c ****     {
2361:Generated_Source\PSoC5/USBFS.c ****         cr = USBFS_SIE_EP_BASE.sieEp[epNumber].epCr0 & USBFS_MODE_ACKD;
 1188              		.loc 1 2361 0
 1189 0008 0001     		lsls	r0, r0, #4
 1190              	.LVL91:
 1191 000a 044B     		ldr	r3, .L90
 1192 000c 185C     		ldrb	r0, [r3, r0]	@ zero_extendqisi2
 1193 000e 00F01000 		and	r0, r0, #16
 1194 0012 C0B2     		uxtb	r0, r0
 1195              	.LVL92:
 1196 0014 7047     		bx	lr
 1197              	.LVL93:
 1198              	.L89:
2357:Generated_Source\PSoC5/USBFS.c ****     uint8 cr = 0u;
 1199              		.loc 1 2357 0
 1200 0016 0020     		movs	r0, #0
 1201              	.LVL94:
2362:Generated_Source\PSoC5/USBFS.c ****     }
ARM GAS  C:\Users\bkettle\AppData\Local\Temp\cc8tpVDe.s 			page 64


2363:Generated_Source\PSoC5/USBFS.c **** 
2364:Generated_Source\PSoC5/USBFS.c ****     return ((uint8) cr);
2365:Generated_Source\PSoC5/USBFS.c **** }
 1202              		.loc 1 2365 0
 1203 0018 7047     		bx	lr
 1204              	.L91:
 1205 001a 00BF     		.align	2
 1206              	.L90:
 1207 001c FE5F0040 		.word	1073766398
 1208              		.cfi_endproc
 1209              	.LFE16:
 1210              		.size	USBFS_GetEPAckState, .-USBFS_GetEPAckState
 1211              		.section	.text.USBFS_SetPowerStatus,"ax",%progbits
 1212              		.align	2
 1213              		.global	USBFS_SetPowerStatus
 1214              		.thumb
 1215              		.thumb_func
 1216              		.type	USBFS_SetPowerStatus, %function
 1217              	USBFS_SetPowerStatus:
 1218              	.LFB17:
2366:Generated_Source\PSoC5/USBFS.c **** 
2367:Generated_Source\PSoC5/USBFS.c **** 
2368:Generated_Source\PSoC5/USBFS.c **** /*******************************************************************************
2369:Generated_Source\PSoC5/USBFS.c **** * Function Name: USBFS_SetPowerStatus
2370:Generated_Source\PSoC5/USBFS.c **** ****************************************************************************//**
2371:Generated_Source\PSoC5/USBFS.c **** *
2372:Generated_Source\PSoC5/USBFS.c **** *  This function sets the current power status. The device replies to USB
2373:Generated_Source\PSoC5/USBFS.c **** *  GET_STATUS requests based on this value. This allows the device to properly
2374:Generated_Source\PSoC5/USBFS.c **** *  report its status for USB Chapter 9 compliance. Devices can change their
2375:Generated_Source\PSoC5/USBFS.c **** *  power source from self powered to bus powered at any time and report their
2376:Generated_Source\PSoC5/USBFS.c **** *  current power source as part of the device status. You should call this
2377:Generated_Source\PSoC5/USBFS.c **** *  function any time your device changes from self powered to bus powered or
2378:Generated_Source\PSoC5/USBFS.c **** *  vice versa, and set the status appropriately.
2379:Generated_Source\PSoC5/USBFS.c **** *
2380:Generated_Source\PSoC5/USBFS.c **** *  \param powerStatus: Contains the desired power status, one for self powered
2381:Generated_Source\PSoC5/USBFS.c **** *        or zero for bus powered. Symbolic names and their associated values are
2382:Generated_Source\PSoC5/USBFS.c **** *        given here:
2383:Generated_Source\PSoC5/USBFS.c **** *  Power Status                                |Description
2384:Generated_Source\PSoC5/USBFS.c **** *  --------------------------------------------|---------------------------
2385:Generated_Source\PSoC5/USBFS.c **** *  USBFS_DEVICE_STATUS_BUS_POWERED  | Set the device to bus powered
2386:Generated_Source\PSoC5/USBFS.c **** *  USBFS_DEVICE_STATUS_SELF_POWERED | Set the device to self powered
2387:Generated_Source\PSoC5/USBFS.c **** *
2388:Generated_Source\PSoC5/USBFS.c **** * \globalvars
2389:Generated_Source\PSoC5/USBFS.c **** *
2390:Generated_Source\PSoC5/USBFS.c **** *  \ref USBFS_deviceStatus - set power status
2391:Generated_Source\PSoC5/USBFS.c **** *
2392:Generated_Source\PSoC5/USBFS.c **** * \reentrant
2393:Generated_Source\PSoC5/USBFS.c **** *  No.
2394:Generated_Source\PSoC5/USBFS.c **** *
2395:Generated_Source\PSoC5/USBFS.c **** *******************************************************************************/
2396:Generated_Source\PSoC5/USBFS.c **** void USBFS_SetPowerStatus(uint8 powerStatus) 
2397:Generated_Source\PSoC5/USBFS.c **** {
 1219              		.loc 1 2397 0
 1220              		.cfi_startproc
 1221              		@ args = 0, pretend = 0, frame = 0
 1222              		@ frame_needed = 0, uses_anonymous_args = 0
 1223              		@ link register save eliminated.
ARM GAS  C:\Users\bkettle\AppData\Local\Temp\cc8tpVDe.s 			page 65


 1224              	.LVL95:
2398:Generated_Source\PSoC5/USBFS.c ****     if (powerStatus != USBFS_DEVICE_STATUS_BUS_POWERED)
 1225              		.loc 1 2398 0
 1226 0000 28B1     		cbz	r0, .L93
2399:Generated_Source\PSoC5/USBFS.c ****     {
2400:Generated_Source\PSoC5/USBFS.c ****         USBFS_deviceStatus |= (uint8)  USBFS_DEVICE_STATUS_SELF_POWERED;
 1227              		.loc 1 2400 0
 1228 0002 064A     		ldr	r2, .L95
 1229 0004 1378     		ldrb	r3, [r2]	@ zero_extendqisi2
 1230 0006 43F00103 		orr	r3, r3, #1
 1231 000a 1370     		strb	r3, [r2]
 1232 000c 7047     		bx	lr
 1233              	.L93:
2401:Generated_Source\PSoC5/USBFS.c ****     }
2402:Generated_Source\PSoC5/USBFS.c ****     else
2403:Generated_Source\PSoC5/USBFS.c ****     {
2404:Generated_Source\PSoC5/USBFS.c ****         USBFS_deviceStatus &= (uint8) ~USBFS_DEVICE_STATUS_SELF_POWERED;
 1234              		.loc 1 2404 0
 1235 000e 034A     		ldr	r2, .L95
 1236 0010 1378     		ldrb	r3, [r2]	@ zero_extendqisi2
 1237 0012 03F0FE03 		and	r3, r3, #254
 1238 0016 1370     		strb	r3, [r2]
 1239 0018 7047     		bx	lr
 1240              	.L96:
 1241 001a 00BF     		.align	2
 1242              	.L95:
 1243 001c 00000000 		.word	USBFS_deviceStatus
 1244              		.cfi_endproc
 1245              	.LFE17:
 1246              		.size	USBFS_SetPowerStatus, .-USBFS_SetPowerStatus
 1247              		.section	.text.USBFS_RWUEnabled,"ax",%progbits
 1248              		.align	2
 1249              		.global	USBFS_RWUEnabled
 1250              		.thumb
 1251              		.thumb_func
 1252              		.type	USBFS_RWUEnabled, %function
 1253              	USBFS_RWUEnabled:
 1254              	.LFB18:
2405:Generated_Source\PSoC5/USBFS.c ****     }
2406:Generated_Source\PSoC5/USBFS.c **** }
2407:Generated_Source\PSoC5/USBFS.c **** 
2408:Generated_Source\PSoC5/USBFS.c **** 
2409:Generated_Source\PSoC5/USBFS.c **** #if (USBFS_VBUS_MONITORING_ENABLE)
2410:Generated_Source\PSoC5/USBFS.c ****     /***************************************************************************
