ARM GAS  C:\Users\bkettle\AppData\Local\Temp\cc41PAIz.s 			page 1


   1              		.syntax unified
   2              		.cpu cortex-m3
   3              		.fpu softvfp
   4              		.eabi_attribute 20, 1
   5              		.eabi_attribute 21, 1
   6              		.eabi_attribute 23, 3
   7              		.eabi_attribute 24, 1
   8              		.eabi_attribute 25, 1
   9              		.eabi_attribute 26, 1
  10              		.eabi_attribute 30, 1
  11              		.eabi_attribute 34, 1
  12              		.eabi_attribute 18, 4
  13              		.thumb
  14              		.syntax unified
  15              		.file	"main.c"
  16              		.text
  17              	.Ltext0:
  18              		.cfi_sections	.debug_frame
  19              		.section	.text.USB_print,"ax",%progbits
  20              		.align	2
  21              		.thumb
  22              		.thumb_func
  23              		.type	USB_print, %function
  24              	USB_print:
  25              	.LFB65:
  26              		.file 1 "main.c"
   1:main.c        **** /* ========================================
   2:main.c        ****  *
   3:main.c        ****  * Copyright YOUR COMPANY, THE YEAR
   4:main.c        ****  * All Rights Reserved
   5:main.c        ****  * UNPUBLISHED, LICENSED SOFTWARE.
   6:main.c        ****  *
   7:main.c        ****  * CONFIDENTIAL AND PROPRIETARY INFORMATION
   8:main.c        ****  * WHICH IS THE PROPERTY OF your company.
   9:main.c        ****  *
  10:main.c        ****  * ========================================
  11:main.c        **** */
  12:main.c        **** #include "project.h"
  13:main.c        **** #include <stdbool.h>
  14:main.c        **** 
  15:main.c        **** enum
  16:main.c        **** {
  17:main.c        ****     EP_KEYBOARD_IN = 4,
  18:main.c        ****     EP_KEYBOARD_OUT = 5
  19:main.c        **** };
  20:main.c        **** 
  21:main.c        **** int8 KB_Data[8] = {0, 0, 0, 0, 0, 0, 0, 0}; // [0]: Modifiers [1]: reserved [2:7]: Key codes
  22:main.c        **** typedef struct {
  23:main.c        ****     int uid;
  24:main.c        ****     bool uppercase;
  25:main.c        **** } hid_usage;
  26:main.c        **** 
  27:main.c        **** // this will start at ascii 32 to get to keyboard values
  28:main.c        **** hid_usage ascii_to_hid[] = {
  29:main.c        ****     {0x2c, 0}, {0x1e, 1}, {0x34, 1}, {0x20, 1}, {0x21, 1}, {0x22, 1}, {0x24, 1}, {0x34, 0}, {0x26, 
  30:main.c        ****     {0x27, 0}, {0x1e, 0}, {0x1f, 0}, {0x20, 0}, {0x21, 0}, {0x22, 0}, {0x23, 0}, {0x24, 0}, {0x25, 
  31:main.c        ****     {0x1f, 1}, {0x04, 1}, {0x05, 1}, {0x06, 1}, {0x07, 1}, {0x08, 1}, {0x09, 1}, {0x0a, 1}, {0x0b, 
ARM GAS  C:\Users\bkettle\AppData\Local\Temp\cc41PAIz.s 			page 2


  32:main.c        ****     {0x13, 1}, {0x14, 1}, {0x15, 1}, {0x16, 1}, {0x17, 1}, {0x18, 1}, {0x19, 1}, {0x1a, 1}, {0x1b, 
  33:main.c        ****     {0x35, 0}, {0x04, 0}, {0x05, 0}, {0x06, 0}, {0x07, 0}, {0x08, 0}, {0x09, 0}, {0x0a, 0}, {0x0b, 
  34:main.c        ****     {0x13, 0}, {0x14, 0}, {0x15, 0}, {0x16, 0}, {0x17, 0}, {0x18, 0}, {0x19, 0}, {0x1a, 0}, {0x1b, 
  35:main.c        **** };
  36:main.c        **** 
  37:main.c        **** void KB_TypeChar(hid_usage hid_id) {
  38:main.c        ****     // send the current char
  39:main.c        ****     while(!USBFS_GetEPAckState(EP_KEYBOARD_IN));  			/* Wait for ACK before loading data */
  40:main.c        ****     KB_Data[2] = hid_id.uid;
  41:main.c        ****     KB_Data[0] = 2*(int)hid_id.uppercase;
  42:main.c        ****     USBFS_LoadInEP(EP_KEYBOARD_IN, (uint8 *)KB_Data, 8); 	/* Load latest mouse data into EP1 and se
  43:main.c        ****     
  44:main.c        ****     // send a blank keystroke to clear the state of shift
  45:main.c        ****     while(!USBFS_GetEPAckState(EP_KEYBOARD_IN));  			/* Wait for ACK before loading data */
  46:main.c        ****     KB_Data[2] = 0;
  47:main.c        ****     KB_Data[0] = 0;
  48:main.c        ****     USBFS_LoadInEP(EP_KEYBOARD_IN, (uint8 *)KB_Data, 8); 	/* Load latest mouse data into EP1 and se
  49:main.c        **** }
  50:main.c        **** 
  51:main.c        **** void ascii_test() {
  52:main.c        ****     for (unsigned int i=0;i<95;i++){
  53:main.c        ****         LED_Write(0);
  54:main.c        ****         KB_TypeChar(ascii_to_hid[i]);
  55:main.c        ****         LED_Write(1);
  56:main.c        ****     }
  57:main.c        **** }
  58:main.c        **** 
  59:main.c        **** static void USB_print(const char* s)
  60:main.c        **** {
  27              		.loc 1 60 0
  28              		.cfi_startproc
  29              		@ args = 0, pretend = 0, frame = 0
  30              		@ frame_needed = 0, uses_anonymous_args = 0
  31              	.LVL0:
  32 0000 10B5     		push	{r4, lr}
  33              		.cfi_def_cfa_offset 8
  34              		.cfi_offset 4, -8
  35              		.cfi_offset 14, -4
  36 0002 0446     		mov	r4, r0
  37              	.LVL1:
  38              	.L2:
  61:main.c        ****     while (!USBFS_CDCIsReady())
  39              		.loc 1 61 0 discriminator 1
  40 0004 FFF7FEFF 		bl	USBFS_CDCIsReady
  41              	.LVL2:
  42 0008 0028     		cmp	r0, #0
  43 000a FBD0     		beq	.L2
  62:main.c        ****         ;
  63:main.c        ****     USBFS_PutString(s);
  44              		.loc 1 63 0
  45 000c 2046     		mov	r0, r4
  46 000e FFF7FEFF 		bl	USBFS_PutString
  47              	.LVL3:
  48 0012 10BD     		pop	{r4, pc}
  49              		.cfi_endproc
  50              	.LFE65:
  51              		.size	USB_print, .-USB_print
ARM GAS  C:\Users\bkettle\AppData\Local\Temp\cc41PAIz.s 			page 3


  52              		.section	.text.KB_TypeChar,"ax",%progbits
  53              		.align	2
  54              		.global	KB_TypeChar
  55              		.thumb
  56              		.thumb_func
  57              		.type	KB_TypeChar, %function
  58              	KB_TypeChar:
  59              	.LFB63:
  37:main.c        ****     // send the current char
  60              		.loc 1 37 0
  61              		.cfi_startproc
  62              		@ args = 0, pretend = 0, frame = 8
  63              		@ frame_needed = 0, uses_anonymous_args = 0
  64 0000 00B5     		push	{lr}
  65              		.cfi_def_cfa_offset 4
  66              		.cfi_offset 14, -4
  67 0002 83B0     		sub	sp, sp, #12
  68              		.cfi_def_cfa_offset 16
  69 0004 02AB     		add	r3, sp, #8
  70 0006 03E90300 		stmdb	r3, {r0, r1}
  71              	.L5:
  39:main.c        ****     KB_Data[2] = hid_id.uid;
  72              		.loc 1 39 0 discriminator 1
  73 000a 0420     		movs	r0, #4
  74 000c FFF7FEFF 		bl	USBFS_GetEPAckState
  75              	.LVL4:
  76 0010 0028     		cmp	r0, #0
  77 0012 FAD0     		beq	.L5
  40:main.c        ****     KB_Data[0] = 2*(int)hid_id.uppercase;
  78              		.loc 1 40 0
  79 0014 0D49     		ldr	r1, .L8
  80 0016 009B     		ldr	r3, [sp]
  81 0018 8B70     		strb	r3, [r1, #2]
  41:main.c        ****     USBFS_LoadInEP(EP_KEYBOARD_IN, (uint8 *)KB_Data, 8); 	/* Load latest mouse data into EP1 and se
  82              		.loc 1 41 0
  83 001a 9DF80430 		ldrb	r3, [sp, #4]	@ zero_extendqisi2
  84 001e 5B00     		lsls	r3, r3, #1
  85 0020 0B70     		strb	r3, [r1]
  42:main.c        ****     
  86              		.loc 1 42 0
  87 0022 0822     		movs	r2, #8
  88 0024 0420     		movs	r0, #4
  89 0026 FFF7FEFF 		bl	USBFS_LoadInEP
  90              	.LVL5:
  91              	.L6:
  45:main.c        ****     KB_Data[2] = 0;
  92              		.loc 1 45 0 discriminator 1
  93 002a 0420     		movs	r0, #4
  94 002c FFF7FEFF 		bl	USBFS_GetEPAckState
  95              	.LVL6:
  96 0030 0028     		cmp	r0, #0
  97 0032 FAD0     		beq	.L6
  46:main.c        ****     KB_Data[0] = 0;
  98              		.loc 1 46 0
  99 0034 0549     		ldr	r1, .L8
 100 0036 0023     		movs	r3, #0
 101 0038 8B70     		strb	r3, [r1, #2]
ARM GAS  C:\Users\bkettle\AppData\Local\Temp\cc41PAIz.s 			page 4


  47:main.c        ****     USBFS_LoadInEP(EP_KEYBOARD_IN, (uint8 *)KB_Data, 8); 	/* Load latest mouse data into EP1 and se
 102              		.loc 1 47 0
 103 003a 0B70     		strb	r3, [r1]
  48:main.c        **** }
 104              		.loc 1 48 0
 105 003c 0822     		movs	r2, #8
 106 003e 0420     		movs	r0, #4
 107 0040 FFF7FEFF 		bl	USBFS_LoadInEP
 108              	.LVL7:
  49:main.c        **** 
 109              		.loc 1 49 0
 110 0044 03B0     		add	sp, sp, #12
 111              		.cfi_def_cfa_offset 4
 112              		@ sp needed
 113 0046 5DF804FB 		ldr	pc, [sp], #4
 114              	.L9:
 115 004a 00BF     		.align	2
 116              	.L8:
 117 004c 00000000 		.word	.LANCHOR0
 118              		.cfi_endproc
 119              	.LFE63:
 120              		.size	KB_TypeChar, .-KB_TypeChar
 121              		.section	.text.ascii_test,"ax",%progbits
 122              		.align	2
 123              		.global	ascii_test
 124              		.thumb
 125              		.thumb_func
 126              		.type	ascii_test, %function
 127              	ascii_test:
 128              	.LFB64:
  51:main.c        ****     for (unsigned int i=0;i<95;i++){
 129              		.loc 1 51 0
 130              		.cfi_startproc
 131              		@ args = 0, pretend = 0, frame = 0
 132              		@ frame_needed = 0, uses_anonymous_args = 0
 133 0000 10B5     		push	{r4, lr}
 134              		.cfi_def_cfa_offset 8
 135              		.cfi_offset 4, -8
 136              		.cfi_offset 14, -4
 137              	.LVL8:
 138              	.LBB2:
  52:main.c        ****         LED_Write(0);
 139              		.loc 1 52 0
 140 0002 0024     		movs	r4, #0
 141 0004 0DE0     		b	.L11
 142              	.LVL9:
 143              	.L12:
  53:main.c        ****         KB_TypeChar(ascii_to_hid[i]);
 144              		.loc 1 53 0 discriminator 3
 145 0006 0020     		movs	r0, #0
 146 0008 FFF7FEFF 		bl	LED_Write
 147              	.LVL10:
  54:main.c        ****         LED_Write(1);
 148              		.loc 1 54 0 discriminator 3
 149 000c 064B     		ldr	r3, .L14
 150 000e 03EBC403 		add	r3, r3, r4, lsl #3
 151 0012 93E80300 		ldmia	r3, {r0, r1}
ARM GAS  C:\Users\bkettle\AppData\Local\Temp\cc41PAIz.s 			page 5


 152 0016 FFF7FEFF 		bl	KB_TypeChar
 153              	.LVL11:
  55:main.c        ****     }
 154              		.loc 1 55 0 discriminator 3
 155 001a 0120     		movs	r0, #1
 156 001c FFF7FEFF 		bl	LED_Write
 157              	.LVL12:
  52:main.c        ****         LED_Write(0);
 158              		.loc 1 52 0 discriminator 3
 159 0020 0134     		adds	r4, r4, #1
 160              	.LVL13:
 161              	.L11:
  52:main.c        ****         LED_Write(0);
 162              		.loc 1 52 0 is_stmt 0 discriminator 1
 163 0022 5E2C     		cmp	r4, #94
 164 0024 EFD9     		bls	.L12
 165              	.LBE2:
  57:main.c        **** 
 166              		.loc 1 57 0 is_stmt 1
 167 0026 10BD     		pop	{r4, pc}
 168              	.LVL14:
 169              	.L15:
 170              		.align	2
 171              	.L14:
 172 0028 00000000 		.word	.LANCHOR1
 173              		.cfi_endproc
 174              	.LFE64:
 175              		.size	ascii_test, .-ascii_test
 176              		.section	.text.KB_TypeString,"ax",%progbits
 177              		.align	2
 178              		.global	KB_TypeString
 179              		.thumb
 180              		.thumb_func
 181              		.type	KB_TypeString, %function
 182              	KB_TypeString:
 183              	.LFB66:
  64:main.c        **** }
  65:main.c        **** 
  66:main.c        **** void KB_TypeString(char* str_to_type) {
 184              		.loc 1 66 0
 185              		.cfi_startproc
 186              		@ args = 0, pretend = 0, frame = 0
 187              		@ frame_needed = 0, uses_anonymous_args = 0
 188              	.LVL15:
 189 0000 38B5     		push	{r3, r4, r5, lr}
 190              		.cfi_def_cfa_offset 16
 191              		.cfi_offset 3, -16
 192              		.cfi_offset 4, -12
 193              		.cfi_offset 5, -8
 194              		.cfi_offset 14, -4
 195 0002 0546     		mov	r5, r0
 196              	.LVL16:
 197              	.LBB3:
  67:main.c        ****     for (unsigned int i = 0; i<strlen(str_to_type); i++) {
 198              		.loc 1 67 0
 199 0004 0024     		movs	r4, #0
 200 0006 0AE0     		b	.L17
ARM GAS  C:\Users\bkettle\AppData\Local\Temp\cc41PAIz.s 			page 6


 201              	.LVL17:
 202              	.L18:
 203              	.LBB4:
  68:main.c        ****         // the ascii to hid table starts at ascii 32
  69:main.c        ****         int shifted_ascii = (int) str_to_type[i] - 32;
 204              		.loc 1 69 0 discriminator 3
 205 0008 2B5D     		ldrb	r3, [r5, r4]	@ zero_extendqisi2
 206 000a A3F12002 		sub	r2, r3, #32
 207              	.LVL18:
  70:main.c        ****         // type the current character
  71:main.c        ****         KB_TypeChar(ascii_to_hid[shifted_ascii]);
 208              		.loc 1 71 0 discriminator 3
 209 000e 0A4B     		ldr	r3, .L21
 210 0010 03EBC203 		add	r3, r3, r2, lsl #3
 211 0014 93E80300 		ldmia	r3, {r0, r1}
 212 0018 FFF7FEFF 		bl	KB_TypeChar
 213              	.LVL19:
 214              	.LBE4:
  67:main.c        ****         // the ascii to hid table starts at ascii 32
 215              		.loc 1 67 0 discriminator 3
 216 001c 0134     		adds	r4, r4, #1
 217              	.LVL20:
 218              	.L17:
  67:main.c        ****         // the ascii to hid table starts at ascii 32
 219              		.loc 1 67 0 is_stmt 0 discriminator 1
 220 001e 2846     		mov	r0, r5
 221 0020 FFF7FEFF 		bl	strlen
 222              	.LVL21:
 223 0024 8442     		cmp	r4, r0
 224 0026 EFD3     		bcc	.L18
 225              	.L19:
 226              	.LBE3:
  72:main.c        ****     }
  73:main.c        ****     while (!USBFS_CDCIsReady())
 227              		.loc 1 73 0 is_stmt 1 discriminator 1
 228 0028 FFF7FEFF 		bl	USBFS_CDCIsReady
 229              	.LVL22:
 230 002c 0028     		cmp	r0, #0
 231 002e FBD0     		beq	.L19
  74:main.c        ****         ;
  75:main.c        ****     USBFS_PutString(str_to_type);
 232              		.loc 1 75 0
 233 0030 2846     		mov	r0, r5
 234 0032 FFF7FEFF 		bl	USBFS_PutString
 235              	.LVL23:
 236 0036 38BD     		pop	{r3, r4, r5, pc}
 237              	.LVL24:
 238              	.L22:
 239              		.align	2
 240              	.L21:
 241 0038 00000000 		.word	.LANCHOR1
 242              		.cfi_endproc
 243              	.LFE66:
 244              		.size	KB_TypeString, .-KB_TypeString
 245              		.section	.text.main,"ax",%progbits
 246              		.align	2
 247              		.global	main
ARM GAS  C:\Users\bkettle\AppData\Local\Temp\cc41PAIz.s 			page 7


 248              		.thumb
 249              		.thumb_func
 250              		.type	main, %function
 251              	main:
 252              	.LFB67:
  76:main.c        **** }
  77:main.c        **** 
  78:main.c        **** 
  79:main.c        **** 
  80:main.c        **** int main(void)
  81:main.c        **** {
 253              		.loc 1 81 0
 254              		.cfi_startproc
 255              		@ args = 0, pretend = 0, frame = 88
 256              		@ frame_needed = 0, uses_anonymous_args = 0
 257 0000 10B5     		push	{r4, lr}
 258              		.cfi_def_cfa_offset 8
 259              		.cfi_offset 4, -8
 260              		.cfi_offset 14, -4
 261 0002 96B0     		sub	sp, sp, #88
 262              		.cfi_def_cfa_offset 96
  82:main.c        ****     CyGlobalIntEnable; /* Enable global interrupts. */
 263              		.loc 1 82 0
 264              		.syntax unified
 265              	@ 82 "main.c" 1
 266 0004 62B6     		CPSIE   i
 267              	@ 0 "" 2
  83:main.c        ****     USBFS_Start(0, USBFS_DWR_VDDD_OPERATION);   /* Start USBFS Operation/device 0 and with 5V opera
 268              		.loc 1 83 0
 269              		.thumb
 270              		.syntax unified
 271 0006 0221     		movs	r1, #2
 272 0008 0020     		movs	r0, #0
 273 000a FFF7FEFF 		bl	USBFS_Start
 274              	.LVL25:
  84:main.c        ****     LED_Write(1);
 275              		.loc 1 84 0
 276 000e 0120     		movs	r0, #1
 277 0010 FFF7FEFF 		bl	LED_Write
 278              	.LVL26:
 279              	.L24:
  85:main.c        **** 	while(!USBFS_bGetConfiguration());      		/* Wait for Device to enumerate */
 280              		.loc 1 85 0 discriminator 1
 281 0014 FFF7FEFF 		bl	USBFS_GetConfiguration
 282              	.LVL27:
 283 0018 0028     		cmp	r0, #0
 284 001a FBD0     		beq	.L24
  86:main.c        ****     LED_Write(0);
 285              		.loc 1 86 0
 286 001c 0020     		movs	r0, #0
 287 001e FFF7FEFF 		bl	LED_Write
 288              	.LVL28:
  87:main.c        ****     USBFS_CDC_Init();
 289              		.loc 1 87 0
 290 0022 FFF7FEFF 		bl	USBFS_CDC_Init
 291              	.LVL29:
  88:main.c        ****     USBFS_LoadInEP(EP_KEYBOARD_IN, (uint8 *)KB_Data, 8); 	/* Loads an inital value into EP1 and sen
ARM GAS  C:\Users\bkettle\AppData\Local\Temp\cc41PAIz.s 			page 8


 292              		.loc 1 88 0
 293 0026 0822     		movs	r2, #8
 294 0028 2649     		ldr	r1, .L30
 295 002a 0420     		movs	r0, #4
 296 002c FFF7FEFF 		bl	USBFS_LoadInEP
 297              	.LVL30:
  89:main.c        ****     
  90:main.c        ****     char cmd_buff[20] = {0};
 298              		.loc 1 90 0
 299 0030 0024     		movs	r4, #0
 300 0032 1194     		str	r4, [sp, #68]
 301 0034 1294     		str	r4, [sp, #72]
 302 0036 1394     		str	r4, [sp, #76]
 303 0038 1494     		str	r4, [sp, #80]
 304 003a 1594     		str	r4, [sp, #84]
  91:main.c        ****     
  92:main.c        ****     LED_Write(0);
 305              		.loc 1 92 0
 306 003c 2046     		mov	r0, r4
 307 003e FFF7FEFF 		bl	LED_Write
 308              	.LVL31:
  93:main.c        ****     CyDelay(100);
 309              		.loc 1 93 0
 310 0042 6420     		movs	r0, #100
 311 0044 FFF7FEFF 		bl	CyDelay
 312              	.LVL32:
  94:main.c        ****     LED_Write(1);
 313              		.loc 1 94 0
 314 0048 0120     		movs	r0, #1
 315 004a FFF7FEFF 		bl	LED_Write
 316              	.LVL33:
  95:main.c        ****     CyDelay(100);
 317              		.loc 1 95 0
 318 004e 6420     		movs	r0, #100
 319 0050 FFF7FEFF 		bl	CyDelay
 320              	.LVL34:
  96:main.c        ****     LED_Write(0);
 321              		.loc 1 96 0
 322 0054 2046     		mov	r0, r4
 323 0056 FFF7FEFF 		bl	LED_Write
 324              	.LVL35:
  97:main.c        ****     CyDelay(100);
 325              		.loc 1 97 0
 326 005a 6420     		movs	r0, #100
 327 005c FFF7FEFF 		bl	CyDelay
 328              	.LVL36:
  98:main.c        ****     LED_Write(1);
 329              		.loc 1 98 0
 330 0060 0120     		movs	r0, #1
 331 0062 FFF7FEFF 		bl	LED_Write
 332              	.LVL37:
  99:main.c        ****     CyDelay(100);
 333              		.loc 1 99 0
 334 0066 6420     		movs	r0, #100
 335 0068 FFF7FEFF 		bl	CyDelay
 336              	.LVL38:
 337              	.L26:
ARM GAS  C:\Users\bkettle\AppData\Local\Temp\cc41PAIz.s 			page 9


 100:main.c        ****         
 101:main.c        ****     for(;;)
 102:main.c        ****     {
 103:main.c        **** //        while(!USBFS_GetEPAckState(EP_KEYBOARD_IN));  			/* Wait for ACK before loading data */
 104:main.c        **** //		USBFS_LoadInEP(EP_KEYBOARD_IN, (uint8 *)KB_Data, 8); 	/* Load latest mouse data into EP1 and se
 105:main.c        **** //        
 106:main.c        **** //        //KB_Data[2] = 0x04;
 107:main.c        **** //        char to_write[] = "tomato ";
 108:main.c        **** //        KB_TypeString(to_write);
 109:main.c        **** //        //ascii_test();
 110:main.c        **** //        
 111:main.c        **** //        LED_Write(0);
 112:main.c        **** //        CyDelay(1000);
 113:main.c        **** //        LED_Write(1); 
 114:main.c        **** //        CyDelay(1000);
 115:main.c        ****         
 116:main.c        ****         /* Handle the serial input. */
 117:main.c        **** 
 118:main.c        ****         if (USBFS_DataIsReady())
 338              		.loc 1 118 0
 339 006c FFF7FEFF 		bl	USBFS_DataIsReady
 340              	.LVL39:
 341 0070 0028     		cmp	r0, #0
 342 0072 FBD0     		beq	.L26
 343 0074 17E0     		b	.L25
 344              	.L27:
 345              	.LBB5:
 119:main.c        ****         {
 120:main.c        ****             while (USBFS_DataIsReady())
 121:main.c        ****             {
 122:main.c        ****                 char inputbuffer[64];
 123:main.c        ****                 int count = USBFS_GetAll((uint8_t*) inputbuffer);
 346              		.loc 1 123 0
 347 0076 01A8     		add	r0, sp, #4
 348 0078 FFF7FEFF 		bl	USBFS_GetAll
 349              	.LVL40:
 124:main.c        ****                 inputbuffer[count] = 0;
 350              		.loc 1 124 0
 351 007c 16AB     		add	r3, sp, #88
 352 007e 1844     		add	r0, r0, r3
 353              	.LVL41:
 354 0080 0023     		movs	r3, #0
 355 0082 00F8543C 		strb	r3, [r0, #-84]
 125:main.c        ****                 USBFS_PutString(inputbuffer);    // echo recieved character
 356              		.loc 1 125 0
 357 0086 01A8     		add	r0, sp, #4
 358 0088 FFF7FEFF 		bl	USBFS_PutString
 359              	.LVL42:
 126:main.c        ****                 // add non-enter characters to rx buffer
 127:main.c        ****                 strcat(cmd_buff, inputbuffer);
 360              		.loc 1 127 0
 361 008c 01A9     		add	r1, sp, #4
 362 008e 11A8     		add	r0, sp, #68
 363 0090 FFF7FEFF 		bl	strcat
 364              	.LVL43:
 128:main.c        ****                 USB_print("\n\r");
 365              		.loc 1 128 0
ARM GAS  C:\Users\bkettle\AppData\Local\Temp\cc41PAIz.s 			page 10


 366 0094 0C48     		ldr	r0, .L30+4
 367 0096 FFF7FEFF 		bl	USB_print
 368              	.LVL44:
 129:main.c        ****                 USB_print(cmd_buff);
 369              		.loc 1 129 0
 370 009a 11A8     		add	r0, sp, #68
 371 009c FFF7FEFF 		bl	USB_print
 372              	.LVL45:
 130:main.c        ****                 USB_print("\n\r----------");
 373              		.loc 1 130 0
 374 00a0 0A48     		ldr	r0, .L30+8
 375 00a2 FFF7FEFF 		bl	USB_print
 376              	.LVL46:
 377              	.L25:
 378              	.LBE5:
 120:main.c        ****             {
 379              		.loc 1 120 0
 380 00a6 FFF7FEFF 		bl	USBFS_DataIsReady
 381              	.LVL47:
 382 00aa 0028     		cmp	r0, #0
 383 00ac E3D1     		bne	.L27
 131:main.c        ****                 
 132:main.c        ****             }
 133:main.c        ****             LED_Write(1);
 384              		.loc 1 133 0
 385 00ae 0120     		movs	r0, #1
 386 00b0 FFF7FEFF 		bl	LED_Write
 387              	.LVL48:
 134:main.c        ****             CyDelay(100);
 388              		.loc 1 134 0
 389 00b4 6420     		movs	r0, #100
 390 00b6 FFF7FEFF 		bl	CyDelay
 391              	.LVL49:
 135:main.c        ****             LED_Write(0);
 392              		.loc 1 135 0
 393 00ba 0020     		movs	r0, #0
 394 00bc FFF7FEFF 		bl	LED_Write
 395              	.LVL50:
 396 00c0 D4E7     		b	.L26
 397              	.L31:
 398 00c2 00BF     		.align	2
 399              	.L30:
 400 00c4 00000000 		.word	.LANCHOR0
 401 00c8 00000000 		.word	.LC0
 402 00cc 04000000 		.word	.LC1
 403              		.cfi_endproc
 404              	.LFE67:
 405              		.size	main, .-main
 406              		.global	ascii_to_hid
 407              		.global	KB_Data
 408              		.data
 409              		.align	2
 410              		.set	.LANCHOR1,. + 0
 411              		.type	ascii_to_hid, %object
 412              		.size	ascii_to_hid, 768
 413              	ascii_to_hid:
 414 0000 2C000000 		.word	44
ARM GAS  C:\Users\bkettle\AppData\Local\Temp\cc41PAIz.s 			page 11


 415 0004 00       		.byte	0
 416 0005 000000   		.space	3
 417 0008 1E000000 		.word	30
 418 000c 01       		.byte	1
 419 000d 000000   		.space	3
 420 0010 34000000 		.word	52
 421 0014 01       		.byte	1
 422 0015 000000   		.space	3
 423 0018 20000000 		.word	32
 424 001c 01       		.byte	1
 425 001d 000000   		.space	3
 426 0020 21000000 		.word	33
 427 0024 01       		.byte	1
 428 0025 000000   		.space	3
 429 0028 22000000 		.word	34
 430 002c 01       		.byte	1
 431 002d 000000   		.space	3
 432 0030 24000000 		.word	36
 433 0034 01       		.byte	1
 434 0035 000000   		.space	3
 435 0038 34000000 		.word	52
 436 003c 00       		.byte	0
 437 003d 000000   		.space	3
 438 0040 26000000 		.word	38
 439 0044 01       		.byte	1
 440 0045 000000   		.space	3
 441 0048 27000000 		.word	39
 442 004c 01       		.byte	1
 443 004d 000000   		.space	3
 444 0050 25000000 		.word	37
 445 0054 01       		.byte	1
 446 0055 000000   		.space	3
 447 0058 2E000000 		.word	46
 448 005c 01       		.byte	1
 449 005d 000000   		.space	3
 450 0060 36000000 		.word	54
 451 0064 00       		.byte	0
 452 0065 000000   		.space	3
 453 0068 2D000000 		.word	45
 454 006c 00       		.byte	0
 455 006d 000000   		.space	3
 456 0070 37000000 		.word	55
 457 0074 00       		.byte	0
 458 0075 000000   		.space	3
 459 0078 38000000 		.word	56
 460 007c 00       		.byte	0
 461 007d 000000   		.space	3
 462 0080 27000000 		.word	39
 463 0084 00       		.byte	0
 464 0085 000000   		.space	3
 465 0088 1E000000 		.word	30
 466 008c 00       		.byte	0
 467 008d 000000   		.space	3
 468 0090 1F000000 		.word	31
 469 0094 00       		.byte	0
 470 0095 000000   		.space	3
 471 0098 20000000 		.word	32
ARM GAS  C:\Users\bkettle\AppData\Local\Temp\cc41PAIz.s 			page 12


 472 009c 00       		.byte	0
 473 009d 000000   		.space	3
 474 00a0 21000000 		.word	33
 475 00a4 00       		.byte	0
 476 00a5 000000   		.space	3
 477 00a8 22000000 		.word	34
 478 00ac 00       		.byte	0
 479 00ad 000000   		.space	3
 480 00b0 23000000 		.word	35
 481 00b4 00       		.byte	0
 482 00b5 000000   		.space	3
 483 00b8 24000000 		.word	36
 484 00bc 00       		.byte	0
 485 00bd 000000   		.space	3
 486 00c0 25000000 		.word	37
 487 00c4 00       		.byte	0
 488 00c5 000000   		.space	3
 489 00c8 26000000 		.word	38
 490 00cc 00       		.byte	0
 491 00cd 000000   		.space	3
 492 00d0 33000000 		.word	51
 493 00d4 01       		.byte	1
 494 00d5 000000   		.space	3
 495 00d8 33000000 		.word	51
 496 00dc 00       		.byte	0
 497 00dd 000000   		.space	3
 498 00e0 36000000 		.word	54
 499 00e4 01       		.byte	1
 500 00e5 000000   		.space	3
 501 00e8 2E000000 		.word	46
 502 00ec 00       		.byte	0
 503 00ed 000000   		.space	3
 504 00f0 37000000 		.word	55
 505 00f4 01       		.byte	1
 506 00f5 000000   		.space	3
 507 00f8 38000000 		.word	56
 508 00fc 01       		.byte	1
 509 00fd 000000   		.space	3
 510 0100 1F000000 		.word	31
 511 0104 01       		.byte	1
 512 0105 000000   		.space	3
 513 0108 04000000 		.word	4
 514 010c 01       		.byte	1
 515 010d 000000   		.space	3
 516 0110 05000000 		.word	5
 517 0114 01       		.byte	1
 518 0115 000000   		.space	3
 519 0118 06000000 		.word	6
 520 011c 01       		.byte	1
 521 011d 000000   		.space	3
 522 0120 07000000 		.word	7
 523 0124 01       		.byte	1
 524 0125 000000   		.space	3
 525 0128 08000000 		.word	8
 526 012c 01       		.byte	1
 527 012d 000000   		.space	3
 528 0130 09000000 		.word	9
ARM GAS  C:\Users\bkettle\AppData\Local\Temp\cc41PAIz.s 			page 13


 529 0134 01       		.byte	1
 530 0135 000000   		.space	3
 531 0138 0A000000 		.word	10
 532 013c 01       		.byte	1
 533 013d 000000   		.space	3
 534 0140 0B000000 		.word	11
 535 0144 01       		.byte	1
 536 0145 000000   		.space	3
 537 0148 0C000000 		.word	12
 538 014c 01       		.byte	1
 539 014d 000000   		.space	3
 540 0150 0D000000 		.word	13
 541 0154 01       		.byte	1
 542 0155 000000   		.space	3
 543 0158 0E000000 		.word	14
 544 015c 01       		.byte	1
 545 015d 000000   		.space	3
 546 0160 0F000000 		.word	15
 547 0164 01       		.byte	1
 548 0165 000000   		.space	3
 549 0168 10000000 		.word	16
 550 016c 01       		.byte	1
 551 016d 000000   		.space	3
 552 0170 11000000 		.word	17
 553 0174 01       		.byte	1
 554 0175 000000   		.space	3
 555 0178 12000000 		.word	18
 556 017c 01       		.byte	1
 557 017d 000000   		.space	3
 558 0180 13000000 		.word	19
 559 0184 01       		.byte	1
 560 0185 000000   		.space	3
 561 0188 14000000 		.word	20
 562 018c 01       		.byte	1
 563 018d 000000   		.space	3
 564 0190 15000000 		.word	21
 565 0194 01       		.byte	1
 566 0195 000000   		.space	3
 567 0198 16000000 		.word	22
 568 019c 01       		.byte	1
 569 019d 000000   		.space	3
 570 01a0 17000000 		.word	23
 571 01a4 01       		.byte	1
 572 01a5 000000   		.space	3
 573 01a8 18000000 		.word	24
 574 01ac 01       		.byte	1
 575 01ad 000000   		.space	3
 576 01b0 19000000 		.word	25
 577 01b4 01       		.byte	1
 578 01b5 000000   		.space	3
 579 01b8 1A000000 		.word	26
 580 01bc 01       		.byte	1
 581 01bd 000000   		.space	3
 582 01c0 1B000000 		.word	27
 583 01c4 01       		.byte	1
 584 01c5 000000   		.space	3
 585 01c8 1C000000 		.word	28
ARM GAS  C:\Users\bkettle\AppData\Local\Temp\cc41PAIz.s 			page 14


 586 01cc 01       		.byte	1
 587 01cd 000000   		.space	3
 588 01d0 1D000000 		.word	29
 589 01d4 01       		.byte	1
 590 01d5 000000   		.space	3
 591 01d8 2F000000 		.word	47
 592 01dc 00       		.byte	0
 593 01dd 000000   		.space	3
 594 01e0 31000000 		.word	49
 595 01e4 00       		.byte	0
 596 01e5 000000   		.space	3
 597 01e8 30000000 		.word	48
 598 01ec 00       		.byte	0
 599 01ed 000000   		.space	3
 600 01f0 23000000 		.word	35
 601 01f4 01       		.byte	1
 602 01f5 000000   		.space	3
 603 01f8 2D000000 		.word	45
 604 01fc 01       		.byte	1
 605 01fd 000000   		.space	3
 606 0200 35000000 		.word	53
 607 0204 00       		.byte	0
 608 0205 000000   		.space	3
 609 0208 04000000 		.word	4
 610 020c 00       		.byte	0
 611 020d 000000   		.space	3
 612 0210 05000000 		.word	5
 613 0214 00       		.byte	0
 614 0215 000000   		.space	3
 615 0218 06000000 		.word	6
 616 021c 00       		.byte	0
 617 021d 000000   		.space	3
 618 0220 07000000 		.word	7
 619 0224 00       		.byte	0
 620 0225 000000   		.space	3
 621 0228 08000000 		.word	8
 622 022c 00       		.byte	0
 623 022d 000000   		.space	3
 624 0230 09000000 		.word	9
 625 0234 00       		.byte	0
 626 0235 000000   		.space	3
 627 0238 0A000000 		.word	10
 628 023c 00       		.byte	0
 629 023d 000000   		.space	3
 630 0240 0B000000 		.word	11
 631 0244 00       		.byte	0
 632 0245 000000   		.space	3
 633 0248 0C000000 		.word	12
 634 024c 00       		.byte	0
 635 024d 000000   		.space	3
 636 0250 0D000000 		.word	13
 637 0254 00       		.byte	0
 638 0255 000000   		.space	3
 639 0258 0E000000 		.word	14
 640 025c 00       		.byte	0
 641 025d 000000   		.space	3
 642 0260 0F000000 		.word	15
ARM GAS  C:\Users\bkettle\AppData\Local\Temp\cc41PAIz.s 			page 15


 643 0264 00       		.byte	0
 644 0265 000000   		.space	3
 645 0268 10000000 		.word	16
 646 026c 00       		.byte	0
 647 026d 000000   		.space	3
 648 0270 11000000 		.word	17
 649 0274 00       		.byte	0
 650 0275 000000   		.space	3
 651 0278 12000000 		.word	18
 652 027c 00       		.byte	0
 653 027d 000000   		.space	3
 654 0280 13000000 		.word	19
 655 0284 00       		.byte	0
 656 0285 000000   		.space	3
 657 0288 14000000 		.word	20
 658 028c 00       		.byte	0
 659 028d 000000   		.space	3
 660 0290 15000000 		.word	21
 661 0294 00       		.byte	0
 662 0295 000000   		.space	3
 663 0298 16000000 		.word	22
 664 029c 00       		.byte	0
 665 029d 000000   		.space	3
 666 02a0 17000000 		.word	23
 667 02a4 00       		.byte	0
 668 02a5 000000   		.space	3
 669 02a8 18000000 		.word	24
 670 02ac 00       		.byte	0
 671 02ad 000000   		.space	3
 672 02b0 19000000 		.word	25
 673 02b4 00       		.byte	0
 674 02b5 000000   		.space	3
 675 02b8 1A000000 		.word	26
 676 02bc 00       		.byte	0
 677 02bd 000000   		.space	3
 678 02c0 1B000000 		.word	27
 679 02c4 00       		.byte	0
 680 02c5 000000   		.space	3
 681 02c8 1C000000 		.word	28
 682 02cc 00       		.byte	0
 683 02cd 000000   		.space	3
 684 02d0 1D000000 		.word	29
 685 02d4 00       		.byte	0
 686 02d5 000000   		.space	3
 687 02d8 2F000000 		.word	47
 688 02dc 01       		.byte	1
 689 02dd 000000   		.space	3
 690 02e0 31000000 		.word	49
 691 02e4 01       		.byte	1
 692 02e5 000000   		.space	3
 693 02e8 30000000 		.word	48
 694 02ec 01       		.byte	1
 695 02ed 000000   		.space	3
 696 02f0 35000000 		.word	53
 697 02f4 01       		.byte	1
 698 02f5 000000   		.space	3
 699 02f8 2A000000 		.word	42
ARM GAS  C:\Users\bkettle\AppData\Local\Temp\cc41PAIz.s 			page 16


 700 02fc 00       		.byte	0
 701 02fd 000000   		.space	3
 702              		.section	.rodata.str1.4,"aMS",%progbits,1
 703              		.align	2
 704              	.LC0:
 705 0000 0A0D00   		.ascii	"\012\015\000"
 706 0003 00       		.space	1
 707              	.LC1:
 708 0004 0A0D2D2D 		.ascii	"\012\015----------\000"
 708      2D2D2D2D 
 708      2D2D2D2D 
 708      00
 709              		.bss
 710              		.align	2
 711              		.set	.LANCHOR0,. + 0
 712              		.type	KB_Data, %object
 713              		.size	KB_Data, 8
 714              	KB_Data:
 715 0000 00000000 		.space	8
 715      00000000 
 716              		.text
 717              	.Letext0:
 718              		.file 2 "c:\\program files (x86)\\cypress\\psoc creator\\4.3\\psoc creator\\import\\gnu\\arm\\5.4.
 719              		.file 3 "c:\\program files (x86)\\cypress\\psoc creator\\4.3\\psoc creator\\import\\gnu\\arm\\5.4.
 720              		.file 4 "Generated_Source\\PSoC5/cytypes.h"
 721              		.file 5 "Generated_Source\\PSoC5/core_cm3.h"
 722              		.file 6 "Generated_Source\\PSoC5/USBFS_cdc.h"
 723              		.file 7 "Generated_Source\\PSoC5/USBFS.h"
 724              		.file 8 "Generated_Source\\PSoC5/LED.h"
 725              		.file 9 "c:\\program files (x86)\\cypress\\psoc creator\\4.3\\psoc creator\\import\\gnu\\arm\\5.4.
 726              		.file 10 "Generated_Source\\PSoC5/CyLib.h"