ARM GAS  C:\Users\bkettle\AppData\Local\Temp\ccGmBPxk.s 			page 1


   1              		.syntax unified
   2              		.cpu cortex-m3
   3              		.fpu softvfp
   4              		.eabi_attribute 20, 1
   5              		.eabi_attribute 21, 1
   6              		.eabi_attribute 23, 3
   7              		.eabi_attribute 24, 1
   8              		.eabi_attribute 25, 1
   9              		.eabi_attribute 26, 1
  10              		.eabi_attribute 30, 1
  11              		.eabi_attribute 34, 1
  12              		.eabi_attribute 18, 4
  13              		.thumb
  14              		.syntax unified
  15              		.file	"ds3231.c"
  16              		.text
  17              	.Ltext0:
  18              		.cfi_sections	.debug_frame
  19              		.section	.text.dt_getYear,"ax",%progbits
  20              		.align	2
  21              		.global	dt_getYear
  22              		.thumb
  23              		.thumb_func
  24              		.type	dt_getYear, %function
  25              	dt_getYear:
  26              	.LFB63:
  27              		.file 1 "..\\..\\..\\..\\..\\..\\development\\hardware\\DS3231-PSoC\\ds3231.c"
   1:..\..\..\..\..\..\development\hardware\DS3231-PSoC/ds3231.c **** /* Very simple library for DS3231
   2:..\..\..\..\..\..\development\hardware\DS3231-PSoC/ds3231.c ****     on PSoC, inspired by Adafruit's
   3:..\..\..\..\..\..\development\hardware\DS3231-PSoC/ds3231.c ****     RTClib. Only crucial functionality
   4:..\..\..\..\..\..\development\hardware\DS3231-PSoC/ds3231.c ****     is ported over.
   5:..\..\..\..\..\..\development\hardware\DS3231-PSoC/ds3231.c **** */
   6:..\..\..\..\..\..\development\hardware\DS3231-PSoC/ds3231.c **** 
   7:..\..\..\..\..\..\development\hardware\DS3231-PSoC/ds3231.c **** #include <project.h>
   8:..\..\..\..\..\..\development\hardware\DS3231-PSoC/ds3231.c **** #include <stdlib.h>
   9:..\..\..\..\..\..\development\hardware\DS3231-PSoC/ds3231.c **** #include <stdbool.h>
  10:..\..\..\..\..\..\development\hardware\DS3231-PSoC/ds3231.c **** 
  11:..\..\..\..\..\..\development\hardware\DS3231-PSoC/ds3231.c **** #include <ds3231.h>
  12:..\..\..\..\..\..\development\hardware\DS3231-PSoC/ds3231.c **** 
  13:..\..\..\..\..\..\development\hardware\DS3231-PSoC/ds3231.c **** #define pgm_read_byte(addr) (*(const unsigned char *)(addr))
  14:..\..\..\..\..\..\development\hardware\DS3231-PSoC/ds3231.c **** 
  15:..\..\..\..\..\..\development\hardware\DS3231-PSoC/ds3231.c **** // this stuff should go in the header but that's not working
  16:..\..\..\..\..\..\development\hardware\DS3231-PSoC/ds3231.c **** uint8 RTC_read_buff[10];
  17:..\..\..\..\..\..\development\hardware\DS3231-PSoC/ds3231.c **** 
  18:..\..\..\..\..\..\development\hardware\DS3231-PSoC/ds3231.c **** // return the year from a DateTime struct
  19:..\..\..\..\..\..\development\hardware\DS3231-PSoC/ds3231.c **** uint16_t dt_getYear(DateTime dt) { return 2000 + dt.yOff; }
  28              		.loc 1 19 0
  29              		.cfi_startproc
  30              		@ args = 0, pretend = 0, frame = 8
  31              		@ frame_needed = 0, uses_anonymous_args = 0
  32              		@ link register save eliminated.
  33 0000 82B0     		sub	sp, sp, #8
  34              		.cfi_def_cfa_offset 8
  35 0002 02AB     		add	r3, sp, #8
  36 0004 03E90300 		stmdb	r3, {r0, r1}
  37              		.loc 1 19 0
  38 0008 9DF80000 		ldrb	r0, [sp]	@ zero_extendqisi2
ARM GAS  C:\Users\bkettle\AppData\Local\Temp\ccGmBPxk.s 			page 2


  39 000c 00F5FA60 		add	r0, r0, #2000
  40 0010 02B0     		add	sp, sp, #8
  41              		.cfi_def_cfa_offset 0
  42              		@ sp needed
  43 0012 7047     		bx	lr
  44              		.cfi_endproc
  45              	.LFE63:
  46              		.size	dt_getYear, .-dt_getYear
  47              		.section	.text.dt_getMonth,"ax",%progbits
  48              		.align	2
  49              		.global	dt_getMonth
  50              		.thumb
  51              		.thumb_func
  52              		.type	dt_getMonth, %function
  53              	dt_getMonth:
  54              	.LFB64:
  20:..\..\..\..\..\..\development\hardware\DS3231-PSoC/ds3231.c **** // return the month from a DateTime struct
  21:..\..\..\..\..\..\development\hardware\DS3231-PSoC/ds3231.c **** uint8_t dt_getMonth(DateTime dt) { return dt.m; }
  55              		.loc 1 21 0
  56              		.cfi_startproc
  57              		@ args = 0, pretend = 0, frame = 8
  58              		@ frame_needed = 0, uses_anonymous_args = 0
  59              		@ link register save eliminated.
  60 0000 82B0     		sub	sp, sp, #8
  61              		.cfi_def_cfa_offset 8
  62 0002 02AB     		add	r3, sp, #8
  63 0004 03E90300 		stmdb	r3, {r0, r1}
  64              		.loc 1 21 0
  65 0008 9DF80100 		ldrb	r0, [sp, #1]	@ zero_extendqisi2
  66 000c 02B0     		add	sp, sp, #8
  67              		.cfi_def_cfa_offset 0
  68              		@ sp needed
  69 000e 7047     		bx	lr
  70              		.cfi_endproc
  71              	.LFE64:
  72              		.size	dt_getMonth, .-dt_getMonth
  73              		.section	.text.dt_getDay,"ax",%progbits
  74              		.align	2
  75              		.global	dt_getDay
  76              		.thumb
  77              		.thumb_func
  78              		.type	dt_getDay, %function
  79              	dt_getDay:
  80              	.LFB65:
  22:..\..\..\..\..\..\development\hardware\DS3231-PSoC/ds3231.c **** // return the day from a DateTime struct
  23:..\..\..\..\..\..\development\hardware\DS3231-PSoC/ds3231.c **** uint8_t dt_getDay(DateTime dt) { return dt.d; }
  81              		.loc 1 23 0
  82              		.cfi_startproc
  83              		@ args = 0, pretend = 0, frame = 8
  84              		@ frame_needed = 0, uses_anonymous_args = 0
  85              		@ link register save eliminated.
  86 0000 82B0     		sub	sp, sp, #8
  87              		.cfi_def_cfa_offset 8
  88 0002 02AB     		add	r3, sp, #8
  89 0004 03E90300 		stmdb	r3, {r0, r1}
  90              		.loc 1 23 0
  91 0008 9DF80200 		ldrb	r0, [sp, #2]	@ zero_extendqisi2
ARM GAS  C:\Users\bkettle\AppData\Local\Temp\ccGmBPxk.s 			page 3


  92 000c 02B0     		add	sp, sp, #8
  93              		.cfi_def_cfa_offset 0
  94              		@ sp needed
  95 000e 7047     		bx	lr
  96              		.cfi_endproc
  97              	.LFE65:
  98              		.size	dt_getDay, .-dt_getDay
  99              		.section	.text.dt_getHour,"ax",%progbits
 100              		.align	2
 101              		.global	dt_getHour
 102              		.thumb
 103              		.thumb_func
 104              		.type	dt_getHour, %function
 105              	dt_getHour:
 106              	.LFB66:
  24:..\..\..\..\..\..\development\hardware\DS3231-PSoC/ds3231.c **** // return the hour from a DateTime struct
  25:..\..\..\..\..\..\development\hardware\DS3231-PSoC/ds3231.c **** uint8_t dt_getHour(DateTime dt) { return dt.hh; }
 107              		.loc 1 25 0
 108              		.cfi_startproc
 109              		@ args = 0, pretend = 0, frame = 8
 110              		@ frame_needed = 0, uses_anonymous_args = 0
 111              		@ link register save eliminated.
 112 0000 82B0     		sub	sp, sp, #8
 113              		.cfi_def_cfa_offset 8
 114 0002 02AB     		add	r3, sp, #8
 115 0004 03E90300 		stmdb	r3, {r0, r1}
 116              		.loc 1 25 0
 117 0008 9DF80300 		ldrb	r0, [sp, #3]	@ zero_extendqisi2
 118 000c 02B0     		add	sp, sp, #8
 119              		.cfi_def_cfa_offset 0
 120              		@ sp needed
 121 000e 7047     		bx	lr
 122              		.cfi_endproc
 123              	.LFE66:
 124              		.size	dt_getHour, .-dt_getHour
 125              		.section	.text.dt_getMinute,"ax",%progbits
 126              		.align	2
 127              		.global	dt_getMinute
 128              		.thumb
 129              		.thumb_func
 130              		.type	dt_getMinute, %function
 131              	dt_getMinute:
 132              	.LFB67:
  26:..\..\..\..\..\..\development\hardware\DS3231-PSoC/ds3231.c **** // return the minute from a DateTime struct
  27:..\..\..\..\..\..\development\hardware\DS3231-PSoC/ds3231.c **** uint8_t dt_getMinute(DateTime dt) { return dt.mm; }
 133              		.loc 1 27 0
 134              		.cfi_startproc
 135              		@ args = 0, pretend = 0, frame = 8
 136              		@ frame_needed = 0, uses_anonymous_args = 0
 137              		@ link register save eliminated.
 138 0000 82B0     		sub	sp, sp, #8
 139              		.cfi_def_cfa_offset 8
 140 0002 02AB     		add	r3, sp, #8
 141 0004 03E90300 		stmdb	r3, {r0, r1}
 142              		.loc 1 27 0
 143 0008 9DF80400 		ldrb	r0, [sp, #4]	@ zero_extendqisi2
 144 000c 02B0     		add	sp, sp, #8
ARM GAS  C:\Users\bkettle\AppData\Local\Temp\ccGmBPxk.s 			page 4


 145              		.cfi_def_cfa_offset 0
 146              		@ sp needed
 147 000e 7047     		bx	lr
 148              		.cfi_endproc
 149              	.LFE67:
 150              		.size	dt_getMinute, .-dt_getMinute
 151              		.section	.text.dt_getSecond,"ax",%progbits
 152              		.align	2
 153              		.global	dt_getSecond
 154              		.thumb
 155              		.thumb_func
 156              		.type	dt_getSecond, %function
 157              	dt_getSecond:
 158              	.LFB68:
  28:..\..\..\..\..\..\development\hardware\DS3231-PSoC/ds3231.c **** // return the second from a DateTime struct
  29:..\..\..\..\..\..\development\hardware\DS3231-PSoC/ds3231.c **** uint8_t dt_getSecond(DateTime dt) { return dt.ss; }
 159              		.loc 1 29 0
 160              		.cfi_startproc
 161              		@ args = 0, pretend = 0, frame = 8
 162              		@ frame_needed = 0, uses_anonymous_args = 0
 163              		@ link register save eliminated.
 164 0000 82B0     		sub	sp, sp, #8
 165              		.cfi_def_cfa_offset 8
 166 0002 02AB     		add	r3, sp, #8
 167 0004 03E90300 		stmdb	r3, {r0, r1}
 168              		.loc 1 29 0
 169 0008 9DF80500 		ldrb	r0, [sp, #5]	@ zero_extendqisi2
 170 000c 02B0     		add	sp, sp, #8
 171              		.cfi_def_cfa_offset 0
 172              		@ sp needed
 173 000e 7047     		bx	lr
 174              		.cfi_endproc
 175              	.LFE68:
 176              		.size	dt_getSecond, .-dt_getSecond
 177              		.section	.text.dt_isPM,"ax",%progbits
 178              		.align	2
 179              		.global	dt_isPM
 180              		.thumb
 181              		.thumb_func
 182              		.type	dt_isPM, %function
 183              	dt_isPM:
 184              	.LFB69:
  30:..\..\..\..\..\..\development\hardware\DS3231-PSoC/ds3231.c **** // return whether the time is PM from a DateTime struct
  31:..\..\..\..\..\..\development\hardware\DS3231-PSoC/ds3231.c **** uint8_t dt_isPM(DateTime dt) { return dt.hh >= 12; }
 185              		.loc 1 31 0
 186              		.cfi_startproc
 187              		@ args = 0, pretend = 0, frame = 8
 188              		@ frame_needed = 0, uses_anonymous_args = 0
 189              		@ link register save eliminated.
 190 0000 82B0     		sub	sp, sp, #8
 191              		.cfi_def_cfa_offset 8
 192 0002 02AB     		add	r3, sp, #8
 193 0004 03E90300 		stmdb	r3, {r0, r1}
 194              		.loc 1 31 0
 195 0008 9DF80300 		ldrb	r0, [sp, #3]	@ zero_extendqisi2
 196 000c 0B28     		cmp	r0, #11
 197 000e 94BF     		ite	ls
ARM GAS  C:\Users\bkettle\AppData\Local\Temp\ccGmBPxk.s 			page 5


 198 0010 0020     		movls	r0, #0
 199 0012 0120     		movhi	r0, #1
 200 0014 02B0     		add	sp, sp, #8
 201              		.cfi_def_cfa_offset 0
 202              		@ sp needed
 203 0016 7047     		bx	lr
 204              		.cfi_endproc
 205              	.LFE69:
 206              		.size	dt_isPM, .-dt_isPM
 207              		.section	.text.read_i2c_register,"ax",%progbits
 208              		.align	2
 209              		.global	read_i2c_register
 210              		.thumb
 211              		.thumb_func
 212              		.type	read_i2c_register, %function
 213              	read_i2c_register:
 214              	.LFB70:
  32:..\..\..\..\..\..\development\hardware\DS3231-PSoC/ds3231.c **** 
  33:..\..\..\..\..\..\development\hardware\DS3231-PSoC/ds3231.c **** /**************************************************************************/
  34:..\..\..\..\..\..\development\hardware\DS3231-PSoC/ds3231.c **** /*!
  35:..\..\..\..\..\..\development\hardware\DS3231-PSoC/ds3231.c ****     @brief  Read a byte from an I2C register
  36:..\..\..\..\..\..\development\hardware\DS3231-PSoC/ds3231.c ****     @param addr I2C address
  37:..\..\..\..\..\..\development\hardware\DS3231-PSoC/ds3231.c ****     @param reg Register address
  38:..\..\..\..\..\..\development\hardware\DS3231-PSoC/ds3231.c ****     @return Register value
  39:..\..\..\..\..\..\development\hardware\DS3231-PSoC/ds3231.c **** */
  40:..\..\..\..\..\..\development\hardware\DS3231-PSoC/ds3231.c **** /**************************************************************************/
  41:..\..\..\..\..\..\development\hardware\DS3231-PSoC/ds3231.c **** uint8_t read_i2c_register(uint8_t addr, uint8_t reg) {
 215              		.loc 1 41 0
 216              		.cfi_startproc
 217              		@ args = 0, pretend = 0, frame = 0
 218              		@ frame_needed = 0, uses_anonymous_args = 0
 219              	.LVL0:
 220 0000 38B5     		push	{r3, r4, r5, lr}
 221              		.cfi_def_cfa_offset 16
 222              		.cfi_offset 3, -16
 223              		.cfi_offset 4, -12
 224              		.cfi_offset 5, -8
 225              		.cfi_offset 14, -4
 226 0002 0546     		mov	r5, r0
 227 0004 0C46     		mov	r4, r1
  42:..\..\..\..\..\..\development\hardware\DS3231-PSoC/ds3231.c ****     I2CRTC_MasterSendStart(addr,0); // send write command to addr
 228              		.loc 1 42 0
 229 0006 0021     		movs	r1, #0
 230              	.LVL1:
 231 0008 FFF7FEFF 		bl	I2CRTC_MasterSendStart
 232              	.LVL2:
  43:..\..\..\..\..\..\development\hardware\DS3231-PSoC/ds3231.c ****     I2CRTC_MasterWriteByte(reg);
 233              		.loc 1 43 0
 234 000c 2046     		mov	r0, r4
 235 000e FFF7FEFF 		bl	I2CRTC_MasterWriteByte
 236              	.LVL3:
  44:..\..\..\..\..\..\development\hardware\DS3231-PSoC/ds3231.c ****     I2CRTC_MasterSendStop();
 237              		.loc 1 44 0
 238 0012 FFF7FEFF 		bl	I2CRTC_MasterSendStop
 239              	.LVL4:
  45:..\..\..\..\..\..\development\hardware\DS3231-PSoC/ds3231.c **** 
  46:..\..\..\..\..\..\development\hardware\DS3231-PSoC/ds3231.c ****     I2CRTC_MasterReadBuf(addr, RTC_read_buff, 1, I2CRTC_MODE_COMPLETE_XFER);
ARM GAS  C:\Users\bkettle\AppData\Local\Temp\ccGmBPxk.s 			page 6


 240              		.loc 1 46 0
 241 0016 044C     		ldr	r4, .L17
 242 0018 0023     		movs	r3, #0
 243 001a 0122     		movs	r2, #1
 244 001c 2146     		mov	r1, r4
 245 001e 2846     		mov	r0, r5
 246 0020 FFF7FEFF 		bl	I2CRTC_MasterReadBuf
 247              	.LVL5:
  47:..\..\..\..\..\..\development\hardware\DS3231-PSoC/ds3231.c ****     return RTC_read_buff[0];
  48:..\..\..\..\..\..\development\hardware\DS3231-PSoC/ds3231.c **** }
 248              		.loc 1 48 0
 249 0024 2078     		ldrb	r0, [r4]	@ zero_extendqisi2
 250 0026 38BD     		pop	{r3, r4, r5, pc}
 251              	.L18:
 252              		.align	2
 253              	.L17:
 254 0028 00000000 		.word	RTC_read_buff
 255              		.cfi_endproc
 256              	.LFE70:
 257              		.size	read_i2c_register, .-read_i2c_register
 258              		.section	.text.write_i2c_register,"ax",%progbits
 259              		.align	2
 260              		.global	write_i2c_register
 261              		.thumb
 262              		.thumb_func
 263              		.type	write_i2c_register, %function
 264              	write_i2c_register:
 265              	.LFB71:
  49:..\..\..\..\..\..\development\hardware\DS3231-PSoC/ds3231.c **** 
  50:..\..\..\..\..\..\development\hardware\DS3231-PSoC/ds3231.c **** /**************************************************************************/
  51:..\..\..\..\..\..\development\hardware\DS3231-PSoC/ds3231.c **** /*!
  52:..\..\..\..\..\..\development\hardware\DS3231-PSoC/ds3231.c ****     @brief  Write a byte to an I2C register
  53:..\..\..\..\..\..\development\hardware\DS3231-PSoC/ds3231.c ****     @param addr I2C address
  54:..\..\..\..\..\..\development\hardware\DS3231-PSoC/ds3231.c ****     @param reg Register address
  55:..\..\..\..\..\..\development\hardware\DS3231-PSoC/ds3231.c ****     @param val Value to write
  56:..\..\..\..\..\..\development\hardware\DS3231-PSoC/ds3231.c **** */
  57:..\..\..\..\..\..\development\hardware\DS3231-PSoC/ds3231.c **** /**************************************************************************/
  58:..\..\..\..\..\..\development\hardware\DS3231-PSoC/ds3231.c **** void write_i2c_register(uint8_t addr, uint8_t reg, uint8_t val) {
 266              		.loc 1 58 0
 267              		.cfi_startproc
 268              		@ args = 0, pretend = 0, frame = 0
 269              		@ frame_needed = 0, uses_anonymous_args = 0
 270              	.LVL6:
 271 0000 38B5     		push	{r3, r4, r5, lr}
 272              		.cfi_def_cfa_offset 16
 273              		.cfi_offset 3, -16
 274              		.cfi_offset 4, -12
 275              		.cfi_offset 5, -8
 276              		.cfi_offset 14, -4
 277 0002 0D46     		mov	r5, r1
 278 0004 1446     		mov	r4, r2
  59:..\..\..\..\..\..\development\hardware\DS3231-PSoC/ds3231.c ****   I2CRTC_MasterSendStart(addr,0); // send write command to addr
 279              		.loc 1 59 0
 280 0006 0021     		movs	r1, #0
 281              	.LVL7:
 282 0008 FFF7FEFF 		bl	I2CRTC_MasterSendStart
 283              	.LVL8:
ARM GAS  C:\Users\bkettle\AppData\Local\Temp\ccGmBPxk.s 			page 7


  60:..\..\..\..\..\..\development\hardware\DS3231-PSoC/ds3231.c ****   I2CRTC_MasterWriteByte(reg);
 284              		.loc 1 60 0
 285 000c 2846     		mov	r0, r5
 286 000e FFF7FEFF 		bl	I2CRTC_MasterWriteByte
 287              	.LVL9:
  61:..\..\..\..\..\..\development\hardware\DS3231-PSoC/ds3231.c ****   I2CRTC_MasterWriteByte(val);
 288              		.loc 1 61 0
 289 0012 2046     		mov	r0, r4
 290 0014 FFF7FEFF 		bl	I2CRTC_MasterWriteByte
 291              	.LVL10:
  62:..\..\..\..\..\..\development\hardware\DS3231-PSoC/ds3231.c ****   I2CRTC_MasterSendStop();
 292              		.loc 1 62 0
 293 0018 FFF7FEFF 		bl	I2CRTC_MasterSendStop
 294              	.LVL11:
 295 001c 38BD     		pop	{r3, r4, r5, pc}
 296              		.cfi_endproc
 297              	.LFE71:
 298              		.size	write_i2c_register, .-write_i2c_register
 299 001e 00BF     		.section	.text.date2days,"ax",%progbits
 300              		.align	2
 301              		.global	date2days
 302              		.thumb
 303              		.thumb_func
 304              		.type	date2days, %function
 305              	date2days:
 306              	.LFB72:
  63:..\..\..\..\..\..\development\hardware\DS3231-PSoC/ds3231.c **** }
  64:..\..\..\..\..\..\development\hardware\DS3231-PSoC/ds3231.c **** 
  65:..\..\..\..\..\..\development\hardware\DS3231-PSoC/ds3231.c **** 
  66:..\..\..\..\..\..\development\hardware\DS3231-PSoC/ds3231.c **** 
  67:..\..\..\..\..\..\development\hardware\DS3231-PSoC/ds3231.c **** /**************************************************************************/
  68:..\..\..\..\..\..\development\hardware\DS3231-PSoC/ds3231.c **** // utility code, some of this could be exposed in the DateTime API if needed
  69:..\..\..\..\..\..\development\hardware\DS3231-PSoC/ds3231.c **** /**************************************************************************/
  70:..\..\..\..\..\..\development\hardware\DS3231-PSoC/ds3231.c **** 
  71:..\..\..\..\..\..\development\hardware\DS3231-PSoC/ds3231.c **** /**
  72:..\..\..\..\..\..\development\hardware\DS3231-PSoC/ds3231.c ****   Number of days in each month, from January to November. December is not
  73:..\..\..\..\..\..\development\hardware\DS3231-PSoC/ds3231.c ****   needed. Omitting it avoids an incompatibility with Paul Stoffregen's Time
  74:..\..\..\..\..\..\development\hardware\DS3231-PSoC/ds3231.c ****   library. C.f. https://github.com/adafruit/RTClib/issues/114
  75:..\..\..\..\..\..\development\hardware\DS3231-PSoC/ds3231.c **** */
  76:..\..\..\..\..\..\development\hardware\DS3231-PSoC/ds3231.c **** const uint8_t daysInMonth[] = {31, 28, 31, 30, 31, 30, 31, 31, 30, 31, 30};
  77:..\..\..\..\..\..\development\hardware\DS3231-PSoC/ds3231.c **** 
  78:..\..\..\..\..\..\development\hardware\DS3231-PSoC/ds3231.c **** /**************************************************************************/
  79:..\..\..\..\..\..\development\hardware\DS3231-PSoC/ds3231.c **** /*!
  80:..\..\..\..\..\..\development\hardware\DS3231-PSoC/ds3231.c ****     @brief  Given a date, return number of days since 2000/01/01,
  81:..\..\..\..\..\..\development\hardware\DS3231-PSoC/ds3231.c ****             valid for 2000--2099
  82:..\..\..\..\..\..\development\hardware\DS3231-PSoC/ds3231.c ****     @param y Year
  83:..\..\..\..\..\..\development\hardware\DS3231-PSoC/ds3231.c ****     @param m Month
  84:..\..\..\..\..\..\development\hardware\DS3231-PSoC/ds3231.c ****     @param d Day
  85:..\..\..\..\..\..\development\hardware\DS3231-PSoC/ds3231.c ****     @return Number of days
  86:..\..\..\..\..\..\development\hardware\DS3231-PSoC/ds3231.c **** */
  87:..\..\..\..\..\..\development\hardware\DS3231-PSoC/ds3231.c **** /**************************************************************************/
  88:..\..\..\..\..\..\development\hardware\DS3231-PSoC/ds3231.c **** uint16_t date2days(uint16_t y, uint8_t m, uint8_t d) {
 307              		.loc 1 88 0
 308              		.cfi_startproc
 309              		@ args = 0, pretend = 0, frame = 0
 310              		@ frame_needed = 0, uses_anonymous_args = 0
 311              		@ link register save eliminated.
ARM GAS  C:\Users\bkettle\AppData\Local\Temp\ccGmBPxk.s 			page 8


 312              	.LVL12:
 313 0000 30B4     		push	{r4, r5}
 314              		.cfi_def_cfa_offset 8
 315              		.cfi_offset 4, -8
 316              		.cfi_offset 5, -4
  89:..\..\..\..\..\..\development\hardware\DS3231-PSoC/ds3231.c ****   if (y >= 2000)
 317              		.loc 1 89 0
 318 0002 B0F5FA6F 		cmp	r0, #2000
 319 0006 02D3     		bcc	.L22
  90:..\..\..\..\..\..\development\hardware\DS3231-PSoC/ds3231.c ****     y -= 2000;
 320              		.loc 1 90 0
 321 0008 A0F5FA60 		sub	r0, r0, #2000
 322              	.LVL13:
 323 000c 80B2     		uxth	r0, r0
 324              	.LVL14:
 325              	.L22:
  91:..\..\..\..\..\..\development\hardware\DS3231-PSoC/ds3231.c ****   uint16_t days = d;
 326              		.loc 1 91 0
 327 000e 92B2     		uxth	r2, r2
 328              	.LVL15:
 329              	.LBB2:
  92:..\..\..\..\..\..\development\hardware\DS3231-PSoC/ds3231.c ****   for (uint8_t i = 1; i < m; ++i)
 330              		.loc 1 92 0
 331 0010 0123     		movs	r3, #1
 332 0012 06E0     		b	.L23
 333              	.LVL16:
 334              	.L24:
  93:..\..\..\..\..\..\development\hardware\DS3231-PSoC/ds3231.c ****     days += pgm_read_byte(daysInMonth + i - 1);
 335              		.loc 1 93 0 discriminator 3
 336 0014 5C1E     		subs	r4, r3, #1
 337 0016 0E4D     		ldr	r5, .L28
 338 0018 2C5D     		ldrb	r4, [r5, r4]	@ zero_extendqisi2
 339 001a 2244     		add	r2, r2, r4
 340              	.LVL17:
 341 001c 92B2     		uxth	r2, r2
 342              	.LVL18:
  92:..\..\..\..\..\..\development\hardware\DS3231-PSoC/ds3231.c ****   for (uint8_t i = 1; i < m; ++i)
 343              		.loc 1 92 0 discriminator 3
 344 001e 0133     		adds	r3, r3, #1
 345              	.LVL19:
 346 0020 DBB2     		uxtb	r3, r3
 347              	.LVL20:
 348              	.L23:
  92:..\..\..\..\..\..\development\hardware\DS3231-PSoC/ds3231.c ****   for (uint8_t i = 1; i < m; ++i)
 349              		.loc 1 92 0 is_stmt 0 discriminator 1
 350 0022 8B42     		cmp	r3, r1
 351 0024 F6D3     		bcc	.L24
 352              	.LBE2:
  94:..\..\..\..\..\..\development\hardware\DS3231-PSoC/ds3231.c ****   if (m > 2 && y % 4 == 0)
 353              		.loc 1 94 0 is_stmt 1
 354 0026 0229     		cmp	r1, #2
 355 0028 04D9     		bls	.L25
 356              		.loc 1 94 0 is_stmt 0 discriminator 1
 357 002a 10F0030F 		tst	r0, #3
 358 002e 01D1     		bne	.L25
  95:..\..\..\..\..\..\development\hardware\DS3231-PSoC/ds3231.c ****     ++days;
 359              		.loc 1 95 0 is_stmt 1
ARM GAS  C:\Users\bkettle\AppData\Local\Temp\ccGmBPxk.s 			page 9


 360 0030 0132     		adds	r2, r2, #1
 361              	.LVL21:
 362 0032 92B2     		uxth	r2, r2
 363              	.LVL22:
 364              	.L25:
  96:..\..\..\..\..\..\development\hardware\DS3231-PSoC/ds3231.c ****   return days + 365 * y + (y + 3) / 4 - 1;
 365              		.loc 1 96 0
 366 0034 C31C     		adds	r3, r0, #3
 367              	.LVL23:
 368 0036 00EBC001 		add	r1, r0, r0, lsl #3
 369              	.LVL24:
 370 003a 00EBC100 		add	r0, r0, r1, lsl #3
 371              	.LVL25:
 372 003e 00EB8000 		add	r0, r0, r0, lsl #2
 373 0042 0244     		add	r2, r2, r0
 374              	.LVL26:
 375 0044 02EBA300 		add	r0, r2, r3, asr #2
 376 0048 0138     		subs	r0, r0, #1
  97:..\..\..\..\..\..\development\hardware\DS3231-PSoC/ds3231.c **** }
 377              		.loc 1 97 0
 378 004a 80B2     		uxth	r0, r0
 379 004c 30BC     		pop	{r4, r5}
 380              		.cfi_restore 5
 381              		.cfi_restore 4
 382              		.cfi_def_cfa_offset 0
 383 004e 7047     		bx	lr
 384              	.L29:
 385              		.align	2
 386              	.L28:
 387 0050 00000000 		.word	.LANCHOR0
 388              		.cfi_endproc
 389              	.LFE72:
 390              		.size	date2days, .-date2days
 391              		.section	.text.time2ulong,"ax",%progbits
 392              		.align	2
 393              		.global	time2ulong
 394              		.thumb
 395              		.thumb_func
 396              		.type	time2ulong, %function
 397              	time2ulong:
 398              	.LFB73:
  98:..\..\..\..\..\..\development\hardware\DS3231-PSoC/ds3231.c **** 
  99:..\..\..\..\..\..\development\hardware\DS3231-PSoC/ds3231.c **** /**************************************************************************/
 100:..\..\..\..\..\..\development\hardware\DS3231-PSoC/ds3231.c **** /*!
 101:..\..\..\..\..\..\development\hardware\DS3231-PSoC/ds3231.c ****     @brief  Given a number of days, hours, minutes, and seconds, return the
 102:..\..\..\..\..\..\development\hardware\DS3231-PSoC/ds3231.c ****    total seconds
 103:..\..\..\..\..\..\development\hardware\DS3231-PSoC/ds3231.c ****     @param days Days
 104:..\..\..\..\..\..\development\hardware\DS3231-PSoC/ds3231.c ****     @param h Hours
 105:..\..\..\..\..\..\development\hardware\DS3231-PSoC/ds3231.c ****     @param m Minutes
 106:..\..\..\..\..\..\development\hardware\DS3231-PSoC/ds3231.c ****     @param s Seconds
 107:..\..\..\..\..\..\development\hardware\DS3231-PSoC/ds3231.c ****     @return Number of seconds total
 108:..\..\..\..\..\..\development\hardware\DS3231-PSoC/ds3231.c **** */
 109:..\..\..\..\..\..\development\hardware\DS3231-PSoC/ds3231.c **** /**************************************************************************/
 110:..\..\..\..\..\..\development\hardware\DS3231-PSoC/ds3231.c **** uint32_t time2ulong(uint16_t days, uint8_t h, uint8_t m, uint8_t s) {
 399              		.loc 1 110 0
 400              		.cfi_startproc
 401              		@ args = 0, pretend = 0, frame = 0
ARM GAS  C:\Users\bkettle\AppData\Local\Temp\ccGmBPxk.s 			page 10


 402              		@ frame_needed = 0, uses_anonymous_args = 0
 403              		@ link register save eliminated.
 404              	.LVL27:
 405 0000 10B4     		push	{r4}
 406              		.cfi_def_cfa_offset 4
 407              		.cfi_offset 4, -4
 111:..\..\..\..\..\..\development\hardware\DS3231-PSoC/ds3231.c ****   return ((days * 24UL + h) * 60 + m) * 60 + s;
 408              		.loc 1 111 0
 409 0002 00EB4000 		add	r0, r0, r0, lsl #1
 410              	.LVL28:
 411 0006 C400     		lsls	r4, r0, #3
 412 0008 2144     		add	r1, r1, r4
 413              	.LVL29:
 414 000a C1EB0111 		rsb	r1, r1, r1, lsl #4
 415 000e 8800     		lsls	r0, r1, #2
 416 0010 0244     		add	r2, r2, r0
 417              	.LVL30:
 418 0012 C2EB0212 		rsb	r2, r2, r2, lsl #4
 419 0016 9000     		lsls	r0, r2, #2
 112:..\..\..\..\..\..\development\hardware\DS3231-PSoC/ds3231.c **** }
 420              		.loc 1 112 0
 421 0018 1844     		add	r0, r0, r3
 422 001a 10BC     		pop	{r4}
 423              		.cfi_restore 4
 424              		.cfi_def_cfa_offset 0
 425 001c 7047     		bx	lr
 426              		.cfi_endproc
 427              	.LFE73:
 428              		.size	time2ulong, .-time2ulong
 429 001e 00BF     		.section	.text.dt_fromUnix,"ax",%progbits
 430              		.align	2
 431              		.global	dt_fromUnix
 432              		.thumb
 433              		.thumb_func
 434              		.type	dt_fromUnix, %function
 435              	dt_fromUnix:
 436              	.LFB74:
 113:..\..\..\..\..\..\development\hardware\DS3231-PSoC/ds3231.c **** 
 114:..\..\..\..\..\..\development\hardware\DS3231-PSoC/ds3231.c **** // these were adapted from DateTime classes to build DateTime structs
 115:..\..\..\..\..\..\development\hardware\DS3231-PSoC/ds3231.c **** /**************************************************************************/
 116:..\..\..\..\..\..\development\hardware\DS3231-PSoC/ds3231.c **** /*!
 117:..\..\..\..\..\..\development\hardware\DS3231-PSoC/ds3231.c ****     @brief  Constructor from
 118:..\..\..\..\..\..\development\hardware\DS3231-PSoC/ds3231.c ****         [Unix time](https://en.wikipedia.org/wiki/Unix_time).
 119:..\..\..\..\..\..\development\hardware\DS3231-PSoC/ds3231.c ****     This builds a DateTime from an integer specifying the number of seconds
 120:..\..\..\..\..\..\development\hardware\DS3231-PSoC/ds3231.c ****     elapsed since the epoch: 1970-01-01 00:00:00. This number is analogous
 121:..\..\..\..\..\..\development\hardware\DS3231-PSoC/ds3231.c ****     to Unix time, with two small differences:
 122:..\..\..\..\..\..\development\hardware\DS3231-PSoC/ds3231.c ****      - The Unix epoch is specified to be at 00:00:00
 123:..\..\..\..\..\..\development\hardware\DS3231-PSoC/ds3231.c ****        [UTC](https://en.wikipedia.org/wiki/Coordinated_Universal_Time),
 124:..\..\..\..\..\..\development\hardware\DS3231-PSoC/ds3231.c ****        whereas this class has no notion of time zones. The epoch used in
 125:..\..\..\..\..\..\development\hardware\DS3231-PSoC/ds3231.c ****        this class is then at 00:00:00 on whatever time zone the user chooses
 126:..\..\..\..\..\..\development\hardware\DS3231-PSoC/ds3231.c ****        to use, ignoring changes in DST.
 127:..\..\..\..\..\..\development\hardware\DS3231-PSoC/ds3231.c ****      - Unix time is conventionally represented with signed numbers, whereas
 128:..\..\..\..\..\..\development\hardware\DS3231-PSoC/ds3231.c ****        this constructor takes an unsigned argument. Because of this, it does
 129:..\..\..\..\..\..\development\hardware\DS3231-PSoC/ds3231.c ****        _not_ suffer from the
 130:..\..\..\..\..\..\development\hardware\DS3231-PSoC/ds3231.c ****        [year 2038 problem](https://en.wikipedia.org/wiki/Year_2038_problem).
 131:..\..\..\..\..\..\development\hardware\DS3231-PSoC/ds3231.c ****     If called without argument, it returns the earliest time representable
 132:..\..\..\..\..\..\development\hardware\DS3231-PSoC/ds3231.c ****     by this class: 2000-01-01 00:00:00.
ARM GAS  C:\Users\bkettle\AppData\Local\Temp\ccGmBPxk.s 			page 11


 133:..\..\..\..\..\..\development\hardware\DS3231-PSoC/ds3231.c ****     @see The `unixtime()` method is the converse of this constructor.
 134:..\..\..\..\..\..\development\hardware\DS3231-PSoC/ds3231.c ****     @param t Time elapsed in seconds since 1970-01-01 00:00:00.
 135:..\..\..\..\..\..\development\hardware\DS3231-PSoC/ds3231.c **** */
 136:..\..\..\..\..\..\development\hardware\DS3231-PSoC/ds3231.c **** /**************************************************************************/
 137:..\..\..\..\..\..\development\hardware\DS3231-PSoC/ds3231.c **** DateTime dt_fromUnix(uint32_t t) {
 437              		.loc 1 137 0
 438              		.cfi_startproc
 439              		@ args = 0, pretend = 0, frame = 0
 440              		@ frame_needed = 0, uses_anonymous_args = 0
 441              		@ link register save eliminated.
 442              	.LVL31:
 443 0000 70B4     		push	{r4, r5, r6}
 444              		.cfi_def_cfa_offset 12
 445              		.cfi_offset 4, -12
 446              		.cfi_offset 5, -8
 447              		.cfi_offset 6, -4
 138:..\..\..\..\..\..\development\hardware\DS3231-PSoC/ds3231.c ****   t -= SECONDS_FROM_1970_TO_2000; // bring to 2000 timestamp from 1970
 448              		.loc 1 138 0
 449 0002 294B     		ldr	r3, .L40
 450 0004 0B44     		add	r3, r3, r1
 451              	.LVL32:
 139:..\..\..\..\..\..\development\hardware\DS3231-PSoC/ds3231.c **** 
 140:..\..\..\..\..\..\development\hardware\DS3231-PSoC/ds3231.c ****   DateTime dt = {};
 452              		.loc 1 140 0
 453 0006 0022     		movs	r2, #0
 454 0008 0260     		str	r2, [r0]	@ unaligned
 141:..\..\..\..\..\..\development\hardware\DS3231-PSoC/ds3231.c ****   dt.ss = t % 60;
 455              		.loc 1 141 0
 456 000a 2849     		ldr	r1, .L40+4
 457 000c A1FB0325 		umull	r2, r5, r1, r3
 458 0010 6D09     		lsrs	r5, r5, #5
 459 0012 2C46     		mov	r4, r5
 460 0014 C5EB0515 		rsb	r5, r5, r5, lsl #4
 461 0018 AA00     		lsls	r2, r5, #2
 462 001a 9D1A     		subs	r5, r3, r2
 463 001c 4571     		strb	r5, [r0, #5]
 464              	.LVL33:
 142:..\..\..\..\..\..\development\hardware\DS3231-PSoC/ds3231.c ****   t /= 60;
 143:..\..\..\..\..\..\development\hardware\DS3231-PSoC/ds3231.c ****   dt.mm = t % 60;
 465              		.loc 1 143 0
 466 001e A1FB0421 		umull	r2, r1, r1, r4
 467 0022 4909     		lsrs	r1, r1, #5
 468 0024 C1EB0111 		rsb	r1, r1, r1, lsl #4
 469 0028 8A00     		lsls	r2, r1, #2
 470 002a A11A     		subs	r1, r4, r2
 471 002c 0171     		strb	r1, [r0, #4]
 144:..\..\..\..\..\..\development\hardware\DS3231-PSoC/ds3231.c ****   t /= 60;
 472              		.loc 1 144 0
 473 002e 204A     		ldr	r2, .L40+8
 474 0030 A2FB0312 		umull	r1, r2, r2, r3
 475 0034 D20A     		lsrs	r2, r2, #11
 476              	.LVL34:
 145:..\..\..\..\..\..\development\hardware\DS3231-PSoC/ds3231.c ****   dt.hh = t % 24;
 477              		.loc 1 145 0
 478 0036 1F49     		ldr	r1, .L40+12
 479 0038 A1FB0241 		umull	r4, r1, r1, r2
 480 003c 0909     		lsrs	r1, r1, #4
ARM GAS  C:\Users\bkettle\AppData\Local\Temp\ccGmBPxk.s 			page 12


 481 003e 01EB4101 		add	r1, r1, r1, lsl #1
 482 0042 CC00     		lsls	r4, r1, #3
 483 0044 111B     		subs	r1, r2, r4
 484 0046 C170     		strb	r1, [r0, #3]
 146:..\..\..\..\..\..\development\hardware\DS3231-PSoC/ds3231.c ****   uint16_t days = t / 24;
 485              		.loc 1 146 0
 486 0048 1B4C     		ldr	r4, .L40+16
 487 004a A4FB0323 		umull	r2, r3, r4, r3
 488              	.LVL35:
 489 004e 1C0C     		lsrs	r4, r3, #16
 490              	.LVL36:
 491              	.L34:
 147:..\..\..\..\..\..\development\hardware\DS3231-PSoC/ds3231.c ****   uint8_t leap;
 148:..\..\..\..\..\..\development\hardware\DS3231-PSoC/ds3231.c ****   for (dt.yOff = 0;; ++dt.yOff) {
 149:..\..\..\..\..\..\development\hardware\DS3231-PSoC/ds3231.c ****     leap = dt.yOff % 4 == 0;
 492              		.loc 1 149 0
 493 0050 0278     		ldrb	r2, [r0]	@ zero_extendqisi2
 494 0052 12F00306 		ands	r6, r2, #3
 495 0056 0CBF     		ite	eq
 496 0058 0123     		moveq	r3, #1
 497 005a 0023     		movne	r3, #0
 498              	.LVL37:
 150:..\..\..\..\..\..\development\hardware\DS3231-PSoC/ds3231.c ****     if (days < 365U + leap)
 499              		.loc 1 150 0
 500 005c 03F26D11 		addw	r1, r3, #365
 501 0060 8C42     		cmp	r4, r1
 502 0062 07D3     		bcc	.L33
 151:..\..\..\..\..\..\development\hardware\DS3231-PSoC/ds3231.c ****       break;
 152:..\..\..\..\..\..\development\hardware\DS3231-PSoC/ds3231.c ****     days -= 365 + leap;
 503              		.loc 1 152 0
 504 0064 E31A     		subs	r3, r4, r3
 505              	.LVL38:
 506 0066 9BB2     		uxth	r3, r3
 507 0068 A3F26D13 		subw	r3, r3, #365
 508 006c 9CB2     		uxth	r4, r3
 509              	.LVL39:
 148:..\..\..\..\..\..\development\hardware\DS3231-PSoC/ds3231.c ****     leap = dt.yOff % 4 == 0;
 510              		.loc 1 148 0
 511 006e 0132     		adds	r2, r2, #1
 512 0070 0270     		strb	r2, [r0]
 153:..\..\..\..\..\..\development\hardware\DS3231-PSoC/ds3231.c ****   }
 513              		.loc 1 153 0
 514 0072 EDE7     		b	.L34
 515              	.LVL40:
 516              	.L33:
 154:..\..\..\..\..\..\development\hardware\DS3231-PSoC/ds3231.c ****   for (dt.m = 1; dt.m < 12; ++dt.m) {
 517              		.loc 1 154 0
 518 0074 0123     		movs	r3, #1
 519              	.LVL41:
 520 0076 4370     		strb	r3, [r0, #1]
 521 0078 0EE0     		b	.L35
 522              	.LVL42:
 523              	.L38:
 524              	.LBB3:
 155:..\..\..\..\..\..\development\hardware\DS3231-PSoC/ds3231.c ****     uint8_t daysPerMonth = pgm_read_byte(daysInMonth + dt.m - 1);
 525              		.loc 1 155 0
 526 007a 6B1E     		subs	r3, r5, #1
ARM GAS  C:\Users\bkettle\AppData\Local\Temp\ccGmBPxk.s 			page 13


 527 007c 0F4A     		ldr	r2, .L40+20
 528 007e D25C     		ldrb	r2, [r2, r3]	@ zero_extendqisi2
 529              	.LVL43:
 156:..\..\..\..\..\..\development\hardware\DS3231-PSoC/ds3231.c ****     if (leap && dt.m == 2)
 530              		.loc 1 156 0
 531 0080 1EB9     		cbnz	r6, .L36
 532              		.loc 1 156 0 is_stmt 0 discriminator 1
 533 0082 022D     		cmp	r5, #2
 534 0084 01D1     		bne	.L36
 157:..\..\..\..\..\..\development\hardware\DS3231-PSoC/ds3231.c ****       ++daysPerMonth;
 535              		.loc 1 157 0 is_stmt 1
 536 0086 511C     		adds	r1, r2, #1
 537 0088 CAB2     		uxtb	r2, r1
 538              	.LVL44:
 539              	.L36:
 158:..\..\..\..\..\..\development\hardware\DS3231-PSoC/ds3231.c ****     if (days < daysPerMonth)
 540              		.loc 1 158 0
 541 008a 92B2     		uxth	r2, r2
 542              	.LVL45:
 543 008c 9442     		cmp	r4, r2
 544 008e 06D3     		bcc	.L37
 159:..\..\..\..\..\..\development\hardware\DS3231-PSoC/ds3231.c ****       break;
 160:..\..\..\..\..\..\development\hardware\DS3231-PSoC/ds3231.c ****     days -= daysPerMonth;
 545              		.loc 1 160 0 discriminator 2
 546 0090 A31A     		subs	r3, r4, r2
 547 0092 9CB2     		uxth	r4, r3
 548              	.LVL46:
 549              	.LBE3:
 154:..\..\..\..\..\..\development\hardware\DS3231-PSoC/ds3231.c ****     uint8_t daysPerMonth = pgm_read_byte(daysInMonth + dt.m - 1);
 550              		.loc 1 154 0 discriminator 2
 551 0094 0135     		adds	r5, r5, #1
 552 0096 4570     		strb	r5, [r0, #1]
 553              	.L35:
 154:..\..\..\..\..\..\development\hardware\DS3231-PSoC/ds3231.c ****     uint8_t daysPerMonth = pgm_read_byte(daysInMonth + dt.m - 1);
 554              		.loc 1 154 0 is_stmt 0 discriminator 1
 555 0098 4578     		ldrb	r5, [r0, #1]	@ zero_extendqisi2
 556 009a 0B2D     		cmp	r5, #11
 557 009c EDD9     		bls	.L38
 558              	.L37:
 161:..\..\..\..\..\..\development\hardware\DS3231-PSoC/ds3231.c ****   }
 162:..\..\..\..\..\..\development\hardware\DS3231-PSoC/ds3231.c ****   dt.d = days + 1;
 559              		.loc 1 162 0 is_stmt 1
 560 009e 631C     		adds	r3, r4, #1
 561 00a0 8370     		strb	r3, [r0, #2]
 163:..\..\..\..\..\..\development\hardware\DS3231-PSoC/ds3231.c **** 
 164:..\..\..\..\..\..\development\hardware\DS3231-PSoC/ds3231.c ****   return dt;
 165:..\..\..\..\..\..\development\hardware\DS3231-PSoC/ds3231.c **** }
 562              		.loc 1 165 0
 563 00a2 70BC     		pop	{r4, r5, r6}
 564              		.cfi_restore 6
 565              		.cfi_restore 5
 566              		.cfi_restore 4
 567              		.cfi_def_cfa_offset 0
 568              	.LVL47:
 569 00a4 7047     		bx	lr
 570              	.L41:
 571 00a6 00BF     		.align	2
ARM GAS  C:\Users\bkettle\AppData\Local\Temp\ccGmBPxk.s 			page 14


 572              	.L40:
 573 00a8 80BC92C7 		.word	-946684800
 574 00ac 89888888 		.word	-2004318071
 575 00b0 C5B3A291 		.word	-1851608123
 576 00b4 ABAAAAAA 		.word	-1431655765
 577 00b8 07452EC2 		.word	-1037155065
 578 00bc 00000000 		.word	.LANCHOR0
 579              		.cfi_endproc
 580              	.LFE74:
 581              		.size	dt_fromUnix, .-dt_fromUnix
 582              		.section	.text.dt_fromYMD,"ax",%progbits
 583              		.align	2
 584              		.global	dt_fromYMD
 585              		.thumb
 586              		.thumb_func
 587              		.type	dt_fromYMD, %function
 588              	dt_fromYMD:
 589              	.LFB75:
 166:..\..\..\..\..\..\development\hardware\DS3231-PSoC/ds3231.c **** 
 167:..\..\..\..\..\..\development\hardware\DS3231-PSoC/ds3231.c **** /**************************************************************************/
 168:..\..\..\..\..\..\development\hardware\DS3231-PSoC/ds3231.c **** /*!
 169:..\..\..\..\..\..\development\hardware\DS3231-PSoC/ds3231.c ****     @brief  Constructor from (year, month, day, hour, minute, second).
 170:..\..\..\..\..\..\development\hardware\DS3231-PSoC/ds3231.c ****     @warning If the provided parameters are not valid (e.g. 31 February),
 171:..\..\..\..\..\..\development\hardware\DS3231-PSoC/ds3231.c ****            the constructed DateTime will be invalid.
 172:..\..\..\..\..\..\development\hardware\DS3231-PSoC/ds3231.c ****     @see   The `isValid()` method can be used to test whether the
 173:..\..\..\..\..\..\development\hardware\DS3231-PSoC/ds3231.c ****            constructed DateTime is valid.
 174:..\..\..\..\..\..\development\hardware\DS3231-PSoC/ds3231.c ****     @param year Either the full year (range: 2000--2099) or the offset from
 175:..\..\..\..\..\..\development\hardware\DS3231-PSoC/ds3231.c ****         year 2000 (range: 0--99).
 176:..\..\..\..\..\..\development\hardware\DS3231-PSoC/ds3231.c ****     @param month Month number (1--12).
 177:..\..\..\..\..\..\development\hardware\DS3231-PSoC/ds3231.c ****     @param day Day of the month (1--31).
 178:..\..\..\..\..\..\development\hardware\DS3231-PSoC/ds3231.c ****     @param hour,min,sec Hour (0--23), minute (0--59) and second (0--59).
 179:..\..\..\..\..\..\development\hardware\DS3231-PSoC/ds3231.c **** */
 180:..\..\..\..\..\..\development\hardware\DS3231-PSoC/ds3231.c **** /**************************************************************************/
 181:..\..\..\..\..\..\development\hardware\DS3231-PSoC/ds3231.c **** DateTime dt_fromYMD(uint16_t year, uint8_t month, uint8_t day, uint8_t hour,
 182:..\..\..\..\..\..\development\hardware\DS3231-PSoC/ds3231.c ****                    uint8_t min, uint8_t sec) {
 590              		.loc 1 182 0
 591              		.cfi_startproc
 592              		@ args = 12, pretend = 0, frame = 0
 593              		@ frame_needed = 0, uses_anonymous_args = 0
 594              		@ link register save eliminated.
 595              	.LVL48:
 596 0000 10B4     		push	{r4}
 597              		.cfi_def_cfa_offset 4
 598              		.cfi_offset 4, -4
 183:..\..\..\..\..\..\development\hardware\DS3231-PSoC/ds3231.c ****   DateTime dt = {};
 599              		.loc 1 183 0
 600 0002 0024     		movs	r4, #0
 601 0004 0460     		str	r4, [r0]	@ unaligned
 602 0006 8480     		strh	r4, [r0, #4]	@ unaligned
 184:..\..\..\..\..\..\development\hardware\DS3231-PSoC/ds3231.c ****   if (year >= 2000)
 603              		.loc 1 184 0
 604 0008 B1F5FA6F 		cmp	r1, #2000
 605 000c 02D3     		bcc	.L43
 185:..\..\..\..\..\..\development\hardware\DS3231-PSoC/ds3231.c ****     year -= 2000;
 606              		.loc 1 185 0
 607 000e A1F5FA61 		sub	r1, r1, #2000
 608              	.LVL49:
ARM GAS  C:\Users\bkettle\AppData\Local\Temp\ccGmBPxk.s 			page 15


 609 0012 89B2     		uxth	r1, r1
 610              	.LVL50:
 611              	.L43:
 186:..\..\..\..\..\..\development\hardware\DS3231-PSoC/ds3231.c ****   dt.yOff = year;
 612              		.loc 1 186 0
 613 0014 0170     		strb	r1, [r0]
 187:..\..\..\..\..\..\development\hardware\DS3231-PSoC/ds3231.c ****   dt.m = month;
 614              		.loc 1 187 0
 615 0016 4270     		strb	r2, [r0, #1]
 188:..\..\..\..\..\..\development\hardware\DS3231-PSoC/ds3231.c ****   dt.d = day;
 616              		.loc 1 188 0
 617 0018 8370     		strb	r3, [r0, #2]
 189:..\..\..\..\..\..\development\hardware\DS3231-PSoC/ds3231.c ****   dt.hh = hour;
 618              		.loc 1 189 0
 619 001a 9DF80430 		ldrb	r3, [sp, #4]	@ zero_extendqisi2
 620              	.LVL51:
 621 001e C370     		strb	r3, [r0, #3]
 190:..\..\..\..\..\..\development\hardware\DS3231-PSoC/ds3231.c ****   dt.mm = min;
 622              		.loc 1 190 0
 623 0020 9DF80830 		ldrb	r3, [sp, #8]	@ zero_extendqisi2
 624 0024 0371     		strb	r3, [r0, #4]
 191:..\..\..\..\..\..\development\hardware\DS3231-PSoC/ds3231.c ****   dt.ss = sec;
 625              		.loc 1 191 0
 626 0026 9DF80C30 		ldrb	r3, [sp, #12]	@ zero_extendqisi2
 627 002a 4371     		strb	r3, [r0, #5]
 192:..\..\..\..\..\..\development\hardware\DS3231-PSoC/ds3231.c ****   return dt;
 193:..\..\..\..\..\..\development\hardware\DS3231-PSoC/ds3231.c **** }
 628              		.loc 1 193 0
 629 002c 10BC     		pop	{r4}
 630              		.cfi_restore 4
 631              		.cfi_def_cfa_offset 0
 632              	.LVL52:
 633 002e 7047     		bx	lr
 634              		.cfi_endproc
 635              	.LFE75:
 636              		.size	dt_fromYMD, .-dt_fromYMD
 637              		.section	.text.dt_getUnixtime,"ax",%progbits
 638              		.align	2
 639              		.global	dt_getUnixtime
 640              		.thumb
 641              		.thumb_func
 642              		.type	dt_getUnixtime, %function
 643              	dt_getUnixtime:
 644              	.LFB76:
 194:..\..\..\..\..\..\development\hardware\DS3231-PSoC/ds3231.c ****                
 195:..\..\..\..\..\..\development\hardware\DS3231-PSoC/ds3231.c **** /**************************************************************************/
 196:..\..\..\..\..\..\development\hardware\DS3231-PSoC/ds3231.c **** /*!
 197:..\..\..\..\..\..\development\hardware\DS3231-PSoC/ds3231.c ****     @brief  Return Unix time: seconds since 1 Jan 1970.
 198:..\..\..\..\..\..\development\hardware\DS3231-PSoC/ds3231.c ****     @see The `DateTime::DateTime(uint32_t)` constructor is the converse of
 199:..\..\..\..\..\..\development\hardware\DS3231-PSoC/ds3231.c ****         this method.
 200:..\..\..\..\..\..\development\hardware\DS3231-PSoC/ds3231.c ****     @return Number of seconds since 1970-01-01 00:00:00.
 201:..\..\..\..\..\..\development\hardware\DS3231-PSoC/ds3231.c **** */
 202:..\..\..\..\..\..\development\hardware\DS3231-PSoC/ds3231.c **** /**************************************************************************/
 203:..\..\..\..\..\..\development\hardware\DS3231-PSoC/ds3231.c **** uint32_t dt_getUnixtime(DateTime dt) {
 645              		.loc 1 203 0
 646              		.cfi_startproc
 647              		@ args = 0, pretend = 0, frame = 8
ARM GAS  C:\Users\bkettle\AppData\Local\Temp\ccGmBPxk.s 			page 16


 648              		@ frame_needed = 0, uses_anonymous_args = 0
 649 0000 00B5     		push	{lr}
 650              		.cfi_def_cfa_offset 4
 651              		.cfi_offset 14, -4
 652 0002 83B0     		sub	sp, sp, #12
 653              		.cfi_def_cfa_offset 16
 654 0004 02AB     		add	r3, sp, #8
 655 0006 03E90300 		stmdb	r3, {r0, r1}
 204:..\..\..\..\..\..\development\hardware\DS3231-PSoC/ds3231.c ****   uint32_t t;
 205:..\..\..\..\..\..\development\hardware\DS3231-PSoC/ds3231.c ****   uint16_t days = date2days(dt.yOff, dt.m, dt.d);
 656              		.loc 1 205 0
 657 000a 9DF80220 		ldrb	r2, [sp, #2]	@ zero_extendqisi2
 658 000e 9DF80110 		ldrb	r1, [sp, #1]	@ zero_extendqisi2
 659 0012 9DF80000 		ldrb	r0, [sp]	@ zero_extendqisi2
 660 0016 FFF7FEFF 		bl	date2days
 661              	.LVL53:
 206:..\..\..\..\..\..\development\hardware\DS3231-PSoC/ds3231.c ****   t = time2ulong(days, dt.hh, dt.mm, dt.ss);
 662              		.loc 1 206 0
 663 001a 9DF80530 		ldrb	r3, [sp, #5]	@ zero_extendqisi2
 664 001e 9DF80420 		ldrb	r2, [sp, #4]	@ zero_extendqisi2
 665 0022 9DF80310 		ldrb	r1, [sp, #3]	@ zero_extendqisi2
 666 0026 FFF7FEFF 		bl	time2ulong
 667              	.LVL54:
 207:..\..\..\..\..\..\development\hardware\DS3231-PSoC/ds3231.c ****   t += SECONDS_FROM_1970_TO_2000; // seconds from 1970 to 2000
 208:..\..\..\..\..\..\development\hardware\DS3231-PSoC/ds3231.c **** 
 209:..\..\..\..\..\..\development\hardware\DS3231-PSoC/ds3231.c ****   return t;
 210:..\..\..\..\..\..\development\hardware\DS3231-PSoC/ds3231.c **** }
 668              		.loc 1 210 0
 669 002a 00F16150 		add	r0, r0, #943718400
 670              	.LVL55:
 671 002e 00F53510 		add	r0, r0, #2965504
 672              	.LVL56:
 673 0032 00F56070 		add	r0, r0, #896
 674              	.LVL57:
 675 0036 03B0     		add	sp, sp, #12
 676              		.cfi_def_cfa_offset 4
 677              		@ sp needed
 678 0038 5DF804FB 		ldr	pc, [sp], #4
 679              		.cfi_endproc
 680              	.LFE76:
 681              		.size	dt_getUnixtime, .-dt_getUnixtime
 682              		.section	.text.dt_getSecondstime,"ax",%progbits
 683              		.align	2
 684              		.global	dt_getSecondstime
 685              		.thumb
 686              		.thumb_func
 687              		.type	dt_getSecondstime, %function
 688              	dt_getSecondstime:
 689              	.LFB77:
 211:..\..\..\..\..\..\development\hardware\DS3231-PSoC/ds3231.c **** 
 212:..\..\..\..\..\..\development\hardware\DS3231-PSoC/ds3231.c **** /**************************************************************************/
 213:..\..\..\..\..\..\development\hardware\DS3231-PSoC/ds3231.c **** /*!
 214:..\..\..\..\..\..\development\hardware\DS3231-PSoC/ds3231.c ****     @brief  Convert the DateTime to seconds since 1 Jan 2000
 215:..\..\..\..\..\..\development\hardware\DS3231-PSoC/ds3231.c ****     The result can be converted back to a DateTime with:
 216:..\..\..\..\..\..\development\hardware\DS3231-PSoC/ds3231.c ****     ```cpp
 217:..\..\..\..\..\..\development\hardware\DS3231-PSoC/ds3231.c ****     DateTime(SECONDS_FROM_1970_TO_2000 + value)
 218:..\..\..\..\..\..\development\hardware\DS3231-PSoC/ds3231.c ****     ```
ARM GAS  C:\Users\bkettle\AppData\Local\Temp\ccGmBPxk.s 			page 17


 219:..\..\..\..\..\..\development\hardware\DS3231-PSoC/ds3231.c ****     @return Number of seconds since 2000-01-01 00:00:00.
 220:..\..\..\..\..\..\development\hardware\DS3231-PSoC/ds3231.c **** */
 221:..\..\..\..\..\..\development\hardware\DS3231-PSoC/ds3231.c **** /**************************************************************************/
 222:..\..\..\..\..\..\development\hardware\DS3231-PSoC/ds3231.c **** uint32_t dt_getSecondstime(DateTime dt) {
 690              		.loc 1 222 0
 691              		.cfi_startproc
 692              		@ args = 0, pretend = 0, frame = 8
 693              		@ frame_needed = 0, uses_anonymous_args = 0
 694 0000 00B5     		push	{lr}
 695              		.cfi_def_cfa_offset 4
 696              		.cfi_offset 14, -4
 697 0002 83B0     		sub	sp, sp, #12
 698              		.cfi_def_cfa_offset 16
 699 0004 02AB     		add	r3, sp, #8
 700 0006 03E90300 		stmdb	r3, {r0, r1}
 223:..\..\..\..\..\..\development\hardware\DS3231-PSoC/ds3231.c ****   uint32_t t;
 224:..\..\..\..\..\..\development\hardware\DS3231-PSoC/ds3231.c ****   uint16_t days = date2days(dt.yOff, dt.m, dt.d);
 701              		.loc 1 224 0
 702 000a 9DF80220 		ldrb	r2, [sp, #2]	@ zero_extendqisi2
 703 000e 9DF80110 		ldrb	r1, [sp, #1]	@ zero_extendqisi2
 704 0012 9DF80000 		ldrb	r0, [sp]	@ zero_extendqisi2
 705 0016 FFF7FEFF 		bl	date2days
 706              	.LVL58:
 225:..\..\..\..\..\..\development\hardware\DS3231-PSoC/ds3231.c ****   t = time2ulong(days, dt.hh, dt.mm, dt.ss);
 707              		.loc 1 225 0
 708 001a 9DF80530 		ldrb	r3, [sp, #5]	@ zero_extendqisi2
 709 001e 9DF80420 		ldrb	r2, [sp, #4]	@ zero_extendqisi2
 710 0022 9DF80310 		ldrb	r1, [sp, #3]	@ zero_extendqisi2
 711 0026 FFF7FEFF 		bl	time2ulong
 712              	.LVL59:
 226:..\..\..\..\..\..\development\hardware\DS3231-PSoC/ds3231.c ****   return t;
 227:..\..\..\..\..\..\development\hardware\DS3231-PSoC/ds3231.c **** }
 713              		.loc 1 227 0
 714 002a 03B0     		add	sp, sp, #12
 715              		.cfi_def_cfa_offset 4
 716              		@ sp needed
 717 002c 5DF804FB 		ldr	pc, [sp], #4
 718              		.cfi_endproc
 719              	.LFE77:
 720              		.size	dt_getSecondstime, .-dt_getSecondstime
 721              		.section	.text.bcd2bin,"ax",%progbits
 722              		.align	2
 723              		.global	bcd2bin
 724              		.thumb
 725              		.thumb_func
 726              		.type	bcd2bin, %function
 727              	bcd2bin:
 728              	.LFB78:
 228:..\..\..\..\..\..\development\hardware\DS3231-PSoC/ds3231.c **** 
 229:..\..\..\..\..\..\development\hardware\DS3231-PSoC/ds3231.c **** /**************************************************************************/
 230:..\..\..\..\..\..\development\hardware\DS3231-PSoC/ds3231.c **** /*!
 231:..\..\..\..\..\..\development\hardware\DS3231-PSoC/ds3231.c ****     @brief  Convert a binary coded decimal value to binary. RTC stores time/date
 232:..\..\..\..\..\..\development\hardware\DS3231-PSoC/ds3231.c ****    values as BCD.
 233:..\..\..\..\..\..\development\hardware\DS3231-PSoC/ds3231.c ****     @param val BCD value
 234:..\..\..\..\..\..\development\hardware\DS3231-PSoC/ds3231.c ****     @return Binary value
 235:..\..\..\..\..\..\development\hardware\DS3231-PSoC/ds3231.c **** */
 236:..\..\..\..\..\..\development\hardware\DS3231-PSoC/ds3231.c **** /**************************************************************************/
ARM GAS  C:\Users\bkettle\AppData\Local\Temp\ccGmBPxk.s 			page 18


 237:..\..\..\..\..\..\development\hardware\DS3231-PSoC/ds3231.c **** uint8_t bcd2bin(uint8_t val) { return val - 6 * (val >> 4); }
 729              		.loc 1 237 0
 730              		.cfi_startproc
 731              		@ args = 0, pretend = 0, frame = 0
 732              		@ frame_needed = 0, uses_anonymous_args = 0
 733              		@ link register save eliminated.
 734              	.LVL60:
 735              		.loc 1 237 0
 736 0000 0309     		lsrs	r3, r0, #4
 737 0002 A3EB8303 		sub	r3, r3, r3, lsl #2
 738 0006 5A00     		lsls	r2, r3, #1
 739 0008 1044     		add	r0, r0, r2
 740              	.LVL61:
 741 000a C0B2     		uxtb	r0, r0
 742 000c 7047     		bx	lr
 743              		.cfi_endproc
 744              	.LFE78:
 745              		.size	bcd2bin, .-bcd2bin
 746 000e 00BF     		.section	.text.bin2bcd,"ax",%progbits
 747              		.align	2
 748              		.global	bin2bcd
 749              		.thumb
 750              		.thumb_func
 751              		.type	bin2bcd, %function
 752              	bin2bcd:
 753              	.LFB79:
 238:..\..\..\..\..\..\development\hardware\DS3231-PSoC/ds3231.c **** 
 239:..\..\..\..\..\..\development\hardware\DS3231-PSoC/ds3231.c **** /**************************************************************************/
 240:..\..\..\..\..\..\development\hardware\DS3231-PSoC/ds3231.c **** /*!
 241:..\..\..\..\..\..\development\hardware\DS3231-PSoC/ds3231.c ****     @brief  Convert a binary value to BCD format for the RTC registers
 242:..\..\..\..\..\..\development\hardware\DS3231-PSoC/ds3231.c ****     @param val Binary value
 243:..\..\..\..\..\..\development\hardware\DS3231-PSoC/ds3231.c ****     @return BCD value
 244:..\..\..\..\..\..\development\hardware\DS3231-PSoC/ds3231.c **** */
 245:..\..\..\..\..\..\development\hardware\DS3231-PSoC/ds3231.c **** /**************************************************************************/
 246:..\..\..\..\..\..\development\hardware\DS3231-PSoC/ds3231.c **** uint8_t bin2bcd(uint8_t val) { return val + 6 * (val / 10); }
 754              		.loc 1 246 0
 755              		.cfi_startproc
 756              		@ args = 0, pretend = 0, frame = 0
 757              		@ frame_needed = 0, uses_anonymous_args = 0
 758              		@ link register save eliminated.
 759              	.LVL62:
 760              		.loc 1 246 0
 761 0000 044B     		ldr	r3, .L51
 762 0002 A3FB0023 		umull	r2, r3, r3, r0
 763 0006 DB08     		lsrs	r3, r3, #3
 764 0008 03EB4303 		add	r3, r3, r3, lsl #1
 765 000c 5A00     		lsls	r2, r3, #1
 766 000e 1044     		add	r0, r0, r2
 767              	.LVL63:
 768 0010 C0B2     		uxtb	r0, r0
 769 0012 7047     		bx	lr
 770              	.L52:
 771              		.align	2
 772              	.L51:
 773 0014 CDCCCCCC 		.word	-858993459
 774              		.cfi_endproc
 775              	.LFE79:
ARM GAS  C:\Users\bkettle\AppData\Local\Temp\ccGmBPxk.s 			page 19


 776              		.size	bin2bcd, .-bin2bcd
 777              		.section	.text.RTC_setTime,"ax",%progbits
 778              		.align	2
 779              		.global	RTC_setTime
 780              		.thumb
 781              		.thumb_func
 782              		.type	RTC_setTime, %function
 783              	RTC_setTime:
 784              	.LFB80:
 247:..\..\..\..\..\..\development\hardware\DS3231-PSoC/ds3231.c **** 
 248:..\..\..\..\..\..\development\hardware\DS3231-PSoC/ds3231.c **** // DS3231 stuff!
 249:..\..\..\..\..\..\development\hardware\DS3231-PSoC/ds3231.c **** /**************************************************************************/
 250:..\..\..\..\..\..\development\hardware\DS3231-PSoC/ds3231.c **** /*!
 251:..\..\..\..\..\..\development\hardware\DS3231-PSoC/ds3231.c ****     @brief  Set the date and flip the Oscillator Stop Flag
 252:..\..\..\..\..\..\development\hardware\DS3231-PSoC/ds3231.c ****     @param dt DateTime object containing the date/time to set
 253:..\..\..\..\..\..\development\hardware\DS3231-PSoC/ds3231.c **** */
 254:..\..\..\..\..\..\development\hardware\DS3231-PSoC/ds3231.c **** /**************************************************************************/
 255:..\..\..\..\..\..\development\hardware\DS3231-PSoC/ds3231.c **** void RTC_setTime(DateTime dt) {
 785              		.loc 1 255 0
 786              		.cfi_startproc
 787              		@ args = 0, pretend = 0, frame = 16
 788              		@ frame_needed = 0, uses_anonymous_args = 0
 789 0000 30B5     		push	{r4, r5, lr}
 790              		.cfi_def_cfa_offset 12
 791              		.cfi_offset 4, -12
 792              		.cfi_offset 5, -8
 793              		.cfi_offset 14, -4
 794 0002 85B0     		sub	sp, sp, #20
 795              		.cfi_def_cfa_offset 32
 796 0004 8DE80300 		stmia	sp, {r0, r1}
 256:..\..\..\..\..\..\development\hardware\DS3231-PSoC/ds3231.c ****     //I2CRTC_MasterSendStart(DS3231_ADDRESS,0); // send write command to addr
 257:..\..\..\..\..\..\development\hardware\DS3231-PSoC/ds3231.c ****     //I2CRTC_MasterWriteByte(DS3231_TIME);// start at location 0
 258:..\..\..\..\..\..\development\hardware\DS3231-PSoC/ds3231.c ****     uint8 tx_buff[8] = {
 797              		.loc 1 258 0
 798 0008 0025     		movs	r5, #0
 799 000a 8DF80850 		strb	r5, [sp, #8]
 259:..\..\..\..\..\..\development\hardware\DS3231-PSoC/ds3231.c ****         0,
 260:..\..\..\..\..\..\development\hardware\DS3231-PSoC/ds3231.c ****         bin2bcd(dt_getSecond(dt)),
 800              		.loc 1 260 0
 801 000e 9DE80300 		ldmia	sp, {r0, r1}
 802 0012 FFF7FEFF 		bl	dt_getSecond
 803              	.LVL64:
 804 0016 FFF7FEFF 		bl	bin2bcd
 805              	.LVL65:
 258:..\..\..\..\..\..\development\hardware\DS3231-PSoC/ds3231.c ****         0,
 806              		.loc 1 258 0
 807 001a 8DF80900 		strb	r0, [sp, #9]
 261:..\..\..\..\..\..\development\hardware\DS3231-PSoC/ds3231.c ****         bin2bcd(dt_getMinute(dt)),
 808              		.loc 1 261 0
 809 001e 9DE80300 		ldmia	sp, {r0, r1}
 810 0022 FFF7FEFF 		bl	dt_getMinute
 811              	.LVL66:
 812 0026 FFF7FEFF 		bl	bin2bcd
 813              	.LVL67:
 258:..\..\..\..\..\..\development\hardware\DS3231-PSoC/ds3231.c ****         0,
 814              		.loc 1 258 0
 815 002a 8DF80A00 		strb	r0, [sp, #10]
ARM GAS  C:\Users\bkettle\AppData\Local\Temp\ccGmBPxk.s 			page 20


 262:..\..\..\..\..\..\development\hardware\DS3231-PSoC/ds3231.c ****         bin2bcd(dt_getHour(dt)),
 816              		.loc 1 262 0
 817 002e 9DE80300 		ldmia	sp, {r0, r1}
 818 0032 FFF7FEFF 		bl	dt_getHour
 819              	.LVL68:
 820 0036 FFF7FEFF 		bl	bin2bcd
 821              	.LVL69:
 258:..\..\..\..\..\..\development\hardware\DS3231-PSoC/ds3231.c ****         0,
 822              		.loc 1 258 0
 823 003a 8DF80B00 		strb	r0, [sp, #11]
 824 003e 8DF80C50 		strb	r5, [sp, #12]
 263:..\..\..\..\..\..\development\hardware\DS3231-PSoC/ds3231.c ****         0,
 264:..\..\..\..\..\..\development\hardware\DS3231-PSoC/ds3231.c ****         bin2bcd(dt_getDay(dt)),
 825              		.loc 1 264 0
 826 0042 9DE80300 		ldmia	sp, {r0, r1}
 827 0046 FFF7FEFF 		bl	dt_getDay
 828              	.LVL70:
 829 004a FFF7FEFF 		bl	bin2bcd
 830              	.LVL71:
 258:..\..\..\..\..\..\development\hardware\DS3231-PSoC/ds3231.c ****         0,
 831              		.loc 1 258 0
 832 004e 8DF80D00 		strb	r0, [sp, #13]
 265:..\..\..\..\..\..\development\hardware\DS3231-PSoC/ds3231.c ****         bin2bcd(dt_getMonth(dt)),
 833              		.loc 1 265 0
 834 0052 9DE80300 		ldmia	sp, {r0, r1}
 835 0056 FFF7FEFF 		bl	dt_getMonth
 836              	.LVL72:
 837 005a FFF7FEFF 		bl	bin2bcd
 838              	.LVL73:
 258:..\..\..\..\..\..\development\hardware\DS3231-PSoC/ds3231.c ****         0,
 839              		.loc 1 258 0
 840 005e 8DF80E00 		strb	r0, [sp, #14]
 266:..\..\..\..\..\..\development\hardware\DS3231-PSoC/ds3231.c ****         bin2bcd(dt_getYear(dt)-2000),
 841              		.loc 1 266 0
 842 0062 9DE80300 		ldmia	sp, {r0, r1}
 843 0066 FFF7FEFF 		bl	dt_getYear
 844              	.LVL74:
 845 006a 3030     		adds	r0, r0, #48
 846 006c C0B2     		uxtb	r0, r0
 847 006e FFF7FEFF 		bl	bin2bcd
 848              	.LVL75:
 258:..\..\..\..\..\..\development\hardware\DS3231-PSoC/ds3231.c ****         0,
 849              		.loc 1 258 0
 850 0072 8DF80F00 		strb	r0, [sp, #15]
 267:..\..\..\..\..\..\development\hardware\DS3231-PSoC/ds3231.c ****     };
 268:..\..\..\..\..\..\development\hardware\DS3231-PSoC/ds3231.c ****     I2CRTC_MasterWriteBuf(DS3231_ADDRESS,tx_buff,8,I2CRTC_MODE_COMPLETE_XFER );   // Send read star
 851              		.loc 1 268 0
 852 0076 2B46     		mov	r3, r5
 853 0078 0822     		movs	r2, #8
 854 007a 0DEB0201 		add	r1, sp, r2
 855 007e 6820     		movs	r0, #104
 856 0080 FFF7FEFF 		bl	I2CRTC_MasterWriteBuf
 857              	.LVL76:
 858              	.L54:
 269:..\..\..\..\..\..\development\hardware\DS3231-PSoC/ds3231.c ****     while(0u == (I2CRTC_MasterStatus() & I2CRTC_MSTAT_WR_CMPLT));      // Waiting for writing
 859              		.loc 1 269 0 discriminator 1
 860 0084 FFF7FEFF 		bl	I2CRTC_MasterStatus
ARM GAS  C:\Users\bkettle\AppData\Local\Temp\ccGmBPxk.s 			page 21


 861              	.LVL77:
 862 0088 10F0020F 		tst	r0, #2
 863 008c FAD0     		beq	.L54
 270:..\..\..\..\..\..\development\hardware\DS3231-PSoC/ds3231.c ****     I2CRTC_MasterClearStatus(); 
 864              		.loc 1 270 0
 865 008e FFF7FEFF 		bl	I2CRTC_MasterClearStatus
 866              	.LVL78:
 271:..\..\..\..\..\..\development\hardware\DS3231-PSoC/ds3231.c **** }
 867              		.loc 1 271 0
 868 0092 05B0     		add	sp, sp, #20
 869              		.cfi_def_cfa_offset 12
 870              		@ sp needed
 871 0094 30BD     		pop	{r4, r5, pc}
 872              		.cfi_endproc
 873              	.LFE80:
 874              		.size	RTC_setTime, .-RTC_setTime
 875 0096 00BF     		.section	.text.RTC_now,"ax",%progbits
 876              		.align	2
 877              		.global	RTC_now
 878              		.thumb
 879              		.thumb_func
 880              		.type	RTC_now, %function
 881              	RTC_now:
 882              	.LFB81:
 272:..\..\..\..\..\..\development\hardware\DS3231-PSoC/ds3231.c **** 
 273:..\..\..\..\..\..\development\hardware\DS3231-PSoC/ds3231.c **** /**************************************************************************/
 274:..\..\..\..\..\..\development\hardware\DS3231-PSoC/ds3231.c **** /*!
 275:..\..\..\..\..\..\development\hardware\DS3231-PSoC/ds3231.c ****     @brief  Get the current date/time
 276:..\..\..\..\..\..\development\hardware\DS3231-PSoC/ds3231.c ****     @return DateTime object with the current date/time
 277:..\..\..\..\..\..\development\hardware\DS3231-PSoC/ds3231.c **** */
 278:..\..\..\..\..\..\development\hardware\DS3231-PSoC/ds3231.c **** /**************************************************************************/
 279:..\..\..\..\..\..\development\hardware\DS3231-PSoC/ds3231.c **** DateTime RTC_now() {
 883              		.loc 1 279 0
 884              		.cfi_startproc
 885              		@ args = 0, pretend = 0, frame = 8
 886              		@ frame_needed = 0, uses_anonymous_args = 0
 887              	.LVL79:
 888 0000 2DE9F047 		push	{r4, r5, r6, r7, r8, r9, r10, lr}
 889              		.cfi_def_cfa_offset 32
 890              		.cfi_offset 4, -32
 891              		.cfi_offset 5, -28
 892              		.cfi_offset 6, -24
 893              		.cfi_offset 7, -20
 894              		.cfi_offset 8, -16
 895              		.cfi_offset 9, -12
 896              		.cfi_offset 10, -8
 897              		.cfi_offset 14, -4
 898 0004 82B0     		sub	sp, sp, #8
 899              		.cfi_def_cfa_offset 40
 900 0006 0446     		mov	r4, r0
 280:..\..\..\..\..\..\development\hardware\DS3231-PSoC/ds3231.c ****     uint8 tx_buff[1] = {0};
 901              		.loc 1 280 0
 902 0008 0023     		movs	r3, #0
 903 000a 02A9     		add	r1, sp, #8
 904 000c 01F8043D 		strb	r3, [r1, #-4]!
 281:..\..\..\..\..\..\development\hardware\DS3231-PSoC/ds3231.c ****     I2CRTC_MasterWriteBuf(DS3231_ADDRESS,tx_buff,1,I2CRTC_MODE_COMPLETE_XFER );   // Send read star
 905              		.loc 1 281 0
ARM GAS  C:\Users\bkettle\AppData\Local\Temp\ccGmBPxk.s 			page 22


 906 0010 0122     		movs	r2, #1
 907 0012 6820     		movs	r0, #104
 908              	.LVL80:
 909 0014 FFF7FEFF 		bl	I2CRTC_MasterWriteBuf
 910              	.LVL81:
 911              	.L57:
 282:..\..\..\..\..\..\development\hardware\DS3231-PSoC/ds3231.c ****     while(0u == (I2CRTC_MasterStatus() & I2CRTC_MSTAT_WR_CMPLT));      // Waiting for writing
 912              		.loc 1 282 0 discriminator 1
 913 0018 FFF7FEFF 		bl	I2CRTC_MasterStatus
 914              	.LVL82:
 915 001c 10F0020F 		tst	r0, #2
 916 0020 FAD0     		beq	.L57
 283:..\..\..\..\..\..\development\hardware\DS3231-PSoC/ds3231.c ****     I2CRTC_MasterClearStatus();  
 917              		.loc 1 283 0
 918 0022 FFF7FEFF 		bl	I2CRTC_MasterClearStatus
 919              	.LVL83:
 284:..\..\..\..\..\..\development\hardware\DS3231-PSoC/ds3231.c ****     
 285:..\..\..\..\..\..\development\hardware\DS3231-PSoC/ds3231.c ****     I2CRTC_MasterReadBuf(DS3231_ADDRESS, RTC_read_buff, 7, I2CRTC_MODE_COMPLETE_XFER);
 920              		.loc 1 285 0
 921 0026 0023     		movs	r3, #0
 922 0028 0722     		movs	r2, #7
 923 002a 1A49     		ldr	r1, .L60
 924 002c 6820     		movs	r0, #104
 925 002e FFF7FEFF 		bl	I2CRTC_MasterReadBuf
 926              	.LVL84:
 927              	.L58:
 286:..\..\..\..\..\..\development\hardware\DS3231-PSoC/ds3231.c ****     while(0u == (I2CRTC_MasterStatus() & I2CRTC_MSTAT_RD_CMPLT));      // Wait for read to finish
 928              		.loc 1 286 0 discriminator 1
 929 0032 FFF7FEFF 		bl	I2CRTC_MasterStatus
 930              	.LVL85:
 931 0036 10F0010F 		tst	r0, #1
 932 003a FAD0     		beq	.L58
 287:..\..\..\..\..\..\development\hardware\DS3231-PSoC/ds3231.c ****     I2CRTC_MasterClearStatus();
 933              		.loc 1 287 0
 934 003c FFF7FEFF 		bl	I2CRTC_MasterClearStatus
 935              	.LVL86:
 288:..\..\..\..\..\..\development\hardware\DS3231-PSoC/ds3231.c ****     
 289:..\..\..\..\..\..\development\hardware\DS3231-PSoC/ds3231.c ****     uint8_t ss = bcd2bin(RTC_read_buff[0] & 0x7F);
 936              		.loc 1 289 0
 937 0040 144D     		ldr	r5, .L60
 938 0042 2878     		ldrb	r0, [r5]	@ zero_extendqisi2
 939 0044 00F07F00 		and	r0, r0, #127
 940 0048 FFF7FEFF 		bl	bcd2bin
 941              	.LVL87:
 942 004c 0646     		mov	r6, r0
 943              	.LVL88:
 290:..\..\..\..\..\..\development\hardware\DS3231-PSoC/ds3231.c ****     uint8_t mm = bcd2bin(RTC_read_buff[1]);
 944              		.loc 1 290 0
 945 004e 6878     		ldrb	r0, [r5, #1]	@ zero_extendqisi2
 946 0050 FFF7FEFF 		bl	bcd2bin
 947              	.LVL89:
 948 0054 0746     		mov	r7, r0
 949              	.LVL90:
 291:..\..\..\..\..\..\development\hardware\DS3231-PSoC/ds3231.c ****     uint8_t hh = bcd2bin(RTC_read_buff[2]);
 950              		.loc 1 291 0
 951 0056 A878     		ldrb	r0, [r5, #2]	@ zero_extendqisi2
 952 0058 FFF7FEFF 		bl	bcd2bin
ARM GAS  C:\Users\bkettle\AppData\Local\Temp\ccGmBPxk.s 			page 23


 953              	.LVL91:
 954 005c 8046     		mov	r8, r0
 955              	.LVL92:
 292:..\..\..\..\..\..\development\hardware\DS3231-PSoC/ds3231.c ****     uint8_t d = bcd2bin(RTC_read_buff[4]);
 956              		.loc 1 292 0
 957 005e 2879     		ldrb	r0, [r5, #4]	@ zero_extendqisi2
 958 0060 FFF7FEFF 		bl	bcd2bin
 959              	.LVL93:
 960 0064 8146     		mov	r9, r0
 961              	.LVL94:
 293:..\..\..\..\..\..\development\hardware\DS3231-PSoC/ds3231.c ****     uint8_t m = bcd2bin(RTC_read_buff[5]);
 962              		.loc 1 293 0
 963 0066 6879     		ldrb	r0, [r5, #5]	@ zero_extendqisi2
 964 0068 FFF7FEFF 		bl	bcd2bin
 965              	.LVL95:
 966 006c 8246     		mov	r10, r0
 967              	.LVL96:
 294:..\..\..\..\..\..\development\hardware\DS3231-PSoC/ds3231.c ****     uint16_t yOff = bcd2bin(RTC_read_buff[6]);
 968              		.loc 1 294 0
 969 006e A879     		ldrb	r0, [r5, #6]	@ zero_extendqisi2
 970 0070 FFF7FEFF 		bl	bcd2bin
 971              	.LVL97:
 972 0074 0546     		mov	r5, r0
 973              	.LVL98:
 295:..\..\..\..\..\..\development\hardware\DS3231-PSoC/ds3231.c ****     I2CRTC_MasterClearReadBuf();
 974              		.loc 1 295 0
 975 0076 FFF7FEFF 		bl	I2CRTC_MasterClearReadBuf
 976              	.LVL99:
 296:..\..\..\..\..\..\development\hardware\DS3231-PSoC/ds3231.c **** 
 297:..\..\..\..\..\..\development\hardware\DS3231-PSoC/ds3231.c ****     DateTime dt = {yOff, m, d, hh, mm, ss};
 977              		.loc 1 297 0
 978 007a 2570     		strb	r5, [r4]
 979 007c 84F801A0 		strb	r10, [r4, #1]
 980 0080 84F80290 		strb	r9, [r4, #2]
 981 0084 84F80380 		strb	r8, [r4, #3]
 982 0088 2771     		strb	r7, [r4, #4]
 983 008a 6671     		strb	r6, [r4, #5]
 298:..\..\..\..\..\..\development\hardware\DS3231-PSoC/ds3231.c ****     return dt;
 299:..\..\..\..\..\..\development\hardware\DS3231-PSoC/ds3231.c **** }
 984              		.loc 1 299 0
 985 008c 2046     		mov	r0, r4
 986 008e 02B0     		add	sp, sp, #8
 987              		.cfi_def_cfa_offset 32
 988              		@ sp needed
 989 0090 BDE8F087 		pop	{r4, r5, r6, r7, r8, r9, r10, pc}
 990              	.LVL100:
 991              	.L61:
 992              		.align	2
 993              	.L60:
 994 0094 00000000 		.word	RTC_read_buff
 995              		.cfi_endproc
 996              	.LFE81:
 997              		.size	RTC_now, .-RTC_now
 998              		.global	daysInMonth
 999              		.comm	RTC_read_buff,10,4
 1000              		.section	.rodata
 1001              		.align	2
ARM GAS  C:\Users\bkettle\AppData\Local\Temp\ccGmBPxk.s 			page 24


 1002              		.set	.LANCHOR0,. + 0
 1003              		.type	daysInMonth, %object
 1004              		.size	daysInMonth, 11
 1005              	daysInMonth:
 1006 0000 1F       		.byte	31
 1007 0001 1C       		.byte	28
 1008 0002 1F       		.byte	31
 1009 0003 1E       		.byte	30
 1010 0004 1F       		.byte	31
 1011 0005 1E       		.byte	30
 1012 0006 1F       		.byte	31
 1013 0007 1F       		.byte	31
 1014 0008 1E       		.byte	30
 1015 0009 1F       		.byte	31
 1016 000a 1E       		.byte	30
 1017              		.text
 1018              	.Letext0:
 1019              		.file 2 "c:\\program files (x86)\\cypress\\psoc creator\\4.3\\psoc creator\\import\\gnu\\arm\\5.4.
 1020              		.file 3 "c:\\program files (x86)\\cypress\\psoc creator\\4.3\\psoc creator\\import\\gnu\\arm\\5.4.
 1021              		.file 4 "Generated_Source\\PSoC5/cytypes.h"
 1022              		.file 5 "C:\\Users\\bkettle\\OneDrive\\development\\hardware\\DS3231-PSoC/ds3231.h"
 1023              		.file 6 "Generated_Source\\PSoC5/core_cm3.h"
 1024              		.file 7 "Generated_Source\\PSoC5/I2CRTC.h"