ARM GAS  C:\Users\bkettle\AppData\Local\Temp\ccEtW88g.s 			page 1


   1              		.syntax unified
   2              		.cpu cortex-m3
   3              		.fpu softvfp
   4              		.eabi_attribute 20, 1
   5              		.eabi_attribute 21, 1
   6              		.eabi_attribute 23, 3
   7              		.eabi_attribute 24, 1
   8              		.eabi_attribute 25, 1
   9              		.eabi_attribute 26, 1
  10              		.eabi_attribute 30, 1
  11              		.eabi_attribute 34, 1
  12              		.eabi_attribute 18, 4
  13              		.thumb
  14              		.syntax unified
  15              		.file	"main.c"
  16              		.text
  17              	.Ltext0:
  18              		.cfi_sections	.debug_frame
  19              		.section	.text.ENC_SW_INT,"ax",%progbits
  20              		.align	2
  21              		.global	ENC_SW_INT
  22              		.thumb
  23              		.thumb_func
  24              		.type	ENC_SW_INT, %function
  25              	ENC_SW_INT:
  26              	.LFB73:
  27              		.file 1 "main.c"
   1:main.c        **** /* ========================================
   2:main.c        ****  *
   3:main.c        ****  * Copyright YOUR COMPANY, THE YEAR
   4:main.c        ****  * All Rights Reserved
   5:main.c        ****  * UNPUBLISHED, LICENSED SOFTWARE.
   6:main.c        ****  *
   7:main.c        ****  * CONFIDENTIAL AND PROPRIETARY INFORMATION
   8:main.c        ****  * WHICH IS THE PROPERTY OF your company.
   9:main.c        ****  *
  10:main.c        ****  * ========================================
  11:main.c        **** */
  12:main.c        **** #include "project.h"
  13:main.c        **** #include "stdio.h"
  14:main.c        **** #include <stdlib.h>
  15:main.c        **** 
  16:main.c        **** #include <ds3231.h>
  17:main.c        **** 
  18:main.c        **** // record stuff
  19:main.c        **** 
  20:main.c        **** // struct to hold each item, when decrypted they should fit this format
  21:main.c        **** // 64 bytes total (for now)
  22:main.c        **** // ALREADY IN OTHER FILE
  23:main.c        **** typedef struct {
  24:main.c        ****     char title[9];
  25:main.c        ****     char username[35];
  26:main.c        ****     char password[19];
  27:main.c        **** } Record;
  28:main.c        **** Record null_record = {"","",""};
  29:main.c        **** 
  30:main.c        **** /*******************************
ARM GAS  C:\Users\bkettle\AppData\Local\Temp\ccEtW88g.s 			page 2


  31:main.c        **** *       UART STUFF             *
  32:main.c        **** *******************************/
  33:main.c        **** 
  34:main.c        **** char rx_buffer[30];
  35:main.c        **** int rx_buff_length;
  36:main.c        **** char last_serial_cmd[30];
  37:main.c        **** void clr_rx_buffer(){ 
  38:main.c        ****     memset(rx_buffer, 0, 30); 
  39:main.c        ****     rx_buff_length = 0;
  40:main.c        **** };
  41:main.c        **** void clr_last_serial_cmd(){ memset(last_serial_cmd, 0, 30); };
  42:main.c        **** void update_rx_buffer(char to_add) {
  43:main.c        ****     char str_to_add[2] = {to_add, 0};
  44:main.c        ****     strcat(rx_buffer, str_to_add);
  45:main.c        **** }
  46:main.c        **** 
  47:main.c        **** typedef struct {
  48:main.c        ****     int size;
  49:main.c        ****     char title[20];
  50:main.c        ****     char items[10][20];
  51:main.c        **** } SerialMenu;
  52:main.c        **** 
  53:main.c        **** void serial_print_menu(SerialMenu menu) {
  54:main.c        ****     UART_1_PutString("\n\r");
  55:main.c        ****     UART_1_PutString(menu.title);
  56:main.c        ****     UART_1_PutString(":\n\r");
  57:main.c        ****     for (int i = 0; i<menu.size; i++) {
  58:main.c        ****         // print item number (max of 9 items)
  59:main.c        ****         // just does it by ascii conversion
  60:main.c        ****         UART_1_PutChar(i + 0x31);
  61:main.c        ****         UART_1_PutString(". ");
  62:main.c        ****         UART_1_PutString(menu.items[i]);
  63:main.c        ****         UART_1_PutString("\n\r");
  64:main.c        ****     }
  65:main.c        ****     UART_1_PutString("\n\rEnter the choice you want: ");
  66:main.c        **** }
  67:main.c        **** 
  68:main.c        **** void serial_print_record(Record record) {
  69:main.c        ****     // prints a record's info to the serial monitor in a nice way
  70:main.c        ****     UART_1_PutString("\n\r\n\r   ");
  71:main.c        ****     for (int i=0; i<30; i++) {
  72:main.c        ****         UART_1_PutChar('*');
  73:main.c        ****     }
  74:main.c        ****     UART_1_PutString("\n\r   * Title: ");
  75:main.c        ****     UART_1_PutString(record.title);
  76:main.c        ****     UART_1_PutString("\n\r   * Username: ");
  77:main.c        ****     UART_1_PutString(record.username);
  78:main.c        ****     UART_1_PutString("\n\r   * Password: ");
  79:main.c        ****     UART_1_PutString(record.password);
  80:main.c        ****     UART_1_PutString("\n\r   ");
  81:main.c        ****     for (int i=0; i<30; i++) {
  82:main.c        ****         UART_1_PutChar('*');
  83:main.c        ****     }
  84:main.c        **** }
  85:main.c        **** 
  86:main.c        **** void serial_inv_cmd() {
  87:main.c        ****     UART_1_PutString("\n\rInvalid Command!");
ARM GAS  C:\Users\bkettle\AppData\Local\Temp\ccEtW88g.s 			page 3


  88:main.c        **** }
  89:main.c        **** 
  90:main.c        **** // MENU/Serial State DEFINITIONS
  91:main.c        **** #define S_WAIT -1
  92:main.c        **** #define S_STARTUP 0
  93:main.c        **** #define S_MAIN_MENU 1
  94:main.c        **** #define S_ADD_RECORD 2
  95:main.c        **** 
  96:main.c        **** // Serial state variables
  97:main.c        **** int s_main_state = S_MAIN_MENU;
  98:main.c        **** int s_sec_state = 0; // secondary state
  99:main.c        **** 
 100:main.c        **** // Serial Main Menu
 101:main.c        **** SerialMenu main_menu = {
 102:main.c        ****     3,
 103:main.c        ****     "Main Menu",
 104:main.c        ****     {
 105:main.c        ****         "Add new record",
 106:main.c        ****         "View all records",
 107:main.c        ****         "Generate Password"
 108:main.c        ****     }
 109:main.c        **** };
 110:main.c        **** 
 111:main.c        **** // definitions for commands for serial main menu
 112:main.c        **** #define INVALID_CMD 0
 113:main.c        **** #define S_MAIN_ADD 1
 114:main.c        **** #define S_MAIN_VIEW 2
 115:main.c        **** #define S_MAIN_GEN_PW 3
 116:main.c        **** 
 117:main.c        **** // states for adding a record
 118:main.c        **** #define ADD_REC_START 0
 119:main.c        **** #define ADD_REC_TITLE 1
 120:main.c        **** #define ADD_REC_UNAME 2
 121:main.c        **** #define ADD_REC_PASS_MENU 3
 122:main.c        **** #define ADD_REC_PASS_ENTRY 4
 123:main.c        **** #define ADD_REC_CONFIRM 5
 124:main.c        **** 
 125:main.c        **** SerialMenu pass_menu = {
 126:main.c        ****     2,
 127:main.c        ****     "Password Menu",
 128:main.c        ****     {
 129:main.c        ****         "Enter Password",
 130:main.c        ****         "Generate Password"
 131:main.c        ****     }
 132:main.c        **** };
 133:main.c        **** 
 134:main.c        **** // command definitions for password menu
 135:main.c        **** #define PASS_MENU_ENTER 1
 136:main.c        **** #define PASS_MENU_GEN 2
 137:main.c        **** 
 138:main.c        **** // generate a password
 139:main.c        **** void generate_password(char* out) {
 140:main.c        ****     /* generate a 16-character ascii
 141:main.c        ****         password using the PRS component
 142:main.c        ****     */
 143:main.c        ****     char current_char = 0;
 144:main.c        ****     for (int i = 0; i<16; i++) {
ARM GAS  C:\Users\bkettle\AppData\Local\Temp\ccEtW88g.s 			page 4


 145:main.c        ****         current_char = (char) PRS_Read();
 146:main.c        ****         while ((int) current_char < 33 || (int) current_char > 126) {
 147:main.c        ****             // if outside of valid range of characters, generate new character
 148:main.c        ****             // spaces are not allowed, to include them change 33 to 32
 149:main.c        ****             PRS_Step();
 150:main.c        ****             current_char = (char) PRS_Read();
 151:main.c        ****         }
 152:main.c        ****         out[i] = current_char;
 153:main.c        ****         // move to next PRS value
 154:main.c        ****         PRS_Step();
 155:main.c        ****     }
 156:main.c        ****     out[16] = 0; // null terminate password
 157:main.c        **** }
 158:main.c        **** 
 159:main.c        **** // for the rtc, just debugging stuff
 160:main.c        **** void serial_print_dt(DateTime dt) {
 161:main.c        ****     UART_1_PutString("\n\rdatetime: ");
 162:main.c        ****     char to_send[40];
 163:main.c        ****     sprintf(to_send, "%d-%d-%d %d:%d:%2.0d unix: %d", dt_getYear(dt), \
 164:main.c        ****         dt_getMonth(dt), dt_getDay(dt), dt_getHour(dt), \
 165:main.c        ****         dt_getMinute(dt), dt_getSecond(dt), dt_getUnixtime(dt));
 166:main.c        ****     UART_1_PutString(to_send);
 167:main.c        **** }
 168:main.c        **** 
 169:main.c        **** CY_ISR(RX_INT) {
 170:main.c        ****     char rec_char = UART_1_ReadRxData();
 171:main.c        ****     if (rec_char == 0xD) {
 172:main.c        ****         // move buffer into last_serial_cmd on enter
 173:main.c        ****         strcpy(last_serial_cmd, rx_buffer);
 174:main.c        ****         clr_rx_buffer();
 175:main.c        ****     }       
 176:main.c        ****     else {
 177:main.c        ****         UART_1_PutChar(rec_char);    // echo recieved character
 178:main.c        ****         // add non-enter characters to rx buffer
 179:main.c        ****         rx_buffer[rx_buff_length] = rec_char;
 180:main.c        ****         rx_buffer[rx_buff_length + 1] = 0;
 181:main.c        ****         rx_buff_length += 1;
 182:main.c        ****     }
 183:main.c        **** }
 184:main.c        **** 
 185:main.c        **** CY_ISR(ENC_SW_INT) {
  28              		.loc 1 185 0
  29              		.cfi_startproc
  30              		@ args = 0, pretend = 0, frame = 16
  31              		@ frame_needed = 0, uses_anonymous_args = 0
  32 0000 00B5     		push	{lr}
  33              		.cfi_def_cfa_offset 4
  34              		.cfi_offset 14, -4
  35 0002 85B0     		sub	sp, sp, #20
  36              		.cfi_def_cfa_offset 24
 186:main.c        ****     char send_buffer[10];
 187:main.c        ****     sprintf(send_buffer, "%d\n\r", Dial_GetCounter());
  37              		.loc 1 187 0
  38 0004 FFF7FEFF 		bl	Dial_GetCounter
  39              	.LVL0:
  40 0008 0246     		mov	r2, r0
  41 000a 0549     		ldr	r1, .L3
ARM GAS  C:\Users\bkettle\AppData\Local\Temp\ccEtW88g.s 			page 5


  42 000c 01A8     		add	r0, sp, #4
  43 000e FFF7FEFF 		bl	sprintf
  44              	.LVL1:
 188:main.c        ****     UART_1_PutString(send_buffer);
  45              		.loc 1 188 0
  46 0012 01A8     		add	r0, sp, #4
  47 0014 FFF7FEFF 		bl	UART_1_PutString
  48              	.LVL2:
 189:main.c        **** }
  49              		.loc 1 189 0
  50 0018 05B0     		add	sp, sp, #20
  51              		.cfi_def_cfa_offset 4
  52              		@ sp needed
  53 001a 5DF804FB 		ldr	pc, [sp], #4
  54              	.L4:
  55 001e 00BF     		.align	2
  56              	.L3:
  57 0020 00000000 		.word	.LC0
  58              		.cfi_endproc
  59              	.LFE73:
  60              		.size	ENC_SW_INT, .-ENC_SW_INT
  61              		.section	.text.clr_rx_buffer,"ax",%progbits
  62              		.align	2
  63              		.global	clr_rx_buffer
  64              		.thumb
  65              		.thumb_func
  66              		.type	clr_rx_buffer, %function
  67              	clr_rx_buffer:
  68              	.LFB64:
  37:main.c        ****     memset(rx_buffer, 0, 30); 
  69              		.loc 1 37 0
  70              		.cfi_startproc
  71              		@ args = 0, pretend = 0, frame = 0
  72              		@ frame_needed = 0, uses_anonymous_args = 0
  73 0000 08B5     		push	{r3, lr}
  74              		.cfi_def_cfa_offset 8
  75              		.cfi_offset 3, -8
  76              		.cfi_offset 14, -4
  38:main.c        ****     rx_buff_length = 0;
  77              		.loc 1 38 0
  78 0002 1E22     		movs	r2, #30
  79 0004 0021     		movs	r1, #0
  80 0006 0348     		ldr	r0, .L7
  81 0008 FFF7FEFF 		bl	memset
  82              	.LVL3:
  39:main.c        **** };
  83              		.loc 1 39 0
  84 000c 0022     		movs	r2, #0
  85 000e 024B     		ldr	r3, .L7+4
  86 0010 1A60     		str	r2, [r3]
  87 0012 08BD     		pop	{r3, pc}
  88              	.L8:
  89              		.align	2
  90              	.L7:
  91 0014 00000000 		.word	rx_buffer
  92 0018 00000000 		.word	rx_buff_length
  93              		.cfi_endproc
ARM GAS  C:\Users\bkettle\AppData\Local\Temp\ccEtW88g.s 			page 6


  94              	.LFE64:
  95              		.size	clr_rx_buffer, .-clr_rx_buffer
  96              		.section	.text.RX_INT,"ax",%progbits
  97              		.align	2
  98              		.global	RX_INT
  99              		.thumb
 100              		.thumb_func
 101              		.type	RX_INT, %function
 102              	RX_INT:
 103              	.LFB72:
 169:main.c        ****     char rec_char = UART_1_ReadRxData();
 104              		.loc 1 169 0
 105              		.cfi_startproc
 106              		@ args = 0, pretend = 0, frame = 0
 107              		@ frame_needed = 0, uses_anonymous_args = 0
 108 0000 10B5     		push	{r4, lr}
 109              		.cfi_def_cfa_offset 8
 110              		.cfi_offset 4, -8
 111              		.cfi_offset 14, -4
 170:main.c        ****     if (rec_char == 0xD) {
 112              		.loc 1 170 0
 113 0002 FFF7FEFF 		bl	UART_1_ReadRxData
 114              	.LVL4:
 171:main.c        ****         // move buffer into last_serial_cmd on enter
 115              		.loc 1 171 0
 116 0006 0D28     		cmp	r0, #13
 117 0008 06D1     		bne	.L10
 173:main.c        ****         clr_rx_buffer();
 118              		.loc 1 173 0
 119 000a 0949     		ldr	r1, .L13
 120 000c 0948     		ldr	r0, .L13+4
 121              	.LVL5:
 122 000e FFF7FEFF 		bl	strcpy
 123              	.LVL6:
 174:main.c        ****     }       
 124              		.loc 1 174 0
 125 0012 FFF7FEFF 		bl	clr_rx_buffer
 126              	.LVL7:
 127 0016 10BD     		pop	{r4, pc}
 128              	.LVL8:
 129              	.L10:
 130 0018 0446     		mov	r4, r0
 177:main.c        ****         // add non-enter characters to rx buffer
 131              		.loc 1 177 0
 132 001a FFF7FEFF 		bl	UART_1_PutChar
 133              	.LVL9:
 179:main.c        ****         rx_buffer[rx_buff_length + 1] = 0;
 134              		.loc 1 179 0
 135 001e 064A     		ldr	r2, .L13+8
 136 0020 1368     		ldr	r3, [r2]
 137 0022 0349     		ldr	r1, .L13
 138 0024 CC54     		strb	r4, [r1, r3]
 180:main.c        ****         rx_buff_length += 1;
 139              		.loc 1 180 0
 140 0026 0133     		adds	r3, r3, #1
 141 0028 0020     		movs	r0, #0
 142 002a C854     		strb	r0, [r1, r3]
ARM GAS  C:\Users\bkettle\AppData\Local\Temp\ccEtW88g.s 			page 7


 181:main.c        ****     }
 143              		.loc 1 181 0
 144 002c 1360     		str	r3, [r2]
 145 002e 10BD     		pop	{r4, pc}
 146              	.L14:
 147              		.align	2
 148              	.L13:
 149 0030 00000000 		.word	rx_buffer
 150 0034 00000000 		.word	last_serial_cmd
 151 0038 00000000 		.word	rx_buff_length
 152              		.cfi_endproc
 153              	.LFE72:
 154              		.size	RX_INT, .-RX_INT
 155              		.section	.text.clr_last_serial_cmd,"ax",%progbits
 156              		.align	2
 157              		.global	clr_last_serial_cmd
 158              		.thumb
 159              		.thumb_func
 160              		.type	clr_last_serial_cmd, %function
 161              	clr_last_serial_cmd:
 162              	.LFB65:
  41:main.c        **** void update_rx_buffer(char to_add) {
 163              		.loc 1 41 0
 164              		.cfi_startproc
 165              		@ args = 0, pretend = 0, frame = 0
 166              		@ frame_needed = 0, uses_anonymous_args = 0
 167 0000 08B5     		push	{r3, lr}
 168              		.cfi_def_cfa_offset 8
 169              		.cfi_offset 3, -8
 170              		.cfi_offset 14, -4
  41:main.c        **** void update_rx_buffer(char to_add) {
 171              		.loc 1 41 0
 172 0002 1E22     		movs	r2, #30
 173 0004 0021     		movs	r1, #0
 174 0006 0248     		ldr	r0, .L17
 175 0008 FFF7FEFF 		bl	memset
 176              	.LVL10:
 177 000c 08BD     		pop	{r3, pc}
 178              	.L18:
 179 000e 00BF     		.align	2
 180              	.L17:
 181 0010 00000000 		.word	last_serial_cmd
 182              		.cfi_endproc
 183              	.LFE65:
 184              		.size	clr_last_serial_cmd, .-clr_last_serial_cmd
 185              		.section	.text.update_rx_buffer,"ax",%progbits
 186              		.align	2
 187              		.global	update_rx_buffer
 188              		.thumb
 189              		.thumb_func
 190              		.type	update_rx_buffer, %function
 191              	update_rx_buffer:
 192              	.LFB66:
  42:main.c        ****     char str_to_add[2] = {to_add, 0};
 193              		.loc 1 42 0
 194              		.cfi_startproc
 195              		@ args = 0, pretend = 0, frame = 8
ARM GAS  C:\Users\bkettle\AppData\Local\Temp\ccEtW88g.s 			page 8


 196              		@ frame_needed = 0, uses_anonymous_args = 0
 197              	.LVL11:
 198 0000 00B5     		push	{lr}
 199              		.cfi_def_cfa_offset 4
 200              		.cfi_offset 14, -4
 201 0002 83B0     		sub	sp, sp, #12
 202              		.cfi_def_cfa_offset 16
  43:main.c        ****     strcat(rx_buffer, str_to_add);
 203              		.loc 1 43 0
 204 0004 8DF80400 		strb	r0, [sp, #4]
 205 0008 0023     		movs	r3, #0
 206 000a 8DF80530 		strb	r3, [sp, #5]
  44:main.c        **** }
 207              		.loc 1 44 0
 208 000e 01A9     		add	r1, sp, #4
 209 0010 0248     		ldr	r0, .L21
 210              	.LVL12:
 211 0012 FFF7FEFF 		bl	strcat
 212              	.LVL13:
  45:main.c        **** 
 213              		.loc 1 45 0
 214 0016 03B0     		add	sp, sp, #12
 215              		.cfi_def_cfa_offset 4
 216              		@ sp needed
 217 0018 5DF804FB 		ldr	pc, [sp], #4
 218              	.L22:
 219              		.align	2
 220              	.L21:
 221 001c 00000000 		.word	rx_buffer
 222              		.cfi_endproc
 223              	.LFE66:
 224              		.size	update_rx_buffer, .-update_rx_buffer
 225              		.section	.text.serial_print_menu,"ax",%progbits
 226              		.align	2
 227              		.global	serial_print_menu
 228              		.thumb
 229              		.thumb_func
 230              		.type	serial_print_menu, %function
 231              	serial_print_menu:
 232              	.LFB67:
  53:main.c        ****     UART_1_PutString("\n\r");
 233              		.loc 1 53 0
 234              		.cfi_startproc
 235              		@ args = 224, pretend = 16, frame = 0
 236              		@ frame_needed = 0, uses_anonymous_args = 0
 237 0000 84B0     		sub	sp, sp, #16
 238              		.cfi_def_cfa_offset 16
 239 0002 10B5     		push	{r4, lr}
 240              		.cfi_def_cfa_offset 24
 241              		.cfi_offset 4, -24
 242              		.cfi_offset 14, -20
 243 0004 02AC     		add	r4, sp, #8
 244 0006 84E80F00 		stmia	r4, {r0, r1, r2, r3}
  54:main.c        ****     UART_1_PutString(menu.title);
 245              		.loc 1 54 0
 246 000a 1448     		ldr	r0, .L27
 247 000c FFF7FEFF 		bl	UART_1_PutString
ARM GAS  C:\Users\bkettle\AppData\Local\Temp\ccEtW88g.s 			page 9


 248              	.LVL14:
  55:main.c        ****     UART_1_PutString(":\n\r");
 249              		.loc 1 55 0
 250 0010 03A8     		add	r0, sp, #12
 251 0012 FFF7FEFF 		bl	UART_1_PutString
 252              	.LVL15:
  56:main.c        ****     for (int i = 0; i<menu.size; i++) {
 253              		.loc 1 56 0
 254 0016 1248     		ldr	r0, .L27+4
 255 0018 FFF7FEFF 		bl	UART_1_PutString
 256              	.LVL16:
 257              	.LBB2:
  57:main.c        ****         // print item number (max of 9 items)
 258              		.loc 1 57 0
 259 001c 0024     		movs	r4, #0
 260 001e 13E0     		b	.L24
 261              	.LVL17:
 262              	.L25:
  60:main.c        ****         UART_1_PutString(". ");
 263              		.loc 1 60 0 discriminator 3
 264 0020 04F13100 		add	r0, r4, #49
 265 0024 C0B2     		uxtb	r0, r0
 266 0026 FFF7FEFF 		bl	UART_1_PutChar
 267              	.LVL18:
  61:main.c        ****         UART_1_PutString(menu.items[i]);
 268              		.loc 1 61 0 discriminator 3
 269 002a 0E48     		ldr	r0, .L27+8
 270 002c FFF7FEFF 		bl	UART_1_PutString
 271              	.LVL19:
  62:main.c        ****         UART_1_PutString("\n\r");
 272              		.loc 1 62 0 discriminator 3
 273 0030 04EB8403 		add	r3, r4, r4, lsl #2
 274 0034 9800     		lsls	r0, r3, #2
 275 0036 1830     		adds	r0, r0, #24
 276 0038 02AB     		add	r3, sp, #8
 277 003a 1844     		add	r0, r0, r3
 278 003c FFF7FEFF 		bl	UART_1_PutString
 279              	.LVL20:
  63:main.c        ****     }
 280              		.loc 1 63 0 discriminator 3
 281 0040 0648     		ldr	r0, .L27
 282 0042 FFF7FEFF 		bl	UART_1_PutString
 283              	.LVL21:
  57:main.c        ****         // print item number (max of 9 items)
 284              		.loc 1 57 0 discriminator 3
 285 0046 0134     		adds	r4, r4, #1
 286              	.LVL22:
 287              	.L24:
  57:main.c        ****         // print item number (max of 9 items)
 288              		.loc 1 57 0 is_stmt 0 discriminator 1
 289 0048 029B     		ldr	r3, [sp, #8]
 290 004a 9C42     		cmp	r4, r3
 291 004c E8DB     		blt	.L25
 292              	.LBE2:
  65:main.c        **** }
 293              		.loc 1 65 0 is_stmt 1
 294 004e 0648     		ldr	r0, .L27+12
ARM GAS  C:\Users\bkettle\AppData\Local\Temp\ccEtW88g.s 			page 10


 295 0050 FFF7FEFF 		bl	UART_1_PutString
 296              	.LVL23:
  66:main.c        **** 
 297              		.loc 1 66 0
 298 0054 BDE81040 		pop	{r4, lr}
 299              		.cfi_restore 14
 300              		.cfi_restore 4
 301              		.cfi_def_cfa_offset 16
 302              	.LVL24:
 303 0058 04B0     		add	sp, sp, #16
 304              		.cfi_def_cfa_offset 0
 305 005a 7047     		bx	lr
 306              	.L28:
 307              		.align	2
 308              	.L27:
 309 005c 08000000 		.word	.LC1
 310 0060 0C000000 		.word	.LC2
 311 0064 10000000 		.word	.LC3
 312 0068 14000000 		.word	.LC4
 313              		.cfi_endproc
 314              	.LFE67:
 315              		.size	serial_print_menu, .-serial_print_menu
 316              		.section	.text.serial_print_record,"ax",%progbits
 317              		.align	2
 318              		.global	serial_print_record
 319              		.thumb
 320              		.thumb_func
 321              		.type	serial_print_record, %function
 322              	serial_print_record:
 323              	.LFB68:
  68:main.c        ****     // prints a record's info to the serial monitor in a nice way
 324              		.loc 1 68 0
 325              		.cfi_startproc
 326              		@ args = 64, pretend = 16, frame = 0
 327              		@ frame_needed = 0, uses_anonymous_args = 0
 328 0000 84B0     		sub	sp, sp, #16
 329              		.cfi_def_cfa_offset 16
 330 0002 10B5     		push	{r4, lr}
 331              		.cfi_def_cfa_offset 24
 332              		.cfi_offset 4, -24
 333              		.cfi_offset 14, -20
 334 0004 02AC     		add	r4, sp, #8
 335 0006 84E80F00 		stmia	r4, {r0, r1, r2, r3}
  70:main.c        ****     for (int i=0; i<30; i++) {
 336              		.loc 1 70 0
 337 000a 1648     		ldr	r0, .L35
 338 000c FFF7FEFF 		bl	UART_1_PutString
 339              	.LVL25:
 340              	.LBB3:
  71:main.c        ****         UART_1_PutChar('*');
 341              		.loc 1 71 0
 342 0010 0024     		movs	r4, #0
 343 0012 03E0     		b	.L30
 344              	.LVL26:
 345              	.L31:
  72:main.c        ****     }
 346              		.loc 1 72 0 discriminator 3
ARM GAS  C:\Users\bkettle\AppData\Local\Temp\ccEtW88g.s 			page 11


 347 0014 2A20     		movs	r0, #42
 348 0016 FFF7FEFF 		bl	UART_1_PutChar
 349              	.LVL27:
  71:main.c        ****         UART_1_PutChar('*');
 350              		.loc 1 71 0 discriminator 3
 351 001a 0134     		adds	r4, r4, #1
 352              	.LVL28:
 353              	.L30:
  71:main.c        ****         UART_1_PutChar('*');
 354              		.loc 1 71 0 is_stmt 0 discriminator 1
 355 001c 1D2C     		cmp	r4, #29
 356 001e F9DD     		ble	.L31
 357              	.LBE3:
  74:main.c        ****     UART_1_PutString(record.title);
 358              		.loc 1 74 0 is_stmt 1
 359 0020 1148     		ldr	r0, .L35+4
 360 0022 FFF7FEFF 		bl	UART_1_PutString
 361              	.LVL29:
  75:main.c        ****     UART_1_PutString("\n\r   * Username: ");
 362              		.loc 1 75 0
 363 0026 02A8     		add	r0, sp, #8
 364 0028 FFF7FEFF 		bl	UART_1_PutString
 365              	.LVL30:
  76:main.c        ****     UART_1_PutString(record.username);
 366              		.loc 1 76 0
 367 002c 0F48     		ldr	r0, .L35+8
 368 002e FFF7FEFF 		bl	UART_1_PutString
 369              	.LVL31:
  77:main.c        ****     UART_1_PutString("\n\r   * Password: ");
 370              		.loc 1 77 0
 371 0032 0DF11100 		add	r0, sp, #17
 372 0036 FFF7FEFF 		bl	UART_1_PutString
 373              	.LVL32:
  78:main.c        ****     UART_1_PutString(record.password);
 374              		.loc 1 78 0
 375 003a 0D48     		ldr	r0, .L35+12
 376 003c FFF7FEFF 		bl	UART_1_PutString
 377              	.LVL33:
  79:main.c        ****     UART_1_PutString("\n\r   ");
 378              		.loc 1 79 0
 379 0040 0DA8     		add	r0, sp, #52
 380 0042 FFF7FEFF 		bl	UART_1_PutString
 381              	.LVL34:
  80:main.c        ****     for (int i=0; i<30; i++) {
 382              		.loc 1 80 0
 383 0046 0B48     		ldr	r0, .L35+16
 384 0048 FFF7FEFF 		bl	UART_1_PutString
 385              	.LVL35:
 386              	.LBB4:
  81:main.c        ****         UART_1_PutChar('*');
 387              		.loc 1 81 0
 388 004c 0024     		movs	r4, #0
 389              	.LVL36:
 390 004e 03E0     		b	.L32
 391              	.LVL37:
 392              	.L33:
  82:main.c        ****     }
ARM GAS  C:\Users\bkettle\AppData\Local\Temp\ccEtW88g.s 			page 12


 393              		.loc 1 82 0 discriminator 3
 394 0050 2A20     		movs	r0, #42
 395 0052 FFF7FEFF 		bl	UART_1_PutChar
 396              	.LVL38:
  81:main.c        ****         UART_1_PutChar('*');
 397              		.loc 1 81 0 discriminator 3
 398 0056 0134     		adds	r4, r4, #1
 399              	.LVL39:
 400              	.L32:
  81:main.c        ****         UART_1_PutChar('*');
 401              		.loc 1 81 0 is_stmt 0 discriminator 1
 402 0058 1D2C     		cmp	r4, #29
 403 005a F9DD     		ble	.L33
 404              	.LBE4:
  84:main.c        **** 
 405              		.loc 1 84 0 is_stmt 1
 406 005c BDE81040 		pop	{r4, lr}
 407              		.cfi_restore 14
 408              		.cfi_restore 4
 409              		.cfi_def_cfa_offset 16
 410              	.LVL40:
 411 0060 04B0     		add	sp, sp, #16
 412              		.cfi_def_cfa_offset 0
 413 0062 7047     		bx	lr
 414              	.L36:
 415              		.align	2
 416              	.L35:
 417 0064 34000000 		.word	.LC5
 418 0068 3C000000 		.word	.LC6
 419 006c 4C000000 		.word	.LC7
 420 0070 60000000 		.word	.LC8
 421 0074 74000000 		.word	.LC9
 422              		.cfi_endproc
 423              	.LFE68:
 424              		.size	serial_print_record, .-serial_print_record
 425              		.section	.text.serial_inv_cmd,"ax",%progbits
 426              		.align	2
 427              		.global	serial_inv_cmd
 428              		.thumb
 429              		.thumb_func
 430              		.type	serial_inv_cmd, %function
 431              	serial_inv_cmd:
 432              	.LFB69:
  86:main.c        ****     UART_1_PutString("\n\rInvalid Command!");
 433              		.loc 1 86 0
 434              		.cfi_startproc
 435              		@ args = 0, pretend = 0, frame = 0
 436              		@ frame_needed = 0, uses_anonymous_args = 0
 437 0000 08B5     		push	{r3, lr}
 438              		.cfi_def_cfa_offset 8
 439              		.cfi_offset 3, -8
 440              		.cfi_offset 14, -4
  87:main.c        **** }
 441              		.loc 1 87 0
 442 0002 0248     		ldr	r0, .L39
 443 0004 FFF7FEFF 		bl	UART_1_PutString
 444              	.LVL41:
ARM GAS  C:\Users\bkettle\AppData\Local\Temp\ccEtW88g.s 			page 13


 445 0008 08BD     		pop	{r3, pc}
 446              	.L40:
 447 000a 00BF     		.align	2
 448              	.L39:
 449 000c 7C000000 		.word	.LC10
 450              		.cfi_endproc
 451              	.LFE69:
 452              		.size	serial_inv_cmd, .-serial_inv_cmd
 453              		.section	.text.generate_password,"ax",%progbits
 454              		.align	2
 455              		.global	generate_password
 456              		.thumb
 457              		.thumb_func
 458              		.type	generate_password, %function
 459              	generate_password:
 460              	.LFB70:
 139:main.c        ****     /* generate a 16-character ascii
 461              		.loc 1 139 0
 462              		.cfi_startproc
 463              		@ args = 0, pretend = 0, frame = 0
 464              		@ frame_needed = 0, uses_anonymous_args = 0
 465              	.LVL42:
 466 0000 38B5     		push	{r3, r4, r5, lr}
 467              		.cfi_def_cfa_offset 16
 468              		.cfi_offset 3, -16
 469              		.cfi_offset 4, -12
 470              		.cfi_offset 5, -8
 471              		.cfi_offset 14, -4
 472 0002 0546     		mov	r5, r0
 473              	.LVL43:
 474              	.LBB5:
 144:main.c        ****         current_char = (char) PRS_Read();
 475              		.loc 1 144 0
 476 0004 0024     		movs	r4, #0
 477 0006 11E0     		b	.L42
 478              	.LVL44:
 479              	.L45:
 145:main.c        ****         while ((int) current_char < 33 || (int) current_char > 126) {
 480              		.loc 1 145 0
 481 0008 FFF7FEFF 		bl	PRS_Read
 482              	.LVL45:
 483 000c C0B2     		uxtb	r0, r0
 484              	.LVL46:
 146:main.c        ****             // if outside of valid range of characters, generate new character
 485              		.loc 1 146 0
 486 000e 04E0     		b	.L43
 487              	.L44:
 149:main.c        ****             current_char = (char) PRS_Read();
 488              		.loc 1 149 0
 489 0010 FFF7FEFF 		bl	PRS_Step
 490              	.LVL47:
 150:main.c        ****         }
 491              		.loc 1 150 0
 492 0014 FFF7FEFF 		bl	PRS_Read
 493              	.LVL48:
 494 0018 C0B2     		uxtb	r0, r0
 495              	.LVL49:
ARM GAS  C:\Users\bkettle\AppData\Local\Temp\ccEtW88g.s 			page 14


 496              	.L43:
 146:main.c        ****             // if outside of valid range of characters, generate new character
 497              		.loc 1 146 0
 498 001a A0F12103 		sub	r3, r0, #33
 499 001e DBB2     		uxtb	r3, r3
 500 0020 5D2B     		cmp	r3, #93
 501 0022 F5D8     		bhi	.L44
 152:main.c        ****         // move to next PRS value
 502              		.loc 1 152 0 discriminator 2
 503 0024 2855     		strb	r0, [r5, r4]
 154:main.c        ****     }
 504              		.loc 1 154 0 discriminator 2
 505 0026 FFF7FEFF 		bl	PRS_Step
 506              	.LVL50:
 144:main.c        ****         current_char = (char) PRS_Read();
 507              		.loc 1 144 0 discriminator 2
 508 002a 0134     		adds	r4, r4, #1
 509              	.LVL51:
 510              	.L42:
 144:main.c        ****         current_char = (char) PRS_Read();
 511              		.loc 1 144 0 is_stmt 0 discriminator 1
 512 002c 0F2C     		cmp	r4, #15
 513 002e EBDD     		ble	.L45
 514              	.LBE5:
 156:main.c        **** }
 515              		.loc 1 156 0 is_stmt 1
 516 0030 0023     		movs	r3, #0
 517 0032 2B74     		strb	r3, [r5, #16]
 518 0034 38BD     		pop	{r3, r4, r5, pc}
 519              		.cfi_endproc
 520              	.LFE70:
 521              		.size	generate_password, .-generate_password
 522 0036 00BF     		.section	.text.serial_print_dt,"ax",%progbits
 523              		.align	2
 524              		.global	serial_print_dt
 525              		.thumb
 526              		.thumb_func
 527              		.type	serial_print_dt, %function
 528              	serial_print_dt:
 529              	.LFB71:
 160:main.c        ****     UART_1_PutString("\n\rdatetime: ");
 530              		.loc 1 160 0
 531              		.cfi_startproc
 532              		@ args = 0, pretend = 0, frame = 48
 533              		@ frame_needed = 0, uses_anonymous_args = 0
 534 0000 2DE9F047 		push	{r4, r5, r6, r7, r8, r9, r10, lr}
 535              		.cfi_def_cfa_offset 32
 536              		.cfi_offset 4, -32
 537              		.cfi_offset 5, -28
 538              		.cfi_offset 6, -24
 539              		.cfi_offset 7, -20
 540              		.cfi_offset 8, -16
 541              		.cfi_offset 9, -12
 542              		.cfi_offset 10, -8
 543              		.cfi_offset 14, -4
 544 0004 92B0     		sub	sp, sp, #72
 545              		.cfi_def_cfa_offset 104
ARM GAS  C:\Users\bkettle\AppData\Local\Temp\ccEtW88g.s 			page 15


 546 0006 06AC     		add	r4, sp, #24
 547 0008 84E80300 		stmia	r4, {r0, r1}
 161:main.c        ****     char to_send[40];
 548              		.loc 1 161 0
 549 000c 1C48     		ldr	r0, .L49
 550 000e FFF7FEFF 		bl	UART_1_PutString
 551              	.LVL52:
 163:main.c        ****         dt_getMonth(dt), dt_getDay(dt), dt_getHour(dt), \
 552              		.loc 1 163 0
 553 0012 94E80300 		ldmia	r4, {r0, r1}
 554 0016 FFF7FEFF 		bl	dt_getYear
 555              	.LVL53:
 556 001a 0546     		mov	r5, r0
 164:main.c        ****         dt_getMinute(dt), dt_getSecond(dt), dt_getUnixtime(dt));
 557              		.loc 1 164 0
 558 001c 94E80300 		ldmia	r4, {r0, r1}
 559 0020 FFF7FEFF 		bl	dt_getMonth
 560              	.LVL54:
 561 0024 0646     		mov	r6, r0
 562 0026 94E80300 		ldmia	r4, {r0, r1}
 563 002a FFF7FEFF 		bl	dt_getDay
 564              	.LVL55:
 565 002e 0746     		mov	r7, r0
 566 0030 94E80300 		ldmia	r4, {r0, r1}
 567 0034 FFF7FEFF 		bl	dt_getHour
 568              	.LVL56:
 569 0038 8046     		mov	r8, r0
 165:main.c        ****     UART_1_PutString(to_send);
 570              		.loc 1 165 0
 571 003a 94E80300 		ldmia	r4, {r0, r1}
 572 003e FFF7FEFF 		bl	dt_getMinute
 573              	.LVL57:
 574 0042 8146     		mov	r9, r0
 575 0044 94E80300 		ldmia	r4, {r0, r1}
 576 0048 FFF7FEFF 		bl	dt_getSecond
 577              	.LVL58:
 578 004c 8246     		mov	r10, r0
 163:main.c        ****         dt_getMonth(dt), dt_getDay(dt), dt_getHour(dt), \
 579              		.loc 1 163 0
 580 004e 94E80300 		ldmia	r4, {r0, r1}
 581 0052 FFF7FEFF 		bl	dt_getUnixtime
 582              	.LVL59:
 583 0056 0490     		str	r0, [sp, #16]
 584 0058 CDF80CA0 		str	r10, [sp, #12]
 585 005c CDF80890 		str	r9, [sp, #8]
 586 0060 CDF80480 		str	r8, [sp, #4]
 587 0064 0097     		str	r7, [sp]
 588 0066 3346     		mov	r3, r6
 589 0068 2A46     		mov	r2, r5
 590 006a 0649     		ldr	r1, .L49+4
 591 006c 08A8     		add	r0, sp, #32
 592 006e FFF7FEFF 		bl	sprintf
 593              	.LVL60:
 166:main.c        **** }
 594              		.loc 1 166 0
 595 0072 08A8     		add	r0, sp, #32
 596 0074 FFF7FEFF 		bl	UART_1_PutString
ARM GAS  C:\Users\bkettle\AppData\Local\Temp\ccEtW88g.s 			page 16


 597              	.LVL61:
 167:main.c        **** 
 598              		.loc 1 167 0
 599 0078 12B0     		add	sp, sp, #72
 600              		.cfi_def_cfa_offset 32
 601              		@ sp needed
 602 007a BDE8F087 		pop	{r4, r5, r6, r7, r8, r9, r10, pc}
 603              	.L50:
 604 007e 00BF     		.align	2
 605              	.L49:
 606 0080 90000000 		.word	.LC11
 607 0084 A0000000 		.word	.LC12
 608              		.cfi_endproc
 609              	.LFE71:
 610              		.size	serial_print_dt, .-serial_print_dt
 611              		.section	.text.main,"ax",%progbits
 612              		.align	2
 613              		.global	main
 614              		.thumb
 615              		.thumb_func
 616              		.type	main, %function
 617              	main:
 618              	.LFB74:
 190:main.c        **** 
 191:main.c        **** int main(void)
 192:main.c        **** {
 619              		.loc 1 192 0
 620              		.cfi_startproc
 621              		@ args = 0, pretend = 0, frame = 96
 622              		@ frame_needed = 0, uses_anonymous_args = 0
 623 0000 70B5     		push	{r4, r5, r6, lr}
 624              		.cfi_def_cfa_offset 16
 625              		.cfi_offset 4, -16
 626              		.cfi_offset 5, -12
 627              		.cfi_offset 6, -8
 628              		.cfi_offset 14, -4
 629 0002 CCB0     		sub	sp, sp, #304
 630              		.cfi_def_cfa_offset 320
 193:main.c        ****     CyGlobalIntEnable; /* Enable global interrupts. */
 631              		.loc 1 193 0
 632              		.syntax unified
 633              	@ 193 "main.c" 1
 634 0004 62B6     		CPSIE   i
 635              	@ 0 "" 2
 194:main.c        ****     rx_int_StartEx(RX_INT);  // start RX interrupt (look for CY_ISR with RX_INT address)
 636              		.loc 1 194 0
 637              		.thumb
 638              		.syntax unified
 639 0006 A648     		ldr	r0, .L74
 640 0008 FFF7FEFF 		bl	rx_int_StartEx
 641              	.LVL62:
 195:main.c        ****     enc_sw_int_StartEx(ENC_SW_INT); // start encoder switch interrupt
 642              		.loc 1 195 0
 643 000c A548     		ldr	r0, .L74+4
 644 000e FFF7FEFF 		bl	enc_sw_int_StartEx
 645              	.LVL63:
 196:main.c        **** 
ARM GAS  C:\Users\bkettle\AppData\Local\Temp\ccEtW88g.s 			page 17


 197:main.c        ****     UART_1_Start();
 646              		.loc 1 197 0
 647 0012 FFF7FEFF 		bl	UART_1_Start
 648              	.LVL64:
 198:main.c        ****     UART_1_PutString("COM Port Open");
 649              		.loc 1 198 0
 650 0016 A448     		ldr	r0, .L74+8
 651 0018 FFF7FEFF 		bl	UART_1_PutString
 652              	.LVL65:
 199:main.c        ****     rx_buff_length = 0;
 653              		.loc 1 199 0
 654 001c 0024     		movs	r4, #0
 655 001e A34B     		ldr	r3, .L74+12
 656 0020 1C60     		str	r4, [r3]
 200:main.c        ****     
 201:main.c        ****     Dial_Start();
 657              		.loc 1 201 0
 658 0022 FFF7FEFF 		bl	Dial_Start
 659              	.LVL66:
 202:main.c        ****     s_main_state = S_STARTUP;
 660              		.loc 1 202 0
 661 0026 A24B     		ldr	r3, .L74+16
 662 0028 1C60     		str	r4, [r3]
 203:main.c        ****     
 204:main.c        ****     // to store the currently selected record
 205:main.c        ****     // for serial applications, its the record in progress
 206:main.c        ****     Record curr_record;
 207:main.c        ****     
 208:main.c        ****     // start the rtc communication over i2c
 209:main.c        ****     I2CRTC_Start();
 663              		.loc 1 209 0
 664 002a FFF7FEFF 		bl	I2CRTC_Start
 665              	.LVL67:
 210:main.c        ****     I2CRTC_EnableInt();
 666              		.loc 1 210 0
 667 002e 0122     		movs	r2, #1
 668 0030 A04B     		ldr	r3, .L74+20
 669 0032 1A60     		str	r2, [r3]
 211:main.c        ****     
 212:main.c        ****     // get the current time
 213:main.c        ****     DateTime now = RTC_now();
 670              		.loc 1 213 0
 671 0034 3AAC     		add	r4, sp, #232
 672 0036 2046     		mov	r0, r4
 673 0038 FFF7FEFF 		bl	RTC_now
 674              	.LVL68:
 214:main.c        ****     
 215:main.c        ****     // start generating random numbers
 216:main.c        ****     PRS_Start();
 675              		.loc 1 216 0
 676 003c FFF7FEFF 		bl	PRS_Start
 677              	.LVL69:
 217:main.c        ****     PRS_WriteSeed(dt_getUnixtime(now));
 678              		.loc 1 217 0
 679 0040 94E80300 		ldmia	r4, {r0, r1}
 680 0044 FFF7FEFF 		bl	dt_getUnixtime
 681              	.LVL70:
ARM GAS  C:\Users\bkettle\AppData\Local\Temp\ccEtW88g.s 			page 18


 682 0048 80B2     		uxth	r0, r0
 683 004a FFF7FEFF 		bl	PRS_WriteSeed
 684              	.LVL71:
 685              	.L52:
 218:main.c        **** 
 219:main.c        ****     for(;;)
 220:main.c        ****     {
 221:main.c        ****         // step to the next random value
 222:main.c        ****         PRS_Step();
 686              		.loc 1 222 0
 687 004e FFF7FEFF 		bl	PRS_Step
 688              	.LVL72:
 223:main.c        ****         
 224:main.c        ****         LED_Write(last_serial_cmd[0] != 0);
 689              		.loc 1 224 0
 690 0052 994B     		ldr	r3, .L74+24
 691 0054 1878     		ldrb	r0, [r3]	@ zero_extendqisi2
 692 0056 0030     		adds	r0, r0, #0
 693 0058 18BF     		it	ne
 694 005a 0120     		movne	r0, #1
 695 005c FFF7FEFF 		bl	LED_Write
 696              	.LVL73:
 225:main.c        ****         switch (s_main_state) {
 697              		.loc 1 225 0
 698 0060 934B     		ldr	r3, .L74+16
 699 0062 1B68     		ldr	r3, [r3]
 700 0064 012B     		cmp	r3, #1
 701 0066 11D0     		beq	.L54
 702 0068 022B     		cmp	r3, #2
 703 006a 4DD0     		beq	.L55
 704 006c 002B     		cmp	r3, #0
 705 006e EED1     		bne	.L52
 226:main.c        ****             case S_WAIT:
 227:main.c        ****             break;
 228:main.c        ****             case S_STARTUP:
 229:main.c        ****                 serial_print_menu(main_menu);
 706              		.loc 1 229 0
 707 0070 8F4C     		ldr	r4, .L74+16
 708 0072 D022     		movs	r2, #208
 709 0074 04F11401 		add	r1, r4, #20
 710 0078 6846     		mov	r0, sp
 711 007a FFF7FEFF 		bl	memcpy
 712              	.LVL74:
 713 007e 231D     		adds	r3, r4, #4
 714 0080 0FCB     		ldmia	r3, {r0, r1, r2, r3}
 715 0082 FFF7FEFF 		bl	serial_print_menu
 716              	.LVL75:
 230:main.c        ****                 s_main_state = S_MAIN_MENU;
 717              		.loc 1 230 0
 718 0086 0123     		movs	r3, #1
 719 0088 2360     		str	r3, [r4]
 231:main.c        ****             break;
 720              		.loc 1 231 0
 721 008a E0E7     		b	.L52
 722              	.L54:
 232:main.c        ****             case S_MAIN_MENU:
 233:main.c        ****                 if (last_serial_cmd[0] != 0) {
ARM GAS  C:\Users\bkettle\AppData\Local\Temp\ccEtW88g.s 			page 19


 723              		.loc 1 233 0
 724 008c 8A4B     		ldr	r3, .L74+24
 725 008e 1B78     		ldrb	r3, [r3]	@ zero_extendqisi2
 726 0090 002B     		cmp	r3, #0
 727 0092 DCD0     		beq	.L52
 728              	.LBB6:
 234:main.c        ****                     int cmd = atoi(last_serial_cmd);
 729              		.loc 1 234 0
 730 0094 8848     		ldr	r0, .L74+24
 731 0096 FFF7FEFF 		bl	atoi
 732              	.LVL76:
 235:main.c        ****                     switch(cmd) {
 733              		.loc 1 235 0
 734 009a 0446     		mov	r4, r0
 735 009c 10B1     		cbz	r0, .L58
 736 009e 0128     		cmp	r0, #1
 737 00a0 0ED0     		beq	.L59
 738 00a2 17E0     		b	.L72
 739              	.L58:
 236:main.c        ****                         // first case is if atoi returned 0
 237:main.c        ****                         // ie letters, etc
 238:main.c        ****                         case INVALID_CMD:
 239:main.c        ****                             serial_inv_cmd();
 740              		.loc 1 239 0
 741 00a4 FFF7FEFF 		bl	serial_inv_cmd
 742              	.LVL77:
 240:main.c        ****                             serial_print_menu(main_menu);
 743              		.loc 1 240 0
 744 00a8 814C     		ldr	r4, .L74+16
 745              	.LVL78:
 746 00aa D022     		movs	r2, #208
 747 00ac 04F11401 		add	r1, r4, #20
 748 00b0 6846     		mov	r0, sp
 749 00b2 FFF7FEFF 		bl	memcpy
 750              	.LVL79:
 751 00b6 231D     		adds	r3, r4, #4
 752 00b8 0FCB     		ldmia	r3, {r0, r1, r2, r3}
 753 00ba FFF7FEFF 		bl	serial_print_menu
 754              	.LVL80:
 241:main.c        ****                         break;
 755              		.loc 1 241 0
 756 00be 20E0     		b	.L60
 757              	.LVL81:
 758              	.L59:
 242:main.c        ****                         case S_MAIN_ADD:
 243:main.c        ****                             s_main_state = S_ADD_RECORD;
 759              		.loc 1 243 0
 760 00c0 0222     		movs	r2, #2
 761 00c2 7B4B     		ldr	r3, .L74+16
 762 00c4 1A60     		str	r2, [r3]
 244:main.c        ****                             s_sec_state = ADD_REC_START;
 763              		.loc 1 244 0
 764 00c6 0022     		movs	r2, #0
 765 00c8 7C4B     		ldr	r3, .L74+28
 766 00ca 1A60     		str	r2, [r3]
 245:main.c        ****                             UART_1_PutString("\n\rAdd record...");
 767              		.loc 1 245 0
ARM GAS  C:\Users\bkettle\AppData\Local\Temp\ccEtW88g.s 			page 20


 768 00cc 7C48     		ldr	r0, .L74+32
 769              	.LVL82:
 770 00ce FFF7FEFF 		bl	UART_1_PutString
 771              	.LVL83:
 246:main.c        ****                         break;
 772              		.loc 1 246 0
 773 00d2 16E0     		b	.L60
 774              	.LVL84:
 775              	.L72:
 776              	.LBB7:
 247:main.c        ****                         default:
 248:main.c        ****                             {
 249:main.c        ****                             UART_1_PutString("\n\rGot Command: ");
 777              		.loc 1 249 0
 778 00d4 7B48     		ldr	r0, .L74+36
 779              	.LVL85:
 780 00d6 FFF7FEFF 		bl	UART_1_PutString
 781              	.LVL86:
 250:main.c        ****                             char to_send[5];
 251:main.c        ****                             sprintf(to_send, "%d %s", cmd, last_serial_cmd);
 782              		.loc 1 251 0
 783 00da 774B     		ldr	r3, .L74+24
 784 00dc 2246     		mov	r2, r4
 785 00de 7A49     		ldr	r1, .L74+40
 786 00e0 35A8     		add	r0, sp, #212
 787 00e2 FFF7FEFF 		bl	sprintf
 788              	.LVL87:
 252:main.c        ****                             UART_1_PutString(to_send);
 789              		.loc 1 252 0
 790 00e6 35A8     		add	r0, sp, #212
 791 00e8 FFF7FEFF 		bl	UART_1_PutString
 792              	.LVL88:
 253:main.c        ****                             serial_print_menu(main_menu);
 793              		.loc 1 253 0
 794 00ec 704C     		ldr	r4, .L74+16
 795              	.LVL89:
 796 00ee D022     		movs	r2, #208
 797 00f0 04F11401 		add	r1, r4, #20
 798 00f4 6846     		mov	r0, sp
 799 00f6 FFF7FEFF 		bl	memcpy
 800              	.LVL90:
 801 00fa 231D     		adds	r3, r4, #4
 802 00fc 0FCB     		ldmia	r3, {r0, r1, r2, r3}
 803 00fe FFF7FEFF 		bl	serial_print_menu
 804              	.LVL91:
 805              	.L60:
 806              	.LBE7:
 254:main.c        ****                             }
 255:main.c        ****                         break;
 256:main.c        ****                     }
 257:main.c        ****                     // always reset last_serial_cmd
 258:main.c        ****                     // after handling an inputted command
 259:main.c        ****                     //last_serial_cmd[0] = 0;
 260:main.c        ****                     clr_last_serial_cmd();
 807              		.loc 1 260 0
 808 0102 FFF7FEFF 		bl	clr_last_serial_cmd
 809              	.LVL92:
ARM GAS  C:\Users\bkettle\AppData\Local\Temp\ccEtW88g.s 			page 21


 810 0106 A2E7     		b	.L52
 811              	.L55:
 812              	.LBE6:
 261:main.c        ****                 };
 262:main.c        ****             break;
 263:main.c        ****             case S_ADD_RECORD:
 264:main.c        ****                 switch(s_sec_state) {
 813              		.loc 1 264 0
 814 0108 6C4B     		ldr	r3, .L74+28
 815 010a 1B68     		ldr	r3, [r3]
 816 010c 052B     		cmp	r3, #5
 817 010e 9ED8     		bhi	.L52
 818 0110 DFE813F0 		tbh	[pc, r3, lsl #1]
 819              	.L62:
 820 0114 0600     		.2byte	(.L61-.L62)/2
 821 0116 1C00     		.2byte	(.L63-.L62)/2
 822 0118 3400     		.2byte	(.L64-.L62)/2
 823 011a 5A00     		.2byte	(.L65-.L62)/2
 824 011c A200     		.2byte	(.L66-.L62)/2
 825 011e EC00     		.2byte	(.L67-.L62)/2
 826              		.p2align 1
 827              	.L61:
 265:main.c        ****                     case ADD_REC_START:
 266:main.c        ****                         curr_record = null_record;
 828              		.loc 1 266 0
 829 0120 664E     		ldr	r6, .L74+28
 830 0122 3CAC     		add	r4, sp, #240
 831 0124 351D     		adds	r5, r6, #4
 832 0126 0FCD     		ldmia	r5!, {r0, r1, r2, r3}
 833 0128 0FC4     		stmia	r4!, {r0, r1, r2, r3}
 834 012a 0FCD     		ldmia	r5!, {r0, r1, r2, r3}
 835 012c 0FC4     		stmia	r4!, {r0, r1, r2, r3}
 836 012e 0FCD     		ldmia	r5!, {r0, r1, r2, r3}
 837 0130 0FC4     		stmia	r4!, {r0, r1, r2, r3}
 838 0132 95E80F00 		ldmia	r5, {r0, r1, r2, r3}
 839 0136 07C4     		stmia	r4!, {r0, r1, r2}
 840 0138 24F8023B 		strh	r3, [r4], #2	@ movhi
 841 013c 1B0C     		lsrs	r3, r3, #16
 842 013e 2370     		strb	r3, [r4]
 267:main.c        ****                         UART_1_PutString("\n\rEnter Record Title: ");
 843              		.loc 1 267 0
 844 0140 6248     		ldr	r0, .L74+44
 845 0142 FFF7FEFF 		bl	UART_1_PutString
 846              	.LVL93:
 268:main.c        ****                         s_sec_state = ADD_REC_TITLE;
 847              		.loc 1 268 0
 848 0146 0123     		movs	r3, #1
 849 0148 3360     		str	r3, [r6]
 269:main.c        ****                     break;
 850              		.loc 1 269 0
 851 014a 80E7     		b	.L52
 852              	.L63:
 270:main.c        ****                     case ADD_REC_TITLE:
 271:main.c        ****                         // once something has been entered
 272:main.c        ****                         if (last_serial_cmd[0] != 0) {
 853              		.loc 1 272 0
 854 014c 5A4B     		ldr	r3, .L74+24
ARM GAS  C:\Users\bkettle\AppData\Local\Temp\ccEtW88g.s 			page 22


 855 014e 1B78     		ldrb	r3, [r3]	@ zero_extendqisi2
 856 0150 002B     		cmp	r3, #0
 857 0152 3FF47CAF 		beq	.L52
 273:main.c        ****                             // update curr record with title
 274:main.c        ****                             strcpy(curr_record.title, last_serial_cmd);
 858              		.loc 1 274 0
 859 0156 5849     		ldr	r1, .L74+24
 860 0158 3CA8     		add	r0, sp, #240
 861 015a FFF7FEFF 		bl	strcpy
 862              	.LVL94:
 275:main.c        ****                             clr_last_serial_cmd();
 863              		.loc 1 275 0
 864 015e FFF7FEFF 		bl	clr_last_serial_cmd
 865              	.LVL95:
 276:main.c        ****                             // set up for username entry
 277:main.c        ****                             UART_1_PutString("\n\rEnter username for ");
 866              		.loc 1 277 0
 867 0162 5B48     		ldr	r0, .L74+48
 868 0164 FFF7FEFF 		bl	UART_1_PutString
 869              	.LVL96:
 278:main.c        ****                             UART_1_PutString(curr_record.title);
 870              		.loc 1 278 0
 871 0168 3CA8     		add	r0, sp, #240
 872 016a FFF7FEFF 		bl	UART_1_PutString
 873              	.LVL97:
 279:main.c        ****                             UART_1_PutString(": ");
 874              		.loc 1 279 0
 875 016e 5948     		ldr	r0, .L74+52
 876 0170 FFF7FEFF 		bl	UART_1_PutString
 877              	.LVL98:
 280:main.c        ****                             s_sec_state = ADD_REC_UNAME;
 878              		.loc 1 280 0
 879 0174 0222     		movs	r2, #2
 880 0176 514B     		ldr	r3, .L74+28
 881 0178 1A60     		str	r2, [r3]
 882 017a 68E7     		b	.L52
 883              	.L64:
 281:main.c        ****                         }
 282:main.c        ****                     break;
 283:main.c        ****                     case ADD_REC_UNAME:
 284:main.c        ****                         // once a title has been entered
 285:main.c        ****                         if (last_serial_cmd[0] != 0) {
 884              		.loc 1 285 0
 885 017c 4E4B     		ldr	r3, .L74+24
 886 017e 1B78     		ldrb	r3, [r3]	@ zero_extendqisi2
 887 0180 002B     		cmp	r3, #0
 888 0182 3FF464AF 		beq	.L52
 286:main.c        ****                             // update curr record with username
 287:main.c        ****                             strcpy(curr_record.username, last_serial_cmd);
 889              		.loc 1 287 0
 890 0186 4C49     		ldr	r1, .L74+24
 891 0188 0DF1F900 		add	r0, sp, #249
 892 018c FFF7FEFF 		bl	strcpy
 893              	.LVL99:
 288:main.c        ****                             clr_last_serial_cmd();
 894              		.loc 1 288 0
 895 0190 FFF7FEFF 		bl	clr_last_serial_cmd
ARM GAS  C:\Users\bkettle\AppData\Local\Temp\ccEtW88g.s 			page 23


 896              	.LVL100:
 289:main.c        ****                             // set up for pw entry
 290:main.c        ****                             UART_1_PutString("\n\rPassword for user ");
 897              		.loc 1 290 0
 898 0194 5048     		ldr	r0, .L74+56
 899 0196 FFF7FEFF 		bl	UART_1_PutString
 900              	.LVL101:
 291:main.c        ****                             UART_1_PutString(curr_record.username);
 901              		.loc 1 291 0
 902 019a 0DF1F900 		add	r0, sp, #249
 903 019e FFF7FEFF 		bl	UART_1_PutString
 904              	.LVL102:
 292:main.c        ****                             UART_1_PutString(": ");
 905              		.loc 1 292 0
 906 01a2 4C48     		ldr	r0, .L74+52
 907 01a4 FFF7FEFF 		bl	UART_1_PutString
 908              	.LVL103:
 293:main.c        ****                             serial_print_menu(pass_menu);
 909              		.loc 1 293 0
 910 01a8 414C     		ldr	r4, .L74+16
 911 01aa D022     		movs	r2, #208
 912 01ac 04F1F401 		add	r1, r4, #244
 913 01b0 6846     		mov	r0, sp
 914 01b2 FFF7FEFF 		bl	memcpy
 915              	.LVL104:
 916 01b6 04F1E403 		add	r3, r4, #228
 917 01ba 0FCB     		ldmia	r3, {r0, r1, r2, r3}
 918 01bc FFF7FEFF 		bl	serial_print_menu
 919              	.LVL105:
 294:main.c        ****                             s_sec_state = ADD_REC_PASS_MENU;
 920              		.loc 1 294 0
 921 01c0 0322     		movs	r2, #3
 922 01c2 3E4B     		ldr	r3, .L74+28
 923 01c4 1A60     		str	r2, [r3]
 924 01c6 42E7     		b	.L52
 925              	.L65:
 295:main.c        ****                         }
 296:main.c        ****                     break;
 297:main.c        ****                     case ADD_REC_PASS_MENU:
 298:main.c        ****                         if (last_serial_cmd[0] != 0) {
 926              		.loc 1 298 0
 927 01c8 3B4B     		ldr	r3, .L74+24
 928 01ca 1B78     		ldrb	r3, [r3]	@ zero_extendqisi2
 929 01cc 002B     		cmp	r3, #0
 930 01ce 3FF43EAF 		beq	.L52
 931              	.LBB8:
 299:main.c        ****                             // listen for menu entry
 300:main.c        ****                             int cmd = atoi(last_serial_cmd);
 932              		.loc 1 300 0
 933 01d2 3948     		ldr	r0, .L74+24
 934 01d4 FFF7FEFF 		bl	atoi
 935              	.LVL106:
 301:main.c        ****                             switch(cmd) {
 936              		.loc 1 301 0
 937 01d8 0128     		cmp	r0, #1
 938 01da 12D0     		beq	.L69
 939 01dc 0228     		cmp	r0, #2
ARM GAS  C:\Users\bkettle\AppData\Local\Temp\ccEtW88g.s 			page 24


 940 01de 1ED0     		beq	.L70
 941 01e0 0028     		cmp	r0, #0
 942 01e2 36D1     		bne	.L68
 302:main.c        ****                                 // first case is if atoi returned 0
 303:main.c        ****                                 // ie letters, etc
 304:main.c        ****                                 case INVALID_CMD:
 305:main.c        ****                                     serial_inv_cmd();
 943              		.loc 1 305 0
 944 01e4 FFF7FEFF 		bl	serial_inv_cmd
 945              	.LVL107:
 306:main.c        ****                                     serial_print_menu(pass_menu);
 946              		.loc 1 306 0
 947 01e8 314C     		ldr	r4, .L74+16
 948 01ea D022     		movs	r2, #208
 949 01ec 04F1F401 		add	r1, r4, #244
 950 01f0 6846     		mov	r0, sp
 951 01f2 FFF7FEFF 		bl	memcpy
 952              	.LVL108:
 953 01f6 04F1E403 		add	r3, r4, #228
 954 01fa 0FCB     		ldmia	r3, {r0, r1, r2, r3}
 955 01fc FFF7FEFF 		bl	serial_print_menu
 956              	.LVL109:
 307:main.c        ****                                 break;
 957              		.loc 1 307 0
 958 0200 27E0     		b	.L68
 959              	.LVL110:
 960              	.L69:
 308:main.c        ****                                 case PASS_MENU_ENTER:
 309:main.c        ****                                     UART_1_PutString("\n\rEnter Password for user ");
 961              		.loc 1 309 0
 962 0202 3648     		ldr	r0, .L74+60
 963              	.LVL111:
 964 0204 FFF7FEFF 		bl	UART_1_PutString
 965              	.LVL112:
 310:main.c        ****                                     UART_1_PutString(curr_record.username);
 966              		.loc 1 310 0
 967 0208 0DF1F900 		add	r0, sp, #249
 968 020c FFF7FEFF 		bl	UART_1_PutString
 969              	.LVL113:
 311:main.c        ****                                     UART_1_PutString(": ");
 970              		.loc 1 311 0
 971 0210 3048     		ldr	r0, .L74+52
 972 0212 FFF7FEFF 		bl	UART_1_PutString
 973              	.LVL114:
 312:main.c        ****                                     s_sec_state = ADD_REC_PASS_ENTRY;
 974              		.loc 1 312 0
 975 0216 0422     		movs	r2, #4
 976 0218 284B     		ldr	r3, .L74+28
 977 021a 1A60     		str	r2, [r3]
 313:main.c        ****                                 break;
 978              		.loc 1 313 0
 979 021c 19E0     		b	.L68
 980              	.LVL115:
 981              	.L70:
 982              	.LBB9:
 314:main.c        ****                                 case PASS_MENU_GEN:
 315:main.c        ****                                     {
ARM GAS  C:\Users\bkettle\AppData\Local\Temp\ccEtW88g.s 			page 25


 316:main.c        ****                                     UART_1_PutString("\n\rGenerating password! ");
 983              		.loc 1 316 0
 984 021e 3048     		ldr	r0, .L74+64
 985              	.LVL116:
 986 0220 FFF7FEFF 		bl	UART_1_PutString
 987              	.LVL117:
 317:main.c        ****                                     
 318:main.c        ****                                     // generate password
 319:main.c        ****                                     char pass[17];
 320:main.c        ****                                     generate_password(pass);
 988              		.loc 1 320 0
 989 0224 35A8     		add	r0, sp, #212
 990 0226 FFF7FEFF 		bl	generate_password
 991              	.LVL118:
 321:main.c        ****                                     strcpy(curr_record.password, pass);
 992              		.loc 1 321 0
 993 022a 35A9     		add	r1, sp, #212
 994 022c 47A8     		add	r0, sp, #284
 995 022e FFF7FEFF 		bl	strcpy
 996              	.LVL119:
 322:main.c        ****                                     UART_1_PutString("\n\rGenerated Password for user ");
 997              		.loc 1 322 0
 998 0232 2C48     		ldr	r0, .L74+68
 999 0234 FFF7FEFF 		bl	UART_1_PutString
 1000              	.LVL120:
 323:main.c        ****                                     UART_1_PutString(curr_record.username);
 1001              		.loc 1 323 0
 1002 0238 0DF1F900 		add	r0, sp, #249
 1003 023c FFF7FEFF 		bl	UART_1_PutString
 1004              	.LVL121:
 324:main.c        ****                                     UART_1_PutString(": ");
 1005              		.loc 1 324 0
 1006 0240 2448     		ldr	r0, .L74+52
 1007 0242 FFF7FEFF 		bl	UART_1_PutString
 1008              	.LVL122:
 325:main.c        ****                                     UART_1_PutString(curr_record.password);
 1009              		.loc 1 325 0
 1010 0246 47A8     		add	r0, sp, #284
 1011 0248 FFF7FEFF 		bl	UART_1_PutString
 1012              	.LVL123:
 326:main.c        ****                                     s_sec_state = ADD_REC_CONFIRM;
 1013              		.loc 1 326 0
 1014 024c 0522     		movs	r2, #5
 1015 024e 1B4B     		ldr	r3, .L74+28
 1016 0250 1A60     		str	r2, [r3]
 1017              	.L68:
 1018              	.LBE9:
 327:main.c        ****                                     }
 328:main.c        ****                                 break;
 329:main.c        ****                             }
 330:main.c        ****                             clr_last_serial_cmd();
 1019              		.loc 1 330 0
 1020 0252 FFF7FEFF 		bl	clr_last_serial_cmd
 1021              	.LVL124:
 1022 0256 FAE6     		b	.L52
 1023              	.L66:
 1024              	.LBE8:
ARM GAS  C:\Users\bkettle\AppData\Local\Temp\ccEtW88g.s 			page 26


 331:main.c        ****                         }
 332:main.c        ****                     break;
 333:main.c        ****                     case ADD_REC_PASS_ENTRY:
 334:main.c        ****                         // password entry option, password entered
 335:main.c        ****                         if (last_serial_cmd[0] != 0) {
 1025              		.loc 1 335 0
 1026 0258 174B     		ldr	r3, .L74+24
 1027 025a 1B78     		ldrb	r3, [r3]	@ zero_extendqisi2
 1028 025c 002B     		cmp	r3, #0
 1029 025e 3FF4F6AE 		beq	.L52
 336:main.c        ****                             // update curr record with username
 337:main.c        ****                             strcpy(curr_record.password, last_serial_cmd);
 1030              		.loc 1 337 0
 1031 0262 3CAE     		add	r6, sp, #240
 1032 0264 1449     		ldr	r1, .L74+24
 1033 0266 47A8     		add	r0, sp, #284
 1034 0268 FFF7FEFF 		bl	strcpy
 1035              	.LVL125:
 338:main.c        ****                             clr_last_serial_cmd();
 1036              		.loc 1 338 0
 1037 026c FFF7FEFF 		bl	clr_last_serial_cmd
 1038              	.LVL126:
 339:main.c        ****                             // echo full record and prompt user to confirm
 340:main.c        ****                             serial_print_record(curr_record);
 1039              		.loc 1 340 0
 1040 0270 6C46     		mov	r4, sp
 1041 0272 40AD     		add	r5, sp, #256
 1042 0274 0FCD     		ldmia	r5!, {r0, r1, r2, r3}
 1043 0276 0FC4     		stmia	r4!, {r0, r1, r2, r3}
 1044 0278 0FCD     		ldmia	r5!, {r0, r1, r2, r3}
 1045 027a 0FC4     		stmia	r4!, {r0, r1, r2, r3}
 1046 027c 95E80F00 		ldmia	r5, {r0, r1, r2, r3}
 1047 0280 07C4     		stmia	r4!, {r0, r1, r2}
 1048 0282 24F8023B 		strh	r3, [r4], #2	@ movhi
 1049 0286 1B0C     		lsrs	r3, r3, #16
 1050 0288 2370     		strb	r3, [r4]
 1051 028a 96E80F00 		ldmia	r6, {r0, r1, r2, r3}
 1052 028e FFF7FEFF 		bl	serial_print_record
 1053              	.LVL127:
 341:main.c        ****                             UART_1_PutString("\n\r\n\rEnter 'y' to confirm, anything else to cancel
 1054              		.loc 1 341 0
 1055 0292 1548     		ldr	r0, .L74+72
 1056 0294 FFF7FEFF 		bl	UART_1_PutString
 1057              	.LVL128:
 342:main.c        ****                             s_sec_state = ADD_REC_CONFIRM;
 1058              		.loc 1 342 0
 1059 0298 0522     		movs	r2, #5
 1060 029a 084B     		ldr	r3, .L74+28
 1061 029c 1A60     		str	r2, [r3]
 1062 029e D6E6     		b	.L52
 1063              	.L75:
 1064              		.align	2
 1065              	.L74:
 1066 02a0 00000000 		.word	RX_INT
 1067 02a4 00000000 		.word	ENC_SW_INT
 1068 02a8 C0000000 		.word	.LC13
 1069 02ac 00000000 		.word	rx_buff_length
ARM GAS  C:\Users\bkettle\AppData\Local\Temp\ccEtW88g.s 			page 27


 1070 02b0 00000000 		.word	.LANCHOR0
 1071 02b4 00E100E0 		.word	-536813312
 1072 02b8 00000000 		.word	last_serial_cmd
 1073 02bc 00000000 		.word	.LANCHOR1
 1074 02c0 D0000000 		.word	.LC14
 1075 02c4 E0000000 		.word	.LC15
 1076 02c8 F0000000 		.word	.LC16
 1077 02cc F8000000 		.word	.LC17
 1078 02d0 10010000 		.word	.LC18
 1079 02d4 28010000 		.word	.LC19
 1080 02d8 2C010000 		.word	.LC20
 1081 02dc 44010000 		.word	.LC21
 1082 02e0 60010000 		.word	.LC22
 1083 02e4 78010000 		.word	.LC23
 1084 02e8 98010000 		.word	.LC24
 1085              	.L67:
 343:main.c        ****                         }
 344:main.c        ****                     break;
 345:main.c        ****                     case ADD_REC_CONFIRM:
 346:main.c        ****                         // once a password is entered, confirm
 347:main.c        ****                         if (last_serial_cmd[0] != 0) {
 1086              		.loc 1 347 0
 1087 02ec 0D4B     		ldr	r3, .L76
 1088 02ee 1B78     		ldrb	r3, [r3]	@ zero_extendqisi2
 1089 02f0 002B     		cmp	r3, #0
 1090 02f2 3FF4ACAE 		beq	.L52
 348:main.c        ****                             // update curr record with username
 349:main.c        ****                             strcpy(curr_record.password, last_serial_cmd);
 1091              		.loc 1 349 0
 1092 02f6 0B49     		ldr	r1, .L76
 1093 02f8 47A8     		add	r0, sp, #284
 1094 02fa FFF7FEFF 		bl	strcpy
 1095              	.LVL129:
 350:main.c        ****                             clr_last_serial_cmd();
 1096              		.loc 1 350 0
 1097 02fe FFF7FEFF 		bl	clr_last_serial_cmd
 1098              	.LVL130:
 351:main.c        ****                             UART_1_PutString("\n\rCancelling!");
 1099              		.loc 1 351 0
 1100 0302 0948     		ldr	r0, .L76+4
 1101 0304 FFF7FEFF 		bl	UART_1_PutString
 1102              	.LVL131:
 352:main.c        ****                             s_main_state = S_MAIN_MENU;
 1103              		.loc 1 352 0
 1104 0308 084C     		ldr	r4, .L76+8
 1105 030a 2146     		mov	r1, r4
 1106 030c 0123     		movs	r3, #1
 1107 030e 41F8143B 		str	r3, [r1], #20
 353:main.c        ****                             serial_print_menu(main_menu);
 1108              		.loc 1 353 0
 1109 0312 D022     		movs	r2, #208
 1110 0314 6846     		mov	r0, sp
 1111 0316 FFF7FEFF 		bl	memcpy
 1112              	.LVL132:
 1113 031a 231D     		adds	r3, r4, #4
 1114 031c 0FCB     		ldmia	r3, {r0, r1, r2, r3}
 1115 031e FFF7FEFF 		bl	serial_print_menu
ARM GAS  C:\Users\bkettle\AppData\Local\Temp\ccEtW88g.s 			page 28


 1116              	.LVL133:
 1117 0322 94E6     		b	.L52
 1118              	.L77:
 1119              		.align	2
 1120              	.L76:
 1121 0324 00000000 		.word	last_serial_cmd
 1122 0328 CC010000 		.word	.LC25
 1123 032c 00000000 		.word	.LANCHOR0
 1124              		.cfi_endproc
 1125              	.LFE74:
 1126              		.size	main, .-main
 1127              		.global	pass_menu
 1128              		.global	main_menu
 1129              		.global	s_sec_state
 1130              		.global	s_main_state
 1131              		.comm	last_serial_cmd,30,4
 1132              		.comm	rx_buff_length,4,4
 1133              		.comm	rx_buffer,30,4
 1134              		.global	null_record
 1135              		.data
 1136              		.align	2
 1137              		.set	.LANCHOR0,. + 0
 1138              		.type	s_main_state, %object
 1139              		.size	s_main_state, 4
 1140              	s_main_state:
 1141 0000 01000000 		.word	1
 1142              		.type	main_menu, %object
 1143              		.size	main_menu, 224
 1144              	main_menu:
 1145 0004 03000000 		.word	3
 1146 0008 4D61696E 		.ascii	"Main Menu\000"
 1146      204D656E 
 1146      7500
 1147 0012 00000000 		.space	10
 1147      00000000 
 1147      0000
 1148 001c 41646420 		.ascii	"Add new record\000"
 1148      6E657720 
 1148      7265636F 
 1148      726400
 1149 002b 00000000 		.space	5
 1149      00
 1150 0030 56696577 		.ascii	"View all records\000"
 1150      20616C6C 
 1150      20726563 
 1150      6F726473 
 1150      00
 1151 0041 000000   		.space	3
 1152 0044 47656E65 		.ascii	"Generate Password\000"
 1152      72617465 
 1152      20506173 
 1152      73776F72 
 1152      6400
 1153 0056 0000     		.space	2
 1154 0058 00000000 		.space	140
 1154      00000000 
 1154      00000000 
ARM GAS  C:\Users\bkettle\AppData\Local\Temp\ccEtW88g.s 			page 29


 1154      00000000 
 1154      00000000 
 1155              		.type	pass_menu, %object
 1156              		.size	pass_menu, 224
 1157              	pass_menu:
 1158 00e4 02000000 		.word	2
 1159 00e8 50617373 		.ascii	"Password Menu\000"
 1159      776F7264 
 1159      204D656E 
 1159      7500
 1160 00f6 00000000 		.space	6
 1160      0000
 1161 00fc 456E7465 		.ascii	"Enter Password\000"
 1161      72205061 
 1161      7373776F 
 1161      726400
 1162 010b 00000000 		.space	5
 1162      00
 1163 0110 47656E65 		.ascii	"Generate Password\000"
 1163      72617465 
 1163      20506173 
 1163      73776F72 
 1163      6400
 1164 0122 0000     		.space	2
 1165 0124 00000000 		.space	160
 1165      00000000 
 1165      00000000 
 1165      00000000 
 1165      00000000 
 1166              		.section	.rodata.str1.4,"aMS",%progbits,1
 1167              		.align	2
 1168              	.LC0:
 1169 0000 25640A0D 		.ascii	"%d\012\015\000"
 1169      00
 1170 0005 000000   		.space	3
 1171              	.LC1:
 1172 0008 0A0D00   		.ascii	"\012\015\000"
 1173 000b 00       		.space	1
 1174              	.LC2:
 1175 000c 3A0A0D00 		.ascii	":\012\015\000"
 1176              	.LC3:
 1177 0010 2E2000   		.ascii	". \000"
 1178 0013 00       		.space	1
 1179              	.LC4:
 1180 0014 0A0D456E 		.ascii	"\012\015Enter the choice you want: \000"
 1180      74657220 
 1180      74686520 
 1180      63686F69 
 1180      63652079 
 1181 0032 0000     		.space	2
 1182              	.LC5:
 1183 0034 0A0D0A0D 		.ascii	"\012\015\012\015   \000"
 1183      20202000 
 1184              	.LC6:
 1185 003c 0A0D2020 		.ascii	"\012\015   * Title: \000"
 1185      202A2054 
 1185      69746C65 
ARM GAS  C:\Users\bkettle\AppData\Local\Temp\ccEtW88g.s 			page 30


 1185      3A2000
 1186 004b 00       		.space	1
 1187              	.LC7:
 1188 004c 0A0D2020 		.ascii	"\012\015   * Username: \000"
 1188      202A2055 
 1188      7365726E 
 1188      616D653A 
 1188      2000
 1189 005e 0000     		.space	2
 1190              	.LC8:
 1191 0060 0A0D2020 		.ascii	"\012\015   * Password: \000"
 1191      202A2050 
 1191      61737377 
 1191      6F72643A 
 1191      2000
 1192 0072 0000     		.space	2
 1193              	.LC9:
 1194 0074 0A0D2020 		.ascii	"\012\015   \000"
 1194      2000
 1195 007a 0000     		.space	2
 1196              	.LC10:
 1197 007c 0A0D496E 		.ascii	"\012\015Invalid Command!\000"
 1197      76616C69 
 1197      6420436F 
 1197      6D6D616E 
 1197      642100
 1198 008f 00       		.space	1
 1199              	.LC11:
 1200 0090 0A0D6461 		.ascii	"\012\015datetime: \000"
 1200      74657469 
 1200      6D653A20 
 1200      00
 1201 009d 000000   		.space	3
 1202              	.LC12:
 1203 00a0 25642D25 		.ascii	"%d-%d-%d %d:%d:%2.0d unix: %d\000"
 1203      642D2564 
 1203      2025643A 
 1203      25643A25 
 1203      322E3064 
 1204 00be 0000     		.space	2
 1205              	.LC13:
 1206 00c0 434F4D20 		.ascii	"COM Port Open\000"
 1206      506F7274 
 1206      204F7065 
 1206      6E00
 1207 00ce 0000     		.space	2
 1208              	.LC14:
 1209 00d0 0A0D4164 		.ascii	"\012\015Add record...\000"
 1209      64207265 
 1209      636F7264 
 1209      2E2E2E00 
 1210              	.LC15:
 1211 00e0 0A0D476F 		.ascii	"\012\015Got Command: \000"
 1211      7420436F 
 1211      6D6D616E 
 1211      643A2000 
 1212              	.LC16:
ARM GAS  C:\Users\bkettle\AppData\Local\Temp\ccEtW88g.s 			page 31


 1213 00f0 25642025 		.ascii	"%d %s\000"
 1213      7300
 1214 00f6 0000     		.space	2
 1215              	.LC17:
 1216 00f8 0A0D456E 		.ascii	"\012\015Enter Record Title: \000"
 1216      74657220 
 1216      5265636F 
 1216      72642054 
 1216      69746C65 
 1217 010f 00       		.space	1
 1218              	.LC18:
 1219 0110 0A0D456E 		.ascii	"\012\015Enter username for \000"
 1219      74657220 
 1219      75736572 
 1219      6E616D65 
 1219      20666F72 
 1220 0126 0000     		.space	2
 1221              	.LC19:
 1222 0128 3A2000   		.ascii	": \000"
 1223 012b 00       		.space	1
 1224              	.LC20:
 1225 012c 0A0D5061 		.ascii	"\012\015Password for user \000"
 1225      7373776F 
 1225      72642066 
 1225      6F722075 
 1225      73657220 
 1226 0141 000000   		.space	3
 1227              	.LC21:
 1228 0144 0A0D456E 		.ascii	"\012\015Enter Password for user \000"
 1228      74657220 
 1228      50617373 
 1228      776F7264 
 1228      20666F72 
 1229 015f 00       		.space	1
 1230              	.LC22:
 1231 0160 0A0D4765 		.ascii	"\012\015Generating password! \000"
 1231      6E657261 
 1231      74696E67 
 1231      20706173 
 1231      73776F72 
 1232              	.LC23:
 1233 0178 0A0D4765 		.ascii	"\012\015Generated Password for user \000"
 1233      6E657261 
 1233      74656420 
 1233      50617373 
 1233      776F7264 
 1234 0197 00       		.space	1
 1235              	.LC24:
 1236 0198 0A0D0A0D 		.ascii	"\012\015\012\015Enter 'y' to confirm, anything else"
 1236      456E7465 
 1236      72202779 
 1236      2720746F 
 1236      20636F6E 
 1237 01bf 20746F20 		.ascii	" to cancel.\000"
 1237      63616E63 
 1237      656C2E00 
 1238 01cb 00       		.space	1
ARM GAS  C:\Users\bkettle\AppData\Local\Temp\ccEtW88g.s 			page 32


 1239              	.LC25:
 1240 01cc 0A0D4361 		.ascii	"\012\015Cancelling!\000"
 1240      6E63656C 
 1240      6C696E67 
 1240      2100
 1241              		.bss
 1242              		.align	2
 1243              		.set	.LANCHOR1,. + 0
 1244              		.type	s_sec_state, %object
 1245              		.size	s_sec_state, 4
 1246              	s_sec_state:
 1247 0000 00000000 		.space	4
 1248              		.type	null_record, %object
 1249              		.size	null_record, 63
 1250              	null_record:
 1251 0004 00000000 		.space	63
 1251      00000000 
 1251      00000000 
 1251      00000000 
 1251      00000000 
 1252              		.text
 1253              	.Letext0:
 1254              		.file 2 "c:\\program files (x86)\\cypress\\psoc creator\\4.3\\psoc creator\\import\\gnu\\arm\\5.4.
 1255              		.file 3 "c:\\program files (x86)\\cypress\\psoc creator\\4.3\\psoc creator\\import\\gnu\\arm\\5.4.
 1256              		.file 4 "Generated_Source\\PSoC5/cytypes.h"
 1257              		.file 5 "C:\\Users\\bkettle\\OneDrive\\development\\hardware\\DS3231-PSoC/ds3231.h"
 1258              		.file 6 "Generated_Source\\PSoC5/core_cm3.h"
 1259              		.file 7 "Generated_Source\\PSoC5/Dial.h"
 1260              		.file 8 "c:\\program files (x86)\\cypress\\psoc creator\\4.3\\psoc creator\\import\\gnu\\arm\\5.4.
 1261              		.file 9 "Generated_Source\\PSoC5/UART_1.h"
 1262              		.file 10 "c:\\program files (x86)\\cypress\\psoc creator\\4.3\\psoc creator\\import\\gnu\\arm\\5.4
 1263              		.file 11 "Generated_Source\\PSoC5/PRS.h"
 1264              		.file 12 "c:\\program files (x86)\\cypress\\psoc creator\\4.3\\psoc creator\\import\\gnu\\arm\\5.4
 1265              		.file 13 "Generated_Source\\PSoC5/rx_int.h"
 1266              		.file 14 "Generated_Source\\PSoC5/enc_sw_int.h"
 1267              		.file 15 "Generated_Source\\PSoC5/I2CRTC.h"
 1268              		.file 16 "Generated_Source\\PSoC5/LED.h"