ARM GAS  C:\Users\bkettle\AppData\Local\Temp\ccXfWhtF.s 			page 1


   1              		.syntax unified
   2              		.cpu cortex-m3
   3              		.fpu softvfp
   4              		.eabi_attribute 20, 1
   5              		.eabi_attribute 21, 1
   6              		.eabi_attribute 23, 3
   7              		.eabi_attribute 24, 1
   8              		.eabi_attribute 25, 1
   9              		.eabi_attribute 26, 1
  10              		.eabi_attribute 30, 1
  11              		.eabi_attribute 34, 1
  12              		.eabi_attribute 18, 4
  13              		.thumb
  14              		.syntax unified
  15              		.file	"main.c"
  16              		.text
  17              	.Ltext0:
  18              		.cfi_sections	.debug_frame
  19              		.section	.text.serial_print_record,"ax",%progbits
  20              		.align	2
  21              		.global	serial_print_record
  22              		.thumb
  23              		.thumb_func
  24              		.type	serial_print_record, %function
  25              	serial_print_record:
  26              	.LFB63:
  27              		.file 1 "main.c"
   1:main.c        **** /* ========================================
   2:main.c        ****  *
   3:main.c        ****  * Copyright YOUR COMPANY, THE YEAR
   4:main.c        ****  * All Rights Reserved
   5:main.c        ****  * UNPUBLISHED, LICENSED SOFTWARE.
   6:main.c        ****  *
   7:main.c        ****  * CONFIDENTIAL AND PROPRIETARY INFORMATION
   8:main.c        ****  * WHICH IS THE PROPERTY OF your company.
   9:main.c        ****  *
  10:main.c        ****  * ========================================
  11:main.c        **** */
  12:main.c        **** #include "project.h"
  13:main.c        **** #include <FS.h>
  14:main.c        **** #include <string.h>
  15:main.c        **** #include <Global.h>
  16:main.c        **** #include <stdbool.h>
  17:main.c        **** 
  18:main.c        **** char sdFile[9] = "pwdb";
  19:main.c        **** 
  20:main.c        **** // struct to hold each item, when decrypted they should fit this format
  21:main.c        **** // 64 bytes total (for now)
  22:main.c        **** // ALREADY IN OTHER FILE
  23:main.c        **** typedef struct {
  24:main.c        ****     char title[10];
  25:main.c        ****     char username[35];
  26:main.c        ****     char password[19];
  27:main.c        **** } Record;
  28:main.c        **** int record_size = 64; // record size in bytes
  29:main.c        **** Record null_record = {"","",""};
  30:main.c        **** Record example_record = {"aaaaaaaa", "aaaaaaaaaaaaaaaaa", "aaaaaaaaaaa"};
ARM GAS  C:\Users\bkettle\AppData\Local\Temp\ccXfWhtF.s 			page 2


  31:main.c        **** 
  32:main.c        **** 
  33:main.c        **** //////////// ALREADY IN SERIAL USB FILE
  34:main.c        **** void serial_print_record(Record record) {
  28              		.loc 1 34 0
  29              		.cfi_startproc
  30              		@ args = 64, pretend = 16, frame = 0
  31              		@ frame_needed = 0, uses_anonymous_args = 0
  32 0000 84B0     		sub	sp, sp, #16
  33              		.cfi_def_cfa_offset 16
  34 0002 10B5     		push	{r4, lr}
  35              		.cfi_def_cfa_offset 24
  36              		.cfi_offset 4, -24
  37              		.cfi_offset 14, -20
  38 0004 02AC     		add	r4, sp, #8
  39 0006 84E80F00 		stmia	r4, {r0, r1, r2, r3}
  35:main.c        ****     // prints a record's info to the serial monitor in a nice way
  36:main.c        ****     UART_1_PutString("\n\r\n\r   ");
  40              		.loc 1 36 0
  41 000a 1748     		ldr	r0, .L7
  42 000c FFF7FEFF 		bl	UART_1_PutString
  43              	.LVL0:
  44              	.LBB2:
  37:main.c        ****     for (int i=0; i<30; i++) {
  45              		.loc 1 37 0
  46 0010 0024     		movs	r4, #0
  47 0012 03E0     		b	.L2
  48              	.LVL1:
  49              	.L3:
  38:main.c        ****         UART_1_PutChar('*');
  50              		.loc 1 38 0 discriminator 3
  51 0014 2A20     		movs	r0, #42
  52 0016 FFF7FEFF 		bl	UART_1_PutChar
  53              	.LVL2:
  37:main.c        ****     for (int i=0; i<30; i++) {
  54              		.loc 1 37 0 discriminator 3
  55 001a 0134     		adds	r4, r4, #1
  56              	.LVL3:
  57              	.L2:
  37:main.c        ****     for (int i=0; i<30; i++) {
  58              		.loc 1 37 0 is_stmt 0 discriminator 1
  59 001c 1D2C     		cmp	r4, #29
  60 001e F9DD     		ble	.L3
  61              	.LBE2:
  39:main.c        ****     }
  40:main.c        ****     UART_1_PutString("\n\r   * Title: ");
  62              		.loc 1 40 0 is_stmt 1
  63 0020 1248     		ldr	r0, .L7+4
  64 0022 FFF7FEFF 		bl	UART_1_PutString
  65              	.LVL4:
  41:main.c        ****     UART_1_PutString(record.title);
  66              		.loc 1 41 0
  67 0026 02A8     		add	r0, sp, #8
  68 0028 FFF7FEFF 		bl	UART_1_PutString
  69              	.LVL5:
  42:main.c        ****     UART_1_PutString("\n\r   * Username: ");
  70              		.loc 1 42 0
ARM GAS  C:\Users\bkettle\AppData\Local\Temp\ccXfWhtF.s 			page 3


  71 002c 1048     		ldr	r0, .L7+8
  72 002e FFF7FEFF 		bl	UART_1_PutString
  73              	.LVL6:
  43:main.c        ****     UART_1_PutString(record.username);
  74              		.loc 1 43 0
  75 0032 0DF11200 		add	r0, sp, #18
  76 0036 FFF7FEFF 		bl	UART_1_PutString
  77              	.LVL7:
  44:main.c        ****     UART_1_PutString("\n\r   * Password: ");
  78              		.loc 1 44 0
  79 003a 0E48     		ldr	r0, .L7+12
  80 003c FFF7FEFF 		bl	UART_1_PutString
  81              	.LVL8:
  45:main.c        ****     UART_1_PutString(record.password);
  82              		.loc 1 45 0
  83 0040 0DF13500 		add	r0, sp, #53
  84 0044 FFF7FEFF 		bl	UART_1_PutString
  85              	.LVL9:
  46:main.c        ****     UART_1_PutString("\n\r   ");
  86              		.loc 1 46 0
  87 0048 0B48     		ldr	r0, .L7+16
  88 004a FFF7FEFF 		bl	UART_1_PutString
  89              	.LVL10:
  90              	.LBB3:
  47:main.c        ****     for (int i=0; i<30; i++) {
  91              		.loc 1 47 0
  92 004e 0024     		movs	r4, #0
  93              	.LVL11:
  94 0050 03E0     		b	.L4
  95              	.LVL12:
  96              	.L5:
  48:main.c        ****         UART_1_PutChar('*');
  97              		.loc 1 48 0 discriminator 3
  98 0052 2A20     		movs	r0, #42
  99 0054 FFF7FEFF 		bl	UART_1_PutChar
 100              	.LVL13:
  47:main.c        ****     for (int i=0; i<30; i++) {
 101              		.loc 1 47 0 discriminator 3
 102 0058 0134     		adds	r4, r4, #1
 103              	.LVL14:
 104              	.L4:
  47:main.c        ****     for (int i=0; i<30; i++) {
 105              		.loc 1 47 0 is_stmt 0 discriminator 1
 106 005a 1D2C     		cmp	r4, #29
 107 005c F9DD     		ble	.L5
 108              	.LBE3:
  49:main.c        ****     }
  50:main.c        **** }
 109              		.loc 1 50 0 is_stmt 1
 110 005e BDE81040 		pop	{r4, lr}
 111              		.cfi_restore 14
 112              		.cfi_restore 4
 113              		.cfi_def_cfa_offset 16
 114              	.LVL15:
 115 0062 04B0     		add	sp, sp, #16
 116              		.cfi_def_cfa_offset 0
 117 0064 7047     		bx	lr
ARM GAS  C:\Users\bkettle\AppData\Local\Temp\ccXfWhtF.s 			page 4


 118              	.L8:
 119 0066 00BF     		.align	2
 120              	.L7:
 121 0068 00000000 		.word	.LC0
 122 006c 08000000 		.word	.LC1
 123 0070 18000000 		.word	.LC2
 124 0074 2C000000 		.word	.LC3
 125 0078 40000000 		.word	.LC4
 126              		.cfi_endproc
 127              	.LFE63:
 128              		.size	serial_print_record, .-serial_print_record
 129              		.section	.text.SD_createDB,"ax",%progbits
 130              		.align	2
 131              		.global	SD_createDB
 132              		.thumb
 133              		.thumb_func
 134              		.type	SD_createDB, %function
 135              	SD_createDB:
 136              	.LFB64:
  51:main.c        **** 
  52:main.c        **** 
  53:main.c        **** 
  54:main.c        **** void SD_createDB(FS_FILE * pFile, char * sdVolName, bool write_example) {
 137              		.loc 1 54 0
 138              		.cfi_startproc
 139              		@ args = 0, pretend = 0, frame = 0
 140              		@ frame_needed = 0, uses_anonymous_args = 0
 141              	.LVL16:
 142 0000 38B5     		push	{r3, r4, r5, lr}
 143              		.cfi_def_cfa_offset 16
 144              		.cfi_offset 3, -16
 145              		.cfi_offset 4, -12
 146              		.cfi_offset 5, -8
 147              		.cfi_offset 14, -4
 148 0002 0C46     		mov	r4, r1
 149 0004 1546     		mov	r5, r2
  55:main.c        ****     UART_1_PutString("\n\r SD card format");
 150              		.loc 1 55 0
 151 0006 2748     		ldr	r0, .L18
 152              	.LVL17:
 153 0008 FFF7FEFF 		bl	UART_1_PutString
 154              	.LVL18:
  56:main.c        ****     
  57:main.c        ****     if(0 == FS_FormatSD(sdVolName)) {
 155              		.loc 1 57 0
 156 000c 2046     		mov	r0, r4
 157 000e FFF7FEFF 		bl	FS_FormatSD
 158              	.LVL19:
 159 0012 18B9     		cbnz	r0, .L10
  58:main.c        ****         UART_1_PutString(" Succeeded");
 160              		.loc 1 58 0
 161 0014 2448     		ldr	r0, .L18+4
 162 0016 FFF7FEFF 		bl	UART_1_PutString
 163              	.LVL20:
 164 001a 02E0     		b	.L11
 165              	.L10:
  59:main.c        ****     }
ARM GAS  C:\Users\bkettle\AppData\Local\Temp\ccXfWhtF.s 			page 5


  60:main.c        ****     else {
  61:main.c        ****         UART_1_PutString(" Failed");
 166              		.loc 1 61 0
 167 001c 2348     		ldr	r0, .L18+8
 168 001e FFF7FEFF 		bl	UART_1_PutString
 169              	.LVL21:
 170              	.L11:
  62:main.c        ****     }
  63:main.c        ****     
  64:main.c        ****     /* Create specific file for modification */
  65:main.c        ****     pFile = FS_FOpen(sdFile, "w");
 171              		.loc 1 65 0
 172 0022 2349     		ldr	r1, .L18+12
 173 0024 2348     		ldr	r0, .L18+16
 174 0026 FFF7FEFF 		bl	FS_FOpen
 175              	.LVL22:
  66:main.c        ****     
  67:main.c        ****     /* Check if file was created */
  68:main.c        ****     if(pFile) {
 176              		.loc 1 68 0
 177 002a 0446     		mov	r4, r0
 178              	.LVL23:
 179 002c 78B3     		cbz	r0, .L12
  69:main.c        ****         /* Indicate successful file creation message */
  70:main.c        ****         UART_1_PutString("\n\r File ");
 180              		.loc 1 70 0
 181 002e 2248     		ldr	r0, .L18+20
 182              	.LVL24:
 183 0030 FFF7FEFF 		bl	UART_1_PutString
 184              	.LVL25:
  71:main.c        ****         UART_1_PutString(sdFile);
 185              		.loc 1 71 0
 186 0034 1F48     		ldr	r0, .L18+16
 187 0036 FFF7FEFF 		bl	UART_1_PutString
 188              	.LVL26:
  72:main.c        ****         UART_1_PutString(" was opened");
 189              		.loc 1 72 0
 190 003a 2048     		ldr	r0, .L18+24
 191 003c FFF7FEFF 		bl	UART_1_PutString
 192              	.LVL27:
  73:main.c        ****         
  74:main.c        ****         // write example record to the file
  75:main.c        ****         if (write_example) {
 193              		.loc 1 75 0
 194 0040 B5B1     		cbz	r5, .L13
  76:main.c        ****             if(0 != FS_Write(pFile, &example_record, record_size)) {
 195              		.loc 1 76 0
 196 0042 1C49     		ldr	r1, .L18+16
 197 0044 CA68     		ldr	r2, [r1, #12]
 198 0046 1031     		adds	r1, r1, #16
 199 0048 2046     		mov	r0, r4
 200 004a FFF7FEFF 		bl	FS_Write
 201              	.LVL28:
 202 004e 48B1     		cbz	r0, .L14
  77:main.c        ****                 /* Inditate that data was written to a file */
  78:main.c        ****                 UART_1_PutString("\n\r\"0123456789\"");
 203              		.loc 1 78 0
ARM GAS  C:\Users\bkettle\AppData\Local\Temp\ccXfWhtF.s 			page 6


 204 0050 1B48     		ldr	r0, .L18+28
 205 0052 FFF7FEFF 		bl	UART_1_PutString
 206              	.LVL29:
  79:main.c        ****                 UART_1_PutString(sdFile);
 207              		.loc 1 79 0
 208 0056 1748     		ldr	r0, .L18+16
 209 0058 FFF7FEFF 		bl	UART_1_PutString
 210              	.LVL30:
  80:main.c        ****                 //LCD_Position(1u, 0u);
  81:main.c        ****                 UART_1_PutString(" written to file");
 211              		.loc 1 81 0
 212 005c 1948     		ldr	r0, .L18+32
 213 005e FFF7FEFF 		bl	UART_1_PutString
 214              	.LVL31:
 215 0062 05E0     		b	.L13
 216              	.L14:
  82:main.c        ****             }
  83:main.c        ****             else {
  84:main.c        ****                 UART_1_PutString("\n\r Failed to write");
 217              		.loc 1 84 0
 218 0064 1848     		ldr	r0, .L18+36
 219 0066 FFF7FEFF 		bl	UART_1_PutString
 220              	.LVL32:
  85:main.c        ****                 //LCD_Position(1u, 0u);
  86:main.c        ****                 UART_1_PutString(" data to file");
 221              		.loc 1 86 0
 222 006a 1848     		ldr	r0, .L18+40
 223 006c FFF7FEFF 		bl	UART_1_PutString
 224              	.LVL33:
 225              	.L13:
  87:main.c        ****             }
  88:main.c        ****         }
  89:main.c        ****         
  90:main.c        ****         if(0 == FS_FClose(pFile)) {
 226              		.loc 1 90 0
 227 0070 2046     		mov	r0, r4
 228 0072 FFF7FEFF 		bl	FS_FClose
 229              	.LVL34:
 230 0076 18B9     		cbnz	r0, .L15
  91:main.c        ****             UART_1_PutString("\n\r File was closed");
 231              		.loc 1 91 0
 232 0078 1548     		ldr	r0, .L18+44
 233 007a FFF7FEFF 		bl	UART_1_PutString
 234              	.LVL35:
 235 007e 0CE0     		b	.L16
 236              	.L15:
  92:main.c        ****         }
  93:main.c        ****         else {
  94:main.c        ****             UART_1_PutString("\n\r Failed to close");
 237              		.loc 1 94 0
 238 0080 1448     		ldr	r0, .L18+48
 239 0082 FFF7FEFF 		bl	UART_1_PutString
 240              	.LVL36:
  95:main.c        ****             UART_1_PutString("file");
 241              		.loc 1 95 0
 242 0086 1448     		ldr	r0, .L18+52
 243 0088 FFF7FEFF 		bl	UART_1_PutString
ARM GAS  C:\Users\bkettle\AppData\Local\Temp\ccXfWhtF.s 			page 7


 244              	.LVL37:
 245 008c 05E0     		b	.L16
 246              	.LVL38:
 247              	.L12:
  96:main.c        ****         }
  97:main.c        ****     }
  98:main.c        ****     else {
  99:main.c        ****         UART_1_PutString("\n\r Failed to create");
 248              		.loc 1 99 0
 249 008e 1348     		ldr	r0, .L18+56
 250              	.LVL39:
 251 0090 FFF7FEFF 		bl	UART_1_PutString
 252              	.LVL40:
 100:main.c        ****         UART_1_PutString(" file");
 253              		.loc 1 100 0
 254 0094 1248     		ldr	r0, .L18+60
 255 0096 FFF7FEFF 		bl	UART_1_PutString
 256              	.LVL41:
 257              	.L16:
 101:main.c        ****     }
 102:main.c        ****     
 103:main.c        ****     UART_1_PutString("\n\r Format complete ");
 258              		.loc 1 103 0
 259 009a 1248     		ldr	r0, .L18+64
 260 009c FFF7FEFF 		bl	UART_1_PutString
 261              	.LVL42:
 262 00a0 38BD     		pop	{r3, r4, r5, pc}
 263              	.LVL43:
 264              	.L19:
 265 00a2 00BF     		.align	2
 266              	.L18:
 267 00a4 48000000 		.word	.LC5
 268 00a8 5C000000 		.word	.LC6
 269 00ac 68000000 		.word	.LC7
 270 00b0 70000000 		.word	.LC8
 271 00b4 00000000 		.word	.LANCHOR0
 272 00b8 74000000 		.word	.LC9
 273 00bc 80000000 		.word	.LC10
 274 00c0 8C000000 		.word	.LC11
 275 00c4 9C000000 		.word	.LC12
 276 00c8 B0000000 		.word	.LC13
 277 00cc C4000000 		.word	.LC14
 278 00d0 D4000000 		.word	.LC15
 279 00d4 E8000000 		.word	.LC16
 280 00d8 FC000000 		.word	.LC17
 281 00dc 04010000 		.word	.LC18
 282 00e0 18010000 		.word	.LC19
 283 00e4 20010000 		.word	.LC20
 284              		.cfi_endproc
 285              	.LFE64:
 286              		.size	SD_createDB, .-SD_createDB
 287              		.section	.text.SD_readRecords,"ax",%progbits
 288              		.align	2
 289              		.global	SD_readRecords
 290              		.thumb
 291              		.thumb_func
 292              		.type	SD_readRecords, %function
ARM GAS  C:\Users\bkettle\AppData\Local\Temp\ccXfWhtF.s 			page 8


 293              	SD_readRecords:
 294              	.LFB65:
 104:main.c        **** }
 105:main.c        **** 
 106:main.c        **** bool SD_readRecords(FS_FILE * pFile, int rec_index, int num_records, Record * out) {
 295              		.loc 1 106 0
 296              		.cfi_startproc
 297              		@ args = 0, pretend = 0, frame = 0
 298              		@ frame_needed = 0, uses_anonymous_args = 0
 299              	.LVL44:
 300 0000 F8B5     		push	{r3, r4, r5, r6, r7, lr}
 301              		.cfi_def_cfa_offset 24
 302              		.cfi_offset 3, -24
 303              		.cfi_offset 4, -20
 304              		.cfi_offset 5, -16
 305              		.cfi_offset 6, -12
 306              		.cfi_offset 7, -8
 307              		.cfi_offset 14, -4
 308 0002 0D46     		mov	r5, r1
 309 0004 1646     		mov	r6, r2
 310 0006 1F46     		mov	r7, r3
 107:main.c        ****     /* reads records from card at the 
 108:main.c        ****         specified index, and copies it to the location
 109:main.c        ****         given by the out pointer.
 110:main.c        ****     
 111:main.c        ****         returns true if successful, false if not
 112:main.c        ****     */
 113:main.c        ****     // open the db file
 114:main.c        ****     pFile = FS_FOpen(sdFile, "r");
 311              		.loc 1 114 0
 312 0008 1749     		ldr	r1, .L25
 313              	.LVL45:
 314 000a 1848     		ldr	r0, .L25+4
 315              	.LVL46:
 316 000c FFF7FEFF 		bl	FS_FOpen
 317              	.LVL47:
 115:main.c        ****     
 116:main.c        ****     if (pFile) {
 318              		.loc 1 116 0
 319 0010 38B3     		cbz	r0, .L21
 320 0012 0446     		mov	r4, r0
 321              	.LBB4:
 117:main.c        ****         // should first check that the file is long enough
 118:main.c        ****         // to hold all the records the person asked for
 119:main.c        ****         int db_size = FS_GetFileSize(pFile);
 322              		.loc 1 119 0
 323 0014 FFF7FEFF 		bl	FS_GetFileSize
 324              	.LVL48:
 120:main.c        ****         if (db_size < (rec_index + num_records)*record_size) {
 325              		.loc 1 120 0
 326 0018 AB19     		adds	r3, r5, r6
 327 001a 144A     		ldr	r2, .L25+4
 328 001c D168     		ldr	r1, [r2, #12]
 329 001e 01FB03F3 		mul	r3, r1, r3
 330 0022 9842     		cmp	r0, r3
 331 0024 03DA     		bge	.L22
 121:main.c        ****             // not enough records in db, abort
ARM GAS  C:\Users\bkettle\AppData\Local\Temp\ccXfWhtF.s 			page 9


 122:main.c        ****             UART_1_PutString("\n\r !! Requested records outside range!");
 332              		.loc 1 122 0
 333 0026 1248     		ldr	r0, .L25+8
 334              	.LVL49:
 335 0028 FFF7FEFF 		bl	UART_1_PutString
 336              	.LVL50:
 123:main.c        ****             return false;
 337              		.loc 1 123 0
 338 002c 19E0     		b	.L21
 339              	.LVL51:
 340              	.L22:
 124:main.c        ****         }
 125:main.c        ****         
 126:main.c        ****         
 127:main.c        ****         // move the cursor to the start of the record we want
 128:main.c        ****         // this record should be located at rec_index * record_size
 129:main.c        ****         if (0 != FS_FSeek(pFile, rec_index*record_size, FS_SEEK_CUR)) {
 341              		.loc 1 129 0
 342 002e 0122     		movs	r2, #1
 343 0030 01FB05F1 		mul	r1, r1, r5
 344 0034 2046     		mov	r0, r4
 345              	.LVL52:
 346 0036 FFF7FEFF 		bl	FS_FSeek
 347              	.LVL53:
 348 003a 18B1     		cbz	r0, .L23
 130:main.c        ****             // seek failed, abort
 131:main.c        ****             UART_1_PutString("\n\r !! Failed to move cursor!");
 349              		.loc 1 131 0
 350 003c 0D48     		ldr	r0, .L25+12
 351 003e FFF7FEFF 		bl	UART_1_PutString
 352              	.LVL54:
 132:main.c        ****             return false;
 353              		.loc 1 132 0
 354 0042 0EE0     		b	.L21
 355              	.L23:
 133:main.c        ****         }
 134:main.c        ****         
 135:main.c        ****         FS_Read(pFile, out, record_size*num_records);
 356              		.loc 1 135 0
 357 0044 094B     		ldr	r3, .L25+4
 358 0046 DA68     		ldr	r2, [r3, #12]
 359 0048 02FB06F2 		mul	r2, r2, r6
 360 004c 3946     		mov	r1, r7
 361 004e 2046     		mov	r0, r4
 362 0050 FFF7FEFF 		bl	FS_Read
 363              	.LVL55:
 136:main.c        ****         
 137:main.c        ****         if (0 != FS_FClose(pFile)) {
 364              		.loc 1 137 0
 365 0054 2046     		mov	r0, r4
 366 0056 FFF7FEFF 		bl	FS_FClose
 367              	.LVL56:
 368 005a 10B1     		cbz	r0, .L21
 138:main.c        ****             // failed to close file
 139:main.c        ****             UART_1_PutString("\n\r !! Failed to close file!");
 369              		.loc 1 139 0
 370 005c 0648     		ldr	r0, .L25+16
ARM GAS  C:\Users\bkettle\AppData\Local\Temp\ccXfWhtF.s 			page 10


 371 005e FFF7FEFF 		bl	UART_1_PutString
 372              	.LVL57:
 373              	.L21:
 374              	.LBE4:
 140:main.c        ****             return false;
 141:main.c        ****         }
 142:main.c        ****     }
 143:main.c        ****     
 144:main.c        ****     return false;
 145:main.c        **** }
 375              		.loc 1 145 0
 376 0062 0020     		movs	r0, #0
 377 0064 F8BD     		pop	{r3, r4, r5, r6, r7, pc}
 378              	.LVL58:
 379              	.L26:
 380 0066 00BF     		.align	2
 381              	.L25:
 382 0068 34010000 		.word	.LC21
 383 006c 00000000 		.word	.LANCHOR0
 384 0070 38010000 		.word	.LC22
 385 0074 60010000 		.word	.LC23
 386 0078 80010000 		.word	.LC24
 387              		.cfi_endproc
 388              	.LFE65:
 389              		.size	SD_readRecords, .-SD_readRecords
 390              		.section	.text.SD_addRecord,"ax",%progbits
 391              		.align	2
 392              		.global	SD_addRecord
 393              		.thumb
 394              		.thumb_func
 395              		.type	SD_addRecord, %function
 396              	SD_addRecord:
 397              	.LFB66:
 146:main.c        **** 
 147:main.c        **** bool SD_addRecord(FS_FILE * pFile, Record * to_add) {
 398              		.loc 1 147 0
 399              		.cfi_startproc
 400              		@ args = 0, pretend = 0, frame = 0
 401              		@ frame_needed = 0, uses_anonymous_args = 0
 402              	.LVL59:
 403 0000 38B5     		push	{r3, r4, r5, lr}
 404              		.cfi_def_cfa_offset 16
 405              		.cfi_offset 3, -16
 406              		.cfi_offset 4, -12
 407              		.cfi_offset 5, -8
 408              		.cfi_offset 14, -4
 409 0002 0D46     		mov	r5, r1
 148:main.c        ****     /* writes the record at the address given by to_add
 149:main.c        ****         to the SD card at the end of the db.
 150:main.c        ****     
 151:main.c        ****         returns true if successful, false if not
 152:main.c        ****     */
 153:main.c        ****     // open the db file for APPENDING (a)
 154:main.c        ****     pFile = FS_FOpen(sdFile, "a");
 410              		.loc 1 154 0
 411 0004 0B49     		ldr	r1, .L30
 412              	.LVL60:
ARM GAS  C:\Users\bkettle\AppData\Local\Temp\ccXfWhtF.s 			page 11


 413 0006 0C48     		ldr	r0, .L30+4
 414              	.LVL61:
 415 0008 FFF7FEFF 		bl	FS_FOpen
 416              	.LVL62:
 155:main.c        ****     
 156:main.c        ****     if (pFile) {
 417              		.loc 1 156 0
 418 000c 78B1     		cbz	r0, .L28
 419 000e 0446     		mov	r4, r0
 420              	.LBB5:
 157:main.c        ****         int db_size = FS_GetFileSize(pFile);
 421              		.loc 1 157 0
 422 0010 FFF7FEFF 		bl	FS_GetFileSize
 423              	.LVL63:
 158:main.c        ****         
 159:main.c        ****         // cursor should be at the end of the file, bc appending
 160:main.c        ****         
 161:main.c        ****         // write the record in to_add to the file at the cursor pos
 162:main.c        ****         // should be record_size long (I hope)
 163:main.c        ****         FS_Write(pFile, to_add, record_size);
 424              		.loc 1 163 0
 425 0014 084B     		ldr	r3, .L30+4
 426 0016 DA68     		ldr	r2, [r3, #12]
 427 0018 2946     		mov	r1, r5
 428 001a 2046     		mov	r0, r4
 429 001c FFF7FEFF 		bl	FS_Write
 430              	.LVL64:
 164:main.c        ****         
 165:main.c        ****         if (0 != FS_FClose(pFile)) {
 431              		.loc 1 165 0
 432 0020 2046     		mov	r0, r4
 433 0022 FFF7FEFF 		bl	FS_FClose
 434              	.LVL65:
 435 0026 10B1     		cbz	r0, .L28
 166:main.c        ****             // failed to close file
 167:main.c        ****             UART_1_PutString("\n\r !! Failed to close file!");
 436              		.loc 1 167 0
 437 0028 0448     		ldr	r0, .L30+8
 438 002a FFF7FEFF 		bl	UART_1_PutString
 439              	.LVL66:
 440              	.L28:
 441              	.LBE5:
 168:main.c        ****             return false;
 169:main.c        ****         }
 170:main.c        ****     }
 171:main.c        ****     
 172:main.c        ****     return false;
 173:main.c        **** }
 442              		.loc 1 173 0
 443 002e 0020     		movs	r0, #0
 444 0030 38BD     		pop	{r3, r4, r5, pc}
 445              	.LVL67:
 446              	.L31:
 447 0032 00BF     		.align	2
 448              	.L30:
 449 0034 9C010000 		.word	.LC25
 450 0038 00000000 		.word	.LANCHOR0
ARM GAS  C:\Users\bkettle\AppData\Local\Temp\ccXfWhtF.s 			page 12


 451 003c 80010000 		.word	.LC24
 452              		.cfi_endproc
 453              	.LFE66:
 454              		.size	SD_addRecord, .-SD_addRecord
 455              		.section	.text.main,"ax",%progbits
 456              		.align	2
 457              		.global	main
 458              		.thumb
 459              		.thumb_func
 460              		.type	main, %function
 461              	main:
 462              	.LFB67:
 174:main.c        **** 
 175:main.c        **** int main() {
 463              		.loc 1 175 0
 464              		.cfi_startproc
 465              		@ args = 0, pretend = 0, frame = 144
 466              		@ frame_needed = 0, uses_anonymous_args = 0
 467 0000 F0B5     		push	{r4, r5, r6, r7, lr}
 468              		.cfi_def_cfa_offset 20
 469              		.cfi_offset 4, -20
 470              		.cfi_offset 5, -16
 471              		.cfi_offset 6, -12
 472              		.cfi_offset 7, -8
 473              		.cfi_offset 14, -4
 474 0002 B1B0     		sub	sp, sp, #196
 475              		.cfi_def_cfa_offset 216
 476              	.LVL68:
 176:main.c        ****     char sdVolName[10];     /* Buffer that will hold SD card Volume name */
 177:main.c        ****     U16 step = 1u;
 178:main.c        ****     FS_FILE * pFile;
 179:main.c        ****     
 180:main.c        ****     /* Start LCD */
 181:main.c        ****     //LCD_Start();
 182:main.c        ****     UART_1_Start();
 477              		.loc 1 182 0
 478 0004 FFF7FEFF 		bl	UART_1_Start
 479              	.LVL69:
 183:main.c        ****     
 184:main.c        ****     /* Initialize file system */
 185:main.c        ****     FS_Init();
 480              		.loc 1 185 0
 481 0008 FFF7FEFF 		bl	FS_Init
 482              	.LVL70:
 186:main.c        ****     
 187:main.c        ****     /* Get volume name of SD card #0 */
 188:main.c        ****     if(0 != FS_GetVolumeName(0u, &sdVolName[0], 9u))
 483              		.loc 1 188 0
 484 000c 0922     		movs	r2, #9
 485 000e 2DA9     		add	r1, sp, #180
 486 0010 0020     		movs	r0, #0
 487 0012 FFF7FEFF 		bl	FS_GetVolumeName
 488              	.LVL71:
 489 0016 30B1     		cbz	r0, .L33
 189:main.c        ****     {
 190:main.c        ****         // display volume name
 191:main.c        ****         UART_1_PutString("\n\r SD card name:");
ARM GAS  C:\Users\bkettle\AppData\Local\Temp\ccXfWhtF.s 			page 13


 490              		.loc 1 191 0
 491 0018 2648     		ldr	r0, .L37
 492 001a FFF7FEFF 		bl	UART_1_PutString
 493              	.LVL72:
 192:main.c        ****         UART_1_PutString(sdVolName);
 494              		.loc 1 192 0
 495 001e 2DA8     		add	r0, sp, #180
 496 0020 FFF7FEFF 		bl	UART_1_PutString
 497              	.LVL73:
 498 0024 05E0     		b	.L35
 499              	.L33:
 193:main.c        ****     }
 194:main.c        ****     else
 195:main.c        ****     {
 196:main.c        ****         // getting volume name failed
 197:main.c        ****         UART_1_PutString("\n\r Failed to get ");
 500              		.loc 1 197 0
 501 0026 2448     		ldr	r0, .L37+4
 502 0028 FFF7FEFF 		bl	UART_1_PutString
 503              	.LVL74:
 198:main.c        ****         UART_1_PutString("SD card name");
 504              		.loc 1 198 0
 505 002c 2348     		ldr	r0, .L37+8
 506 002e FFF7FEFF 		bl	UART_1_PutString
 507              	.LVL75:
 508              	.L35:
 509              	.LBB6:
 199:main.c        ****     }
 200:main.c        ****     
 201:main.c        ****     // format the sd card and create the db
 202:main.c        ****     //SD_createDB(pFile, sdVolName, true);
 203:main.c        ****     //Record new_rec = {"bbb", "bbbb", "bbbbb"};
 204:main.c        ****     //SD_addRecord(pFile, &new_rec);
 205:main.c        ****     
 206:main.c        ****     for(;;) {
 207:main.c        ****         CyDelay(4000);
 510              		.loc 1 207 0 discriminator 1
 511 0032 4FF47A60 		mov	r0, #4000
 512 0036 FFF7FEFF 		bl	CyDelay
 513              	.LVL76:
 208:main.c        ****         Record curr_records[2];
 209:main.c        ****         SD_readRecords(pFile, 0, 2, curr_records);
 514              		.loc 1 209 0 discriminator 1
 515 003a 0DAE     		add	r6, sp, #52
 516 003c 3346     		mov	r3, r6
 517 003e 0222     		movs	r2, #2
 518 0040 0021     		movs	r1, #0
 519 0042 0F46     		mov	r7, r1
 520 0044 0846     		mov	r0, r1
 521 0046 FFF7FEFF 		bl	SD_readRecords
 522              	.LVL77:
 210:main.c        ****         serial_print_record(curr_records[0]);
 523              		.loc 1 210 0 discriminator 1
 524 004a 6C46     		mov	r4, sp
 525 004c 11AD     		add	r5, sp, #68
 526 004e 0FCD     		ldmia	r5!, {r0, r1, r2, r3}
 527 0050 0FC4     		stmia	r4!, {r0, r1, r2, r3}
ARM GAS  C:\Users\bkettle\AppData\Local\Temp\ccXfWhtF.s 			page 14


 528 0052 0FCD     		ldmia	r5!, {r0, r1, r2, r3}
 529 0054 0FC4     		stmia	r4!, {r0, r1, r2, r3}
 530 0056 95E80F00 		ldmia	r5, {r0, r1, r2, r3}
 531 005a 84E80F00 		stmia	r4, {r0, r1, r2, r3}
 532 005e 96E80F00 		ldmia	r6, {r0, r1, r2, r3}
 533 0062 FFF7FEFF 		bl	serial_print_record
 534              	.LVL78:
 211:main.c        ****         serial_print_record(curr_records[1]);
 535              		.loc 1 211 0 discriminator 1
 536 0066 6C46     		mov	r4, sp
 537 0068 21AD     		add	r5, sp, #132
 538 006a 0FCD     		ldmia	r5!, {r0, r1, r2, r3}
 539 006c 0FC4     		stmia	r4!, {r0, r1, r2, r3}
 540 006e 0FCD     		ldmia	r5!, {r0, r1, r2, r3}
 541 0070 0FC4     		stmia	r4!, {r0, r1, r2, r3}
 542 0072 95E80F00 		ldmia	r5, {r0, r1, r2, r3}
 543 0076 84E80F00 		stmia	r4, {r0, r1, r2, r3}
 544 007a 1DAB     		add	r3, sp, #116
 545 007c 0FCB     		ldmia	r3, {r0, r1, r2, r3}
 546 007e FFF7FEFF 		bl	serial_print_record
 547              	.LVL79:
 212:main.c        **** //        
 213:main.c        ****         UART_1_PutString("\n\r----");
 548              		.loc 1 213 0 discriminator 1
 549 0082 0F48     		ldr	r0, .L37+12
 550 0084 FFF7FEFF 		bl	UART_1_PutString
 551              	.LVL80:
 214:main.c        ****         SD_readRecords(pFile, 1, 1, curr_records);
 552              		.loc 1 214 0 discriminator 1
 553 0088 3346     		mov	r3, r6
 554 008a 0122     		movs	r2, #1
 555 008c 1146     		mov	r1, r2
 556 008e 3846     		mov	r0, r7
 557 0090 FFF7FEFF 		bl	SD_readRecords
 558              	.LVL81:
 215:main.c        ****         serial_print_record(curr_records[0]);
 559              		.loc 1 215 0 discriminator 1
 560 0094 6C46     		mov	r4, sp
 561 0096 11AD     		add	r5, sp, #68
 562 0098 0FCD     		ldmia	r5!, {r0, r1, r2, r3}
 563 009a 0FC4     		stmia	r4!, {r0, r1, r2, r3}
 564 009c 0FCD     		ldmia	r5!, {r0, r1, r2, r3}
 565 009e 0FC4     		stmia	r4!, {r0, r1, r2, r3}
 566 00a0 95E80F00 		ldmia	r5, {r0, r1, r2, r3}
 567 00a4 84E80F00 		stmia	r4, {r0, r1, r2, r3}
 568 00a8 96E80F00 		ldmia	r6, {r0, r1, r2, r3}
 569 00ac FFF7FEFF 		bl	serial_print_record
 570              	.LVL82:
 571 00b0 BFE7     		b	.L35
 572              	.L38:
 573 00b2 00BF     		.align	2
 574              	.L37:
 575 00b4 A0010000 		.word	.LC26
 576 00b8 B4010000 		.word	.LC27
 577 00bc C8010000 		.word	.LC28
 578 00c0 D8010000 		.word	.LC29
 579              	.LBE6:
ARM GAS  C:\Users\bkettle\AppData\Local\Temp\ccXfWhtF.s 			page 15


 580              		.cfi_endproc
 581              	.LFE67:
 582              		.size	main, .-main
 583              		.global	example_record
 584              		.global	null_record
 585              		.global	record_size
 586              		.global	sdFile
 587              		.data
 588              		.align	2
 589              		.set	.LANCHOR0,. + 0
 590              		.type	sdFile, %object
 591              		.size	sdFile, 9
 592              	sdFile:
 593 0000 70776462 		.ascii	"pwdb\000"
 593      00
 594 0005 00000000 		.space	4
 595 0009 000000   		.space	3
 596              		.type	record_size, %object
 597              		.size	record_size, 4
 598              	record_size:
 599 000c 40000000 		.word	64
 600              		.type	example_record, %object
 601              		.size	example_record, 64
 602              	example_record:
 603 0010 61616161 		.ascii	"aaaaaaaa\000"
 603      61616161 
 603      00
 604 0019 00       		.space	1
 605 001a 61616161 		.ascii	"aaaaaaaaaaaaaaaaa\000"
 605      61616161 
 605      61616161 
 605      61616161 
 605      6100
 606 002c 00000000 		.space	17
 606      00000000 
 606      00000000 
 606      00000000 
 606      00
 607 003d 61616161 		.ascii	"aaaaaaaaaaa\000"
 607      61616161 
 607      61616100 
 608 0049 00000000 		.space	7
 608      000000
 609              		.section	.rodata.str1.4,"aMS",%progbits,1
 610              		.align	2
 611              	.LC0:
 612 0000 0A0D0A0D 		.ascii	"\012\015\012\015   \000"
 612      20202000 
 613              	.LC1:
 614 0008 0A0D2020 		.ascii	"\012\015   * Title: \000"
 614      202A2054 
 614      69746C65 
 614      3A2000
 615 0017 00       		.space	1
 616              	.LC2:
 617 0018 0A0D2020 		.ascii	"\012\015   * Username: \000"
 617      202A2055 
ARM GAS  C:\Users\bkettle\AppData\Local\Temp\ccXfWhtF.s 			page 16


 617      7365726E 
 617      616D653A 
 617      2000
 618 002a 0000     		.space	2
 619              	.LC3:
 620 002c 0A0D2020 		.ascii	"\012\015   * Password: \000"
 620      202A2050 
 620      61737377 
 620      6F72643A 
 620      2000
 621 003e 0000     		.space	2
 622              	.LC4:
 623 0040 0A0D2020 		.ascii	"\012\015   \000"
 623      2000
 624 0046 0000     		.space	2
 625              	.LC5:
 626 0048 0A0D2053 		.ascii	"\012\015 SD card format\000"
 626      44206361 
 626      72642066 
 626      6F726D61 
 626      7400
 627 005a 0000     		.space	2
 628              	.LC6:
 629 005c 20537563 		.ascii	" Succeeded\000"
 629      63656564 
 629      656400
 630 0067 00       		.space	1
 631              	.LC7:
 632 0068 20466169 		.ascii	" Failed\000"
 632      6C656400 
 633              	.LC8:
 634 0070 7700     		.ascii	"w\000"
 635 0072 0000     		.space	2
 636              	.LC9:
 637 0074 0A0D2046 		.ascii	"\012\015 File \000"
 637      696C6520 
 637      00
 638 007d 000000   		.space	3
 639              	.LC10:
 640 0080 20776173 		.ascii	" was opened\000"
 640      206F7065 
 640      6E656400 
 641              	.LC11:
 642 008c 0A0D2230 		.ascii	"\012\015\"0123456789\"\000"
 642      31323334 
 642      35363738 
 642      392200
 643 009b 00       		.space	1
 644              	.LC12:
 645 009c 20777269 		.ascii	" written to file\000"
 645      7474656E 
 645      20746F20 
 645      66696C65 
 645      00
 646 00ad 000000   		.space	3
 647              	.LC13:
 648 00b0 0A0D2046 		.ascii	"\012\015 Failed to write\000"
ARM GAS  C:\Users\bkettle\AppData\Local\Temp\ccXfWhtF.s 			page 17


 648      61696C65 
 648      6420746F 
 648      20777269 
 648      746500
 649 00c3 00       		.space	1
 650              	.LC14:
 651 00c4 20646174 		.ascii	" data to file\000"
 651      6120746F 
 651      2066696C 
 651      6500
 652 00d2 0000     		.space	2
 653              	.LC15:
 654 00d4 0A0D2046 		.ascii	"\012\015 File was closed\000"
 654      696C6520 
 654      77617320 
 654      636C6F73 
 654      656400
 655 00e7 00       		.space	1
 656              	.LC16:
 657 00e8 0A0D2046 		.ascii	"\012\015 Failed to close\000"
 657      61696C65 
 657      6420746F 
 657      20636C6F 
 657      736500
 658 00fb 00       		.space	1
 659              	.LC17:
 660 00fc 66696C65 		.ascii	"file\000"
 660      00
 661 0101 000000   		.space	3
 662              	.LC18:
 663 0104 0A0D2046 		.ascii	"\012\015 Failed to create\000"
 663      61696C65 
 663      6420746F 
 663      20637265 
 663      61746500 
 664              	.LC19:
 665 0118 2066696C 		.ascii	" file\000"
 665      6500
 666 011e 0000     		.space	2
 667              	.LC20:
 668 0120 0A0D2046 		.ascii	"\012\015 Format complete \000"
 668      6F726D61 
 668      7420636F 
 668      6D706C65 
 668      74652000 
 669              	.LC21:
 670 0134 7200     		.ascii	"r\000"
 671 0136 0000     		.space	2
 672              	.LC22:
 673 0138 0A0D2021 		.ascii	"\012\015 !! Requested records outside range!\000"
 673      21205265 
 673      71756573 
 673      74656420 
 673      7265636F 
 674 015f 00       		.space	1
 675              	.LC23:
 676 0160 0A0D2021 		.ascii	"\012\015 !! Failed to move cursor!\000"
ARM GAS  C:\Users\bkettle\AppData\Local\Temp\ccXfWhtF.s 			page 18


 676      21204661 
 676      696C6564 
 676      20746F20 
 676      6D6F7665 
 677 017d 000000   		.space	3
 678              	.LC24:
 679 0180 0A0D2021 		.ascii	"\012\015 !! Failed to close file!\000"
 679      21204661 
 679      696C6564 
 679      20746F20 
 679      636C6F73 
 680              	.LC25:
 681 019c 6100     		.ascii	"a\000"
 682 019e 0000     		.space	2
 683              	.LC26:
 684 01a0 0A0D2053 		.ascii	"\012\015 SD card name:\000"
 684      44206361 
 684      7264206E 
 684      616D653A 
 684      00
 685 01b1 000000   		.space	3
 686              	.LC27:
 687 01b4 0A0D2046 		.ascii	"\012\015 Failed to get \000"
 687      61696C65 
 687      6420746F 
 687      20676574 
 687      2000
 688 01c6 0000     		.space	2
 689              	.LC28:
 690 01c8 53442063 		.ascii	"SD card name\000"
 690      61726420 
 690      6E616D65 
 690      00
 691 01d5 000000   		.space	3
 692              	.LC29:
 693 01d8 0A0D2D2D 		.ascii	"\012\015----\000"
 693      2D2D00
 694              		.bss
 695              		.align	2
 696              		.type	null_record, %object
 697              		.size	null_record, 64
 698              	null_record:
 699 0000 00000000 		.space	64
 699      00000000 
 699      00000000 
 699      00000000 
 699      00000000 
 700              		.text
 701              	.Letext0:
 702              		.file 2 "c:\\program files (x86)\\cypress\\psoc creator\\4.3\\psoc creator\\import\\gnu\\arm\\5.4.
 703              		.file 3 "c:\\program files (x86)\\cypress\\psoc creator\\4.3\\psoc creator\\import\\gnu\\arm\\5.4.
 704              		.file 4 "..\\emFile_V322c\\Code\\Include\\PSoC5/FS_Types.h"
 705              		.file 5 "Generated_Source\\PSoC5/core_cm3.h"
 706              		.file 6 "Generated_Source\\PSoC5/UART_1.h"
 707              		.file 7 "..\\emFile_V322c\\Code\\Include\\PSoC5/FS.h"
 708              		.file 8 "Generated_Source\\PSoC5/CyLib.h"